 AdversarialSearch

 Timestamp is 545a75b2 (Wed Nov 05 12:08:34 2014)

 Preferred load address is 00400000

 Start         Length     Name                   Class
 0001:00000000 000349aaH .text                   CODE
 0001:000349b0 000017c5H .text$x                 CODE
 0001:00036180 0000ae79H .text$yc                CODE
 0001:00041000 0000056aH .text$yd                CODE
 0002:00000000 00000134H .idata$5                DATA
 0002:00000134 00000004H .CRT$XCA                DATA
 0002:00000138 00000004H .CRT$XCAA               DATA
 0002:0000013c 00000c90H .CRT$XCU                DATA
 0002:00000dcc 00000004H .CRT$XCZ                DATA
 0002:00000dd0 00000004H .CRT$XIA                DATA
 0002:00000dd4 00000004H .CRT$XIAA               DATA
 0002:00000dd8 00000004H .CRT$XIC                DATA
 0002:00000ddc 00000004H .CRT$XIY                DATA
 0002:00000de0 00000004H .CRT$XIZ                DATA
 0002:00000df0 00003970H .rdata                  DATA
 0002:00004760 00000070H .rdata$debug            DATA
 0002:000047d0 00000738H .rdata$r                DATA
 0002:00004f10 000001b8H .rdata$sxdata           DATA
 0002:000050c8 00000004H .rtc$IAA                DATA
 0002:000050cc 00000004H .rtc$IZZ                DATA
 0002:000050d0 00000004H .rtc$TAA                DATA
 0002:000050d4 00000004H .rtc$TZZ                DATA
 0002:000050d8 00001facH .xdata$x                DATA
 0002:00007084 0000003cH .idata$2                DATA
 0002:000070c0 00000014H .idata$3                DATA
 0002:000070d4 00000134H .idata$4                DATA
 0002:00007208 000008eeH .idata$6                DATA
 0002:00007af6 00000000H .edata                  DATA
 0003:00000000 00000ae0H .data                   DATA
 0003:00000ae0 0005d5bcH .bss                    DATA

  Address         Publics by Value              Rva+Base       Lib:Object

 0000:00000000       __except_list              00000000     <absolute>
 0000:0000006e       ___safe_se_handler_count   0000006e     <absolute>
 0000:00009876       __ldused                   00009876     <absolute>
 0000:00009876       __fltused                  00009876     <absolute>
 0000:00000000       ___ImageBase               00400000     <linker-defined>
 0001:00000000       ??1bad_alloc@std@@UAE@XZ   00401000 f i AlphaBeta.obj
 0001:00000010       ??_Ebad_alloc@std@@UAEPAXI@Z 00401010 f i  CIL library: CIL module
 0001:00000010       ??_Gbad_alloc@std@@UAEPAXI@Z 00401010 f i AlphaBeta.obj
 0001:00000040       ??0logic_error@std@@QAE@ABV?$basic_string@DU?$char_traits@D@std@@V?$allocator@D@2@@1@@Z 00401040 f i AlphaBeta.obj
 0001:000000a0       ?what@logic_error@std@@UBEPBDXZ 004010a0 f i AlphaBeta.obj
 0001:000000b0       ??1length_error@std@@UAE@XZ 004010b0 f i AlphaBeta.obj
 0001:000000d0       ??_Glength_error@std@@UAEPAXI@Z 004010d0 f i AlphaBeta.obj
 0001:000000d0       ??_Glogic_error@std@@UAEPAXI@Z 004010d0 f i AlphaBeta.obj
 0001:000000d0       ??_Elogic_error@std@@UAEPAXI@Z 004010d0 f i  CIL library: CIL module
 0001:000000d0       ??_Elength_error@std@@UAEPAXI@Z 004010d0 f i  CIL library: CIL module
 0001:00000100       ??0logic_error@std@@QAE@ABV01@@Z 00401100 f i AlphaBeta.obj
 0001:00000170       ??0MoveArray@MicroSearch@@QAE@I@Z 00401170 f i AlphaBeta.obj
 0001:00000230       ?getMove@MoveArray@MicroSearch@@QBEABVMove@2@ABIAB_K@Z 00401230 f i AlphaBeta.obj
 0001:000002e0       ?getTupleMove@MoveArray@MicroSearch@@QBEABVMove@2@AB_KABI@Z 004012e0 f i AlphaBeta.obj
 0001:000004b0       ??1?$Array2D@VMove@MicroSearch@@$07$0N@@@QAE@XZ 004014b0 f i AlphaBeta.obj
 0001:000004c0       ??1?$Array@H$07@@QAE@XZ    004014c0 f i Player.obj
 0001:000004c0       ?destroy@?$allocator@V?$Array@PAVUnit@MicroSearch@@$07@@@std@@QAEXPAV?$Array@PAVUnit@MicroSearch@@$07@@@Z 004014c0 f i AlphaBeta.obj
 0001:000004c0       ??1?$Array@I$07@@QAE@XZ    004014c0 f i AlphaBeta.obj
 0001:000004f0       ??1?$Array@V?$Array@VMove@MicroSearch@@$0N@@@$07@@QAE@XZ 004014f0 f i AlphaBeta.obj
 0001:00000560       ??1?$Array@VMove@MicroSearch@@$0N@@@QAE@XZ 00401560 f i AlphaBeta.obj
 0001:000005a0       ?destroy@sp_counted_base@detail@boost@@UAEXXZ 004015a0 f i AlphaBeta.obj
 0001:000005b0       ??1shared_count@detail@boost@@QAE@XZ 004015b0 f i AlphaBeta.obj
 0001:000005f0       ?sp_enable_shared_from_this@detail@boost@@YAXZZ 004015f0 f i AlphaBeta.obj
 0001:000005f0       ??3@YAXPAX0@Z              004015f0 f i AlphaBeta.obj
 0001:00000600       ??0AlphaBeta@MicroSearch@@QAE@ABVMicroSearchParameters@1@V?$shared_ptr@VTranspositionTable@MicroSearch@@@boost@@@Z 00401600 f   AlphaBeta.obj
 0001:00000870       ??1?$shared_ptr@VTranspositionTable@MicroSearch@@@boost@@QAE@XZ 00401870 f i AlphaBeta.obj
 0001:000008b0       ??0MicroSearchParameters@MicroSearch@@QAE@ABV01@@Z 004018b0 f i AlphaBeta.obj
 0001:00000920       ??1MicroSearchParameters@MicroSearch@@QAE@XZ 00401920 f i AlphaBeta.obj
 0001:00000940       ??1?$Array@VMoveArray@MicroSearch@@$09@@QAE@XZ 00401940 f i AlphaBeta.obj
 0001:000009c0       ??1?$Array2D@_K$09$09@@QAE@XZ 004019c0 f i AlphaBeta.obj
 0001:000009d0       ??1?$shared_ptr@VPlayer@MicroSearch@@@boost@@QAE@XZ 004019d0 f i AlphaBeta.obj
 0001:00000a10       ??0?$shared_ptr@VPlayer@MicroSearch@@@boost@@QAE@ABV01@@Z 00401a10 f i AlphaBeta.obj
 0001:00000a40       ??1MoveArray@MicroSearch@@QAE@XZ 00401a40 f i AlphaBeta.obj
 0001:00000ac0       ??1?$Array@V?$Array@_K$09@@$09@@QAE@XZ 00401ac0 f i AlphaBeta.obj
 0001:00000b30       ??1?$Array@_K$09@@QAE@XZ   00401b30 f i AlphaBeta.obj
 0001:00000b70       ?doSearch@AlphaBeta@MicroSearch@@QAEXAAVGameState@2@@Z 00401b70 f   AlphaBeta.obj
 0001:00000c40       ?IDAlphaBeta@AlphaBeta@MicroSearch@@QAE?AVAlphaBetaValue@2@AAVGameState@2@ABI@Z 00401c40 f   AlphaBeta.obj
 0001:00000e30       ?TTsave@AlphaBeta@MicroSearch@@QAEXAAVGameState@2@ABVAlphaBetaScore@2@11ABIABEABVAlphaBetaMove@2@4@Z 00401e30 f   AlphaBeta.obj
 0001:00000f60       ?TTlookup@AlphaBeta@MicroSearch@@QAE?AVTTLookupValue@2@ABVGameState@2@AAVAlphaBetaScore@2@1ABI@Z 00401f60 f   AlphaBeta.obj
 0001:000010c0       ?doTupleMoves@AlphaBeta@MicroSearch@@QAEXAAVGameState@2@AAVMoveArray@2@AB_K@Z 004020c0 f   AlphaBeta.obj
 0001:00001120       ?searchTimeOut@AlphaBeta@MicroSearch@@QAE?B_NXZ 00402120 f   AlphaBeta.obj
 0001:000011b0       ?getAlphaBetaMove@AlphaBeta@MicroSearch@@QBEABVAlphaBetaMove@2@ABVTTLookupValue@2@ABE@Z 004021b0 f   AlphaBeta.obj
 0001:000011e0       ?generateOrderedMoves@AlphaBeta@MicroSearch@@QAEXAAVGameState@2@AAVMoveArray@2@ABVTTLookupValue@2@ABEABI@Z 004021e0 f   AlphaBeta.obj
 0001:000014d0       ?getNextMoveTuple@AlphaBeta@MicroSearch@@QBE?B_KAB_KABI@Z 004024d0 f   AlphaBeta.obj
 0001:000015d0       ?getNumMoveTuples@AlphaBeta@MicroSearch@@QBE?B_KAAVMoveArray@2@ABVTTLookupValue@2@ABEABI@Z 004025d0 f   AlphaBeta.obj
 0001:00001650       ?getPlayerToMove@AlphaBeta@MicroSearch@@QBE?BEAAVGameState@2@ABIABE_N@Z 00402650 f   AlphaBeta.obj
 0001:000016c0       ?alphaBeta@AlphaBeta@MicroSearch@@QAE?AVAlphaBetaValue@2@AAVGameState@2@IEPB_KVAlphaBetaScore@2@2@Z 004026c0 f   AlphaBeta.obj
 0001:00001d90       ??1GameState@MicroSearch@@QAE@XZ 00402d90 f i AlphaBeta.obj
 0001:00001f30       ??1?$Array2D@VUnit@MicroSearch@@$01$07@@QAE@XZ 00402f30 f i AlphaBeta.obj
 0001:00001f40       ??1?$Array2D@PAVUnit@MicroSearch@@$01$07@@QAE@XZ 00402f40 f i AlphaBeta.obj
 0001:00001f50       ??1?$Array@VUnit@MicroSearch@@$00@@QAE@XZ 00402f50 f i AlphaBeta.obj
 0001:00001f80       ??1?$Array@E$01@@QAE@XZ    00402f80 f i AlphaBeta.obj
 0001:00001fb0       ??1?$Array@M$01@@QAE@XZ    00402fb0 f i AlphaBeta.obj
 0001:00001fe0       ??1?$Array@V?$Array@VUnit@MicroSearch@@$07@@$01@@QAE@XZ 00402fe0 f i AlphaBeta.obj
 0001:00002060       ??1?$Array@V?$Array@PAVUnit@MicroSearch@@$07@@$01@@QAE@XZ 00403060 f i AlphaBeta.obj
 0001:000020d0       ??1?$Array@VUnit@MicroSearch@@$07@@QAE@XZ 004030d0 f i AlphaBeta.obj
 0001:00002120       ??1?$Array@PAVUnit@MicroSearch@@$07@@QAE@XZ 00403120 f i AlphaBeta.obj
 0001:00002160       ??A?$Array@VMove@MicroSearch@@$0N@@@QBEABVMove@MicroSearch@@ABI@Z 00403160 f i AlphaBeta.obj
 0001:000021c0       ??1?$vector@VMove@MicroSearch@@V?$allocator@VMove@MicroSearch@@@std@@@std@@QAE@XZ 004031c0 f i AlphaBeta.obj
 0001:00002200       ??1?$vector@V?$Array@VMove@MicroSearch@@$0N@@@V?$allocator@V?$Array@VMove@MicroSearch@@$0N@@@@std@@@std@@QAE@XZ 00403200 f i AlphaBeta.obj
 0001:00002250       ?fill@?$Array@I$07@@QAEXABI@Z 00403250 f i AlphaBeta.obj
 0001:000022d0       ??0?$Array@VMoveArray@MicroSearch@@$09@@QAE@XZ 004032d0 f i AlphaBeta.obj
 0001:00002350       ??A?$Array@_K$09@@QBEAB_KABI@Z 00403350 f i AlphaBeta.obj
 0001:000023b0       ?add@?$Array@_K$09@@QAEXAB_K@Z 004033b0 f i AlphaBeta.obj
 0001:00002400       ??1?$vector@V?$shared_ptr@VPlayer@MicroSearch@@@boost@@V?$allocator@V?$shared_ptr@VPlayer@MicroSearch@@@boost@@@std@@@std@@QAE@XZ 00403400 f i AlphaBeta.obj
 0001:00002480       ?push_back@?$vector@V?$shared_ptr@VPlayer@MicroSearch@@@boost@@V?$allocator@V?$shared_ptr@VPlayer@MicroSearch@@@boost@@@std@@@std@@QAEXABV?$shared_ptr@VPlayer@MicroSearch@@@boost@@@Z 00403480 f i AlphaBeta.obj
 0001:00002500       ??_FMoveArray@MicroSearch@@QAEXXZ 00403500 f i AlphaBeta.obj
 0001:00002510       ??1?$_Vector_val@VMove@MicroSearch@@V?$allocator@VMove@MicroSearch@@@std@@@std@@QAE@XZ 00403510 f i AlphaBeta.obj
 0001:00002510       ??1?$_Vector_val@V?$Array@PAVUnit@MicroSearch@@$07@@V?$allocator@V?$Array@PAVUnit@MicroSearch@@$07@@@std@@@std@@QAE@XZ 00403510 f i AlphaBeta.obj
 0001:00002510       ??1?$_Vector_val@V?$Array@VMove@MicroSearch@@$0N@@@V?$allocator@V?$Array@VMove@MicroSearch@@$0N@@@@std@@@std@@QAE@XZ 00403510 f i AlphaBeta.obj
 0001:00002510       ??1?$_Vector_val@V?$Array@VUnit@MicroSearch@@$07@@V?$allocator@V?$Array@VUnit@MicroSearch@@$07@@@std@@@std@@QAE@XZ 00403510 f i AlphaBeta.obj
 0001:00002510       ??1?$_Vector_val@V?$Array@_K$09@@V?$allocator@V?$Array@_K$09@@@std@@@std@@QAE@XZ 00403510 f i AlphaBeta.obj
 0001:00002510       ??1?$_Vector_val@_KV?$allocator@_K@std@@@std@@QAE@XZ 00403510 f i AlphaBeta.obj
 0001:00002510       ??1?$_Vector_val@V?$vector@_NV?$allocator@_N@std@@@std@@V?$allocator@V?$vector@_NV?$allocator@_N@std@@@std@@@2@@std@@QAE@XZ 00403510 f i test.obj
 0001:00002510       ??1?$_Vector_val@VGameState@MicroSearch@@V?$allocator@VGameState@MicroSearch@@@std@@@std@@QAE@XZ 00403510 f i test.obj
 0001:00002510       ??1?$_Vector_val@IV?$allocator@I@std@@@std@@QAE@XZ 00403510 f i AlphaBeta.obj
 0001:00002510       ??1?$_Vector_val@VUnit@MicroSearch@@V?$allocator@VUnit@MicroSearch@@@std@@@std@@QAE@XZ 00403510 f i AlphaBeta.obj
 0001:00002510       ??1?$_Vector_val@EV?$allocator@E@std@@@std@@QAE@XZ 00403510 f i AlphaBeta.obj
 0001:00002510       ??1?$_Vector_val@U?$pair@HH@std@@V?$allocator@U?$pair@HH@std@@@2@@std@@QAE@XZ 00403510 f i Common.obj
 0001:00002510       ??1?$_Vector_val@HV?$allocator@H@std@@@std@@QAE@XZ 00403510 f i AlphaBeta.obj
 0001:00002510       ??1?$_Vector_val@MV?$allocator@M@std@@@std@@QAE@XZ 00403510 f i AlphaBeta.obj
 0001:00002510       ??1?$_Vector_val@V?$basic_string@DU?$char_traits@D@std@@V?$allocator@D@2@@std@@V?$allocator@V?$basic_string@DU?$char_traits@D@std@@V?$allocator@D@2@@std@@@2@@std@@QAE@XZ 00403510 f i Common.obj
 0001:00002510       ??1?$_Container_base_aux_alloc_real@V?$allocator@_N@std@@@std@@IAE@XZ 00403510 f i test.obj
 0001:00002510       ??1?$_Vector_val@V?$shared_ptr@VPlayer@MicroSearch@@@boost@@V?$allocator@V?$shared_ptr@VPlayer@MicroSearch@@@boost@@@std@@@std@@QAE@XZ 00403510 f i AlphaBeta.obj
 0001:00002510       ??1?$_Vector_val@VMoveArray@MicroSearch@@V?$allocator@VMoveArray@MicroSearch@@@std@@@std@@QAE@XZ 00403510 f i AlphaBeta.obj
 0001:00002510       ??1?$_Vector_val@VTTEntry@MicroSearch@@V?$allocator@VTTEntry@MicroSearch@@@std@@@std@@QAE@XZ 00403510 f i AlphaBeta.obj
 0001:00002510       ??1?$_Vector_val@PAVUnit@MicroSearch@@V?$allocator@PAVUnit@MicroSearch@@@std@@@std@@QAE@XZ 00403510 f i AlphaBeta.obj
 0001:00002520       ??0?$Array@V?$Array@VMove@MicroSearch@@$0N@@@$07@@QAE@XZ 00403520 f i AlphaBeta.obj
 0001:000025a0       ?_Tidy@?$vector@V?$Array@VMove@MicroSearch@@$0N@@@V?$allocator@V?$Array@VMove@MicroSearch@@$0N@@@@std@@@std@@IAEXXZ 004035a0 f i AlphaBeta.obj
 0001:000025e0       ?_Buy@?$vector@_KV?$allocator@_K@std@@@std@@IAE_NI@Z 004035e0 f i AlphaBeta.obj
 0001:000025e0       ?_Buy@?$vector@U?$pair@HH@std@@V?$allocator@U?$pair@HH@std@@@2@@std@@IAE_NI@Z 004035e0 f i Common.obj
 0001:00002610       ?_Tidy@?$vector@V?$Array@VUnit@MicroSearch@@$07@@V?$allocator@V?$Array@VUnit@MicroSearch@@$07@@@std@@@std@@IAEXXZ 00403610 f i AlphaBeta.obj
 0001:00002650       ?_Tidy@?$vector@V?$Array@PAVUnit@MicroSearch@@$07@@V?$allocator@V?$Array@PAVUnit@MicroSearch@@$07@@@std@@@std@@IAEXXZ 00403650 f i AlphaBeta.obj
 0001:00002690       ?get@?$Array@VMoveArray@MicroSearch@@$09@@QAEAAVMoveArray@MicroSearch@@ABI@Z 00403690 f i AlphaBeta.obj
 0001:00002700       ?_Tidy@?$vector@VMoveArray@MicroSearch@@V?$allocator@VMoveArray@MicroSearch@@@std@@@std@@IAEXXZ 00403700 f i AlphaBeta.obj
 0001:00002750       ??0?$Array@V?$Array@_K$09@@$09@@QAE@XZ 00403750 f i AlphaBeta.obj
 0001:000027d0       ?contains@?$Array@_K$09@@QBE?B_NAB_K@Z 004037d0 f i AlphaBeta.obj
 0001:00002840       ?insert@?$vector@V?$shared_ptr@VPlayer@MicroSearch@@@boost@@V?$allocator@V?$shared_ptr@VPlayer@MicroSearch@@@boost@@@std@@@std@@QAE?AV?$_Vector_iterator@V?$shared_ptr@VPlayer@MicroSearch@@@boost@@V?$allocator@V?$shared_ptr@VPlayer@MicroSearch@@@boost@@@std@@@2@V?$_Vector_const_iterator@V?$shared_ptr@VPlayer@MicroSearch@@@boost@@V?$allocator@V?$shared_ptr@VPlayer@MicroSearch@@@boost@@@std@@@2@ABV?$shared_ptr@VPlayer@MicroSearch@@@boost@@@Z 00403840 f i AlphaBeta.obj
 0001:000028f0       ??0?$Array@VMove@MicroSearch@@$0N@@@QAE@XZ 004038f0 f i AlphaBeta.obj
 0001:00002930       ?_Destroy@?$vector@V?$Array@VMove@MicroSearch@@$0N@@@V?$allocator@V?$Array@VMove@MicroSearch@@$0N@@@@std@@@std@@IAEXPAV?$Array@VMove@MicroSearch@@$0N@@@0@Z 00403930 f i AlphaBeta.obj
 0001:00002950       ?_Xlen@?$vector@PAVUnit@MicroSearch@@V?$allocator@PAVUnit@MicroSearch@@@std@@@std@@KAXXZ 00403950 f i GameState.obj
 0001:00002950       ?_Xlen@?$vector@V?$Array@VMove@MicroSearch@@$0N@@@V?$allocator@V?$Array@VMove@MicroSearch@@$0N@@@@std@@@std@@KAXXZ 00403950 f i AlphaBeta.obj
 0001:00002950       ?_Xlen@?$vector@VMove@MicroSearch@@V?$allocator@VMove@MicroSearch@@@std@@@std@@KAXXZ 00403950 f i AlphaBeta.obj
 0001:00002950       ?_Xlen@?$vector@IV?$allocator@I@std@@@std@@KAXXZ 00403950 f i AlphaBeta.obj
 0001:00002950       ?_Xlen@?$vector@V?$basic_string@DU?$char_traits@D@std@@V?$allocator@D@2@@std@@V?$allocator@V?$basic_string@DU?$char_traits@D@std@@V?$allocator@D@2@@std@@@2@@std@@KAXXZ 00403950 f i Common.obj
 0001:00002950       ?_Xlen@?$vector@U?$pair@HH@std@@V?$allocator@U?$pair@HH@std@@@2@@std@@KAXXZ 00403950 f i Common.obj
 0001:00002950       ?_Xlen@?$vector@VUnit@MicroSearch@@V?$allocator@VUnit@MicroSearch@@@std@@@std@@KAXXZ 00403950 f i GameState.obj
 0001:00002950       ?_Xlen@?$vector@_KV?$allocator@_K@std@@@std@@KAXXZ 00403950 f i AlphaBeta.obj
 0001:000029c0       ?get@?$Array@V?$Array@_K$09@@$09@@QAEAAV?$Array@_K$09@@ABI@Z 004039c0 f i AlphaBeta.obj
 0001:000029c0       ?get@?$Array@V?$Array@_K$09@@$09@@QBEABV?$Array@_K$09@@ABI@Z 004039c0 f i AlphaBeta.obj
 0001:00002a30       ??0?$Array@_K$09@@QAE@XZ   00403a30 f i AlphaBeta.obj
 0001:00002a50       ?_Insert_n@?$vector@V?$shared_ptr@VPlayer@MicroSearch@@@boost@@V?$allocator@V?$shared_ptr@VPlayer@MicroSearch@@@boost@@@std@@@std@@IAEXV?$_Vector_const_iterator@V?$shared_ptr@VPlayer@MicroSearch@@@boost@@V?$allocator@V?$shared_ptr@VPlayer@MicroSearch@@@boost@@@std@@@2@IABV?$shared_ptr@VPlayer@MicroSearch@@@boost@@@Z 00403a50 f i AlphaBeta.obj
 0001:00002d10       ?allocate@?$allocator@U?$pair@HH@std@@@std@@QAEPAU?$pair@HH@2@I@Z 00403d10 f i Common.obj
 0001:00002d10       ?allocate@?$allocator@V?$shared_ptr@VPlayer@MicroSearch@@@boost@@@std@@QAEPAV?$shared_ptr@VPlayer@MicroSearch@@@boost@@I@Z 00403d10 f i AlphaBeta.obj
 0001:00002d10       ?allocate@?$allocator@_K@std@@QAEPA_KI@Z 00403d10 f i AlphaBeta.obj
 0001:00002d70       ??0length_error@std@@QAE@ABV01@@Z 00403d70 f i AlphaBeta.obj
 0001:00002d90       ??0?$vector@VMove@MicroSearch@@V?$allocator@VMove@MicroSearch@@@std@@@std@@QAE@XZ 00403d90 f i AlphaBeta.obj
 0001:00002df0       ?_Buy@?$vector@V?$Array@VMove@MicroSearch@@$0N@@@V?$allocator@V?$Array@VMove@MicroSearch@@$0N@@@@std@@@std@@IAE_NI@Z 00403df0 f i AlphaBeta.obj
 0001:00002e20       ?allocate@?$allocator@V?$Array@VMove@MicroSearch@@$0N@@@@std@@QAEPAV?$Array@VMove@MicroSearch@@$0N@@@I@Z 00403e20 f i AlphaBeta.obj
 0001:00002e80       ??$?0VTranspositionTable@MicroSearch@@@?$shared_ptr@VTranspositionTable@MicroSearch@@@boost@@QAE@PAVTranspositionTable@MicroSearch@@@Z 00403e80 f i AlphaBeta.obj
 0001:00002ee0       ??$?0VPlayer_NOK_AttackDPS@MicroSearch@@@?$shared_ptr@VPlayer@MicroSearch@@@boost@@QAE@PAVPlayer_NOK_AttackDPS@MicroSearch@@@Z 00403ee0 f i AlphaBeta.obj
 0001:00002f40       ??$_Umove@PAV?$shared_ptr@VPlayer@MicroSearch@@@boost@@@?$vector@V?$shared_ptr@VPlayer@MicroSearch@@@boost@@V?$allocator@V?$shared_ptr@VPlayer@MicroSearch@@@boost@@@std@@@std@@IAEPAV?$shared_ptr@VPlayer@MicroSearch@@@boost@@PAV23@00@Z 00403f40 f i AlphaBeta.obj
 0001:00002f70       ??$_Unchecked_move_backward@PAV?$shared_ptr@VPlayer@MicroSearch@@@boost@@PAV12@@stdext@@YAPAV?$shared_ptr@VPlayer@MicroSearch@@@boost@@PAV12@00@Z 00403f70 f i AlphaBeta.obj
 0001:00002fb0       ??0bad_alloc@std@@QAE@ABV01@@Z 00403fb0 f i AlphaBeta.obj
 0001:00002fd0       ??$sp_pointer_construct@VTranspositionTable@MicroSearch@@V12@@detail@boost@@YAXPAV?$shared_ptr@VTranspositionTable@MicroSearch@@@1@PAVTranspositionTable@MicroSearch@@AAVshared_count@01@@Z 00403fd0 f i AlphaBeta.obj
 0001:00003030       ??$sp_pointer_construct@VPlayer@MicroSearch@@VPlayer_NOK_AttackDPS@2@@detail@boost@@YAXPAV?$shared_ptr@VPlayer@MicroSearch@@@1@PAVPlayer_NOK_AttackDPS@MicroSearch@@AAVshared_count@01@@Z 00404030 f i AlphaBeta.obj
 0001:00003090       ??$_Uninit_fill_n@PAV?$shared_ptr@VPlayer@MicroSearch@@@boost@@IV12@V?$allocator@V?$shared_ptr@VPlayer@MicroSearch@@@boost@@@std@@@std@@YAXPAV?$shared_ptr@VPlayer@MicroSearch@@@boost@@IABV12@AAV?$allocator@V?$shared_ptr@VPlayer@MicroSearch@@@boost@@@0@U_Nonscalar_ptr_iterator_tag@0@U_Range_checked_iterator_tag@0@@Z 00404090 f i AlphaBeta.obj
 0001:000030c0       ??$_Destroy_range@V?$allocator@V?$Array@VMove@MicroSearch@@$0N@@@@std@@@std@@YAXPAV?$Array@VMove@MicroSearch@@$0N@@@0AAV?$allocator@V?$Array@VMove@MicroSearch@@$0N@@@@0@U_Nonscalar_ptr_iterator_tag@0@@Z 004040c0 f i AlphaBeta.obj
 0001:00003110       ??$_Destroy_range@V?$allocator@V?$Array@VUnit@MicroSearch@@$07@@@std@@@std@@YAXPAV?$Array@VUnit@MicroSearch@@$07@@0AAV?$allocator@V?$Array@VUnit@MicroSearch@@$07@@@0@U_Nonscalar_ptr_iterator_tag@0@@Z 00404110 f i AlphaBeta.obj
 0001:00003160       ??$_Destroy_range@V?$allocator@V?$Array@PAVUnit@MicroSearch@@$07@@@std@@@std@@YAXPAV?$Array@PAVUnit@MicroSearch@@$07@@0AAV?$allocator@V?$Array@PAVUnit@MicroSearch@@$07@@@0@U_Nonscalar_ptr_iterator_tag@0@@Z 00404160 f i AlphaBeta.obj
 0001:000031b0       ??$_Destroy_range@V?$allocator@V?$Array@_K$09@@@std@@@std@@YAXPAV?$Array@_K$09@@0AAV?$allocator@V?$Array@_K$09@@@0@U_Nonscalar_ptr_iterator_tag@0@@Z 004041b0 f i AlphaBeta.obj
 0001:00003200       ??$_Destroy_range@V?$allocator@V?$shared_ptr@VPlayer@MicroSearch@@@boost@@@std@@@std@@YAXPAV?$shared_ptr@VPlayer@MicroSearch@@@boost@@0AAV?$allocator@V?$shared_ptr@VPlayer@MicroSearch@@@boost@@@0@U_Nonscalar_ptr_iterator_tag@0@@Z 00404200 f i AlphaBeta.obj
 0001:00003250       ??$_Fill@PAV?$shared_ptr@VPlayer@MicroSearch@@@boost@@V12@@std@@YAXPAV?$shared_ptr@VPlayer@MicroSearch@@@boost@@0ABV12@@Z 00404250 f i AlphaBeta.obj
 0001:000032d0       ?destroy@?$allocator@V?$Array@VMove@MicroSearch@@$0N@@@@std@@QAEXPAV?$Array@VMove@MicroSearch@@$0N@@@@Z 004042d0 f i AlphaBeta.obj
 0001:00003300       ??4?$shared_ptr@VPlayer@MicroSearch@@@boost@@QAEAAV01@ABV01@@Z 00404300 f i AlphaBeta.obj
 0001:00003300       ??4?$shared_ptr@VTranspositionTable@MicroSearch@@@boost@@QAEAAV01@ABV01@@Z 00404300 f i Player.obj
 0001:00003360       ?destroy@?$allocator@V?$Array@VUnit@MicroSearch@@$07@@@std@@QAEXPAV?$Array@VUnit@MicroSearch@@$07@@@Z 00404360 f i AlphaBeta.obj
 0001:000033a0       ??$?0VTranspositionTable@MicroSearch@@@shared_count@detail@boost@@QAE@PAVTranspositionTable@MicroSearch@@@Z 004043a0 f i AlphaBeta.obj
 0001:00003430       ??$?0VPlayer_NOK_AttackDPS@MicroSearch@@@shared_count@detail@boost@@QAE@PAVPlayer_NOK_AttackDPS@MicroSearch@@@Z 00404430 f i AlphaBeta.obj
 0001:000034c0       ?dispose@?$sp_counted_impl_p@VTranspositionTable@MicroSearch@@@detail@boost@@UAEXXZ 004044c0 f i AlphaBeta.obj
 0001:00003500       ?get_untyped_deleter@?$sp_counted_impl_p@VPlayer_NOK_AttackDPS@MicroSearch@@@detail@boost@@UAEPAXXZ 00404500 f i AlphaBeta.obj
 0001:00003500       ?get_untyped_deleter@?$sp_counted_impl_p@VPlayer_AlphaBeta@MicroSearch@@@detail@boost@@UAEPAXXZ 00404500 f i test.obj
 0001:00003500       ?get_untyped_deleter@?$sp_counted_impl_p@VTranspositionTable@MicroSearch@@@detail@boost@@UAEPAXXZ 00404500 f i AlphaBeta.obj
 0001:00003500       ?get_untyped_deleter@?$sp_counted_impl_p@VPlayer_KiterDPS@MicroSearch@@@detail@boost@@UAEPAXXZ 00404500 f i test.obj
 0001:00003500       ?get_untyped_deleter@?$sp_counted_impl_p@VPlayer_AttackClosest@MicroSearch@@@detail@boost@@UAEPAXXZ 00404500 f i test.obj
 0001:00003500       ?get_untyped_deleter@?$sp_counted_impl_p@VPlayer_Random@MicroSearch@@@detail@boost@@UAEPAXXZ 00404500 f i test.obj
 0001:00003500       ?get_untyped_deleter@?$sp_counted_impl_p@VPlayer_Kiter@MicroSearch@@@detail@boost@@UAEPAXXZ 00404500 f i test.obj
 0001:00003500       ?get_untyped_deleter@?$sp_counted_impl_p@VPlayer_AttackDPS@MicroSearch@@@detail@boost@@UAEPAXXZ 00404500 f i test.obj
 0001:00003500       ?get_untyped_deleter@?$sp_counted_impl_p@VPlayer_AttackWeakest@MicroSearch@@@detail@boost@@UAEPAXXZ 00404500 f i test.obj
 0001:00003500       ?get_untyped_deleter@?$sp_counted_impl_p@VPlayer@MicroSearch@@@detail@boost@@UAEPAXXZ 00404500 f i GameState.obj
 0001:00003510       ??_Esp_counted_base@detail@boost@@UAEPAXI@Z 00404510 f i  CIL library: CIL module
 0001:00003510       ??_E?$sp_counted_impl_p@VPlayer_AttackClosest@MicroSearch@@@detail@boost@@UAEPAXI@Z 00404510 f i  CIL library: CIL module
 0001:00003510       ??_G?$sp_counted_impl_p@VPlayer_AttackClosest@MicroSearch@@@detail@boost@@UAEPAXI@Z 00404510 f i test.obj
 0001:00003510       ??_Gsp_counted_base@detail@boost@@UAEPAXI@Z 00404510 f i AlphaBeta.obj
 0001:00003510       ??_E?$sp_counted_impl_p@VPlayer_Kiter@MicroSearch@@@detail@boost@@UAEPAXI@Z 00404510 f i  CIL library: CIL module
 0001:00003510       ??_E?$sp_counted_impl_p@VPlayer@MicroSearch@@@detail@boost@@UAEPAXI@Z 00404510 f i  CIL library: CIL module
 0001:00003510       ??_E?$sp_counted_impl_p@VTranspositionTable@MicroSearch@@@detail@boost@@UAEPAXI@Z 00404510 f i  CIL library: CIL module
 0001:00003510       ??_G?$sp_counted_impl_p@VPlayer_AlphaBeta@MicroSearch@@@detail@boost@@UAEPAXI@Z 00404510 f i test.obj
 0001:00003510       ??_E?$sp_counted_impl_p@VPlayer_AlphaBeta@MicroSearch@@@detail@boost@@UAEPAXI@Z 00404510 f i  CIL library: CIL module
 0001:00003510       ??_G?$sp_counted_impl_p@VPlayer_KiterDPS@MicroSearch@@@detail@boost@@UAEPAXI@Z 00404510 f i test.obj
 0001:00003510       ??_E?$sp_counted_impl_p@VPlayer_Random@MicroSearch@@@detail@boost@@UAEPAXI@Z 00404510 f i  CIL library: CIL module
 0001:00003510       ??_G?$sp_counted_impl_p@VTranspositionTable@MicroSearch@@@detail@boost@@UAEPAXI@Z 00404510 f i AlphaBeta.obj
 0001:00003510       ??_G?$sp_counted_impl_p@VPlayer@MicroSearch@@@detail@boost@@UAEPAXI@Z 00404510 f i GameState.obj
 0001:00003510       ??_G?$sp_counted_impl_p@VPlayer_AttackWeakest@MicroSearch@@@detail@boost@@UAEPAXI@Z 00404510 f i test.obj
 0001:00003510       ??_G?$sp_counted_impl_p@VPlayer_NOK_AttackDPS@MicroSearch@@@detail@boost@@UAEPAXI@Z 00404510 f i AlphaBeta.obj
 0001:00003510       ??_G?$sp_counted_impl_p@VPlayer_AttackDPS@MicroSearch@@@detail@boost@@UAEPAXI@Z 00404510 f i test.obj
 0001:00003510       ??_E?$sp_counted_impl_p@VPlayer_KiterDPS@MicroSearch@@@detail@boost@@UAEPAXI@Z 00404510 f i  CIL library: CIL module
 0001:00003510       ??_G?$sp_counted_impl_p@VPlayer_Random@MicroSearch@@@detail@boost@@UAEPAXI@Z 00404510 f i test.obj
 0001:00003510       ??_E?$sp_counted_impl_p@VPlayer_NOK_AttackDPS@MicroSearch@@@detail@boost@@UAEPAXI@Z 00404510 f i  CIL library: CIL module
 0001:00003510       ??_E?$sp_counted_impl_p@VPlayer_AttackWeakest@MicroSearch@@@detail@boost@@UAEPAXI@Z 00404510 f i  CIL library: CIL module
 0001:00003510       ??_E?$sp_counted_impl_p@VPlayer_AttackDPS@MicroSearch@@@detail@boost@@UAEPAXI@Z 00404510 f i  CIL library: CIL module
 0001:00003510       ??_G?$sp_counted_impl_p@VPlayer_Kiter@MicroSearch@@@detail@boost@@UAEPAXI@Z 00404510 f i test.obj
 0001:00003530       ??$checked_delete@VTranspositionTable@MicroSearch@@@boost@@YAXPAVTranspositionTable@MicroSearch@@@Z 00404530 f i AlphaBeta.obj
 0001:00003570       ??$_Copy_backward_opt@PAV?$shared_ptr@VPlayer@MicroSearch@@@boost@@PAV12@Uforward_iterator_tag@std@@@std@@YAPAV?$shared_ptr@VPlayer@MicroSearch@@@boost@@PAV12@00Uforward_iterator_tag@0@U_Nonscalar_ptr_iterator_tag@0@U_Range_checked_iterator_tag@0@@Z 00404570 f i AlphaBeta.obj
 0001:000035f0       ?_Tidy@?$vector@VUnit@MicroSearch@@V?$allocator@VUnit@MicroSearch@@@std@@@std@@IAEXXZ 004045f0 f i AlphaBeta.obj
 0001:000035f0       ?_Tidy@?$vector@VMove@MicroSearch@@V?$allocator@VMove@MicroSearch@@@std@@@std@@IAEXXZ 004045f0 f i AlphaBeta.obj
 0001:000035f0       ?_Tidy@?$vector@U?$pair@HH@std@@V?$allocator@U?$pair@HH@std@@@2@@std@@IAEXXZ 004045f0 f i Common.obj
 0001:000035f0       ?_Tidy@?$vector@VTTEntry@MicroSearch@@V?$allocator@VTTEntry@MicroSearch@@@std@@@std@@IAEXXZ 004045f0 f i AlphaBeta.obj
 0001:00003620       ??$_Uninit_copy@PAV?$shared_ptr@VPlayer@MicroSearch@@@boost@@PAV12@V?$allocator@V?$shared_ptr@VPlayer@MicroSearch@@@boost@@@std@@@std@@YAPAV?$shared_ptr@VPlayer@MicroSearch@@@boost@@PAV12@00AAV?$allocator@V?$shared_ptr@VPlayer@MicroSearch@@@boost@@@0@U_Nonscalar_ptr_iterator_tag@0@U_Range_checked_iterator_tag@0@@Z 00404620 f i AlphaBeta.obj
 0001:00003650       ?init@StarcraftData@Search@@YAXXZ 00404650 f   Common.obj
 0001:00004150       ?push_back@?$vector@V?$basic_string@DU?$char_traits@D@std@@V?$allocator@D@2@@std@@V?$allocator@V?$basic_string@DU?$char_traits@D@std@@V?$allocator@D@2@@std@@@2@@std@@QAEXABV?$basic_string@DU?$char_traits@D@std@@V?$allocator@D@2@@2@@Z 00405150 f i Common.obj
 0001:000041f0       ??0?$vector@U?$pair@HH@std@@V?$allocator@U?$pair@HH@std@@@2@@std@@QAE@XZ 004051f0 f i Common.obj
 0001:00004260       ??0?$vector@U?$pair@HH@std@@V?$allocator@U?$pair@HH@std@@@2@@std@@QAE@IABU?$pair@HH@1@@Z 00405260 f i Common.obj
 0001:000042d0       ??1?$vector@HV?$allocator@H@std@@@std@@QAE@XZ 004052d0 f i AlphaBeta.obj
 0001:000042d0       ??1?$vector@U?$pair@HH@std@@V?$allocator@U?$pair@HH@std@@@2@@std@@QAE@XZ 004052d0 f i Common.obj
 0001:000042d0       ??1?$vector@IV?$allocator@I@std@@@std@@QAE@XZ 004052d0 f i AlphaBeta.obj
 0001:000042d0       ??1?$vector@_KV?$allocator@_K@std@@@std@@QAE@XZ 004052d0 f i AlphaBeta.obj
 0001:00004300       ??4?$vector@U?$pair@HH@std@@V?$allocator@U?$pair@HH@std@@@2@@std@@QAEAAV01@ABV01@@Z 00405300 f i Common.obj
 0001:00004410       ?insert@?$vector@V?$basic_string@DU?$char_traits@D@std@@V?$allocator@D@2@@std@@V?$allocator@V?$basic_string@DU?$char_traits@D@std@@V?$allocator@D@2@@std@@@2@@std@@QAE?AV?$_Vector_iterator@V?$basic_string@DU?$char_traits@D@std@@V?$allocator@D@2@@std@@V?$allocator@V?$basic_string@DU?$char_traits@D@std@@V?$allocator@D@2@@std@@@2@@2@V?$_Vector_const_iterator@V?$basic_string@DU?$char_traits@D@std@@V?$allocator@D@2@@std@@V?$allocator@V?$basic_string@DU?$char_traits@D@std@@V?$allocator@D@2@@std@@@2@@2@ABV?$basic_string@DU?$char_traits@D@std@@V?$allocator@D@2@@2@@Z 00405410 f i Common.obj
 0001:000044f0       ?_Tidy@?$vector@V?$basic_string@DU?$char_traits@D@std@@V?$allocator@D@2@@std@@V?$allocator@V?$basic_string@DU?$char_traits@D@std@@V?$allocator@D@2@@std@@@2@@std@@IAEXXZ 004054f0 f i Common.obj
 0001:00004540       ?_Ufill@?$vector@V?$basic_string@DU?$char_traits@D@std@@V?$allocator@D@2@@std@@V?$allocator@V?$basic_string@DU?$char_traits@D@std@@V?$allocator@D@2@@std@@@2@@std@@IAEPAV?$basic_string@DU?$char_traits@D@std@@V?$allocator@D@2@@2@PAV32@IABV32@@Z 00405540 f i Common.obj
 0001:00004570       ?_Construct_n@?$vector@U?$pair@HH@std@@V?$allocator@U?$pair@HH@std@@@2@@std@@QAEXIABU?$pair@HH@2@@Z 00405570 f i Common.obj
 0001:00004620       ?clear@?$vector@U?$pair@HH@std@@V?$allocator@U?$pair@HH@std@@@2@@std@@QAEXXZ 00405620 f i Common.obj
 0001:00004680       ?_Destroy@?$vector@V?$basic_string@DU?$char_traits@D@std@@V?$allocator@D@2@@std@@V?$allocator@V?$basic_string@DU?$char_traits@D@std@@V?$allocator@D@2@@std@@@2@@std@@IAEXPAV?$basic_string@DU?$char_traits@D@std@@V?$allocator@D@2@@2@0@Z 00405680 f i Common.obj
 0001:000046a0       ?_Insert_n@?$vector@V?$basic_string@DU?$char_traits@D@std@@V?$allocator@D@2@@std@@V?$allocator@V?$basic_string@DU?$char_traits@D@std@@V?$allocator@D@2@@std@@@2@@std@@IAEXV?$_Vector_const_iterator@V?$basic_string@DU?$char_traits@D@std@@V?$allocator@D@2@@std@@V?$allocator@V?$basic_string@DU?$char_traits@D@std@@V?$allocator@D@2@@std@@@2@@2@IABV?$basic_string@DU?$char_traits@D@std@@V?$allocator@D@2@@2@@Z 004056a0 f i Common.obj
 0001:00004a30       ?erase@?$vector@U?$pair@HH@std@@V?$allocator@U?$pair@HH@std@@@2@@std@@QAE?AV?$_Vector_iterator@U?$pair@HH@std@@V?$allocator@U?$pair@HH@std@@@2@@2@V?$_Vector_const_iterator@U?$pair@HH@std@@V?$allocator@U?$pair@HH@std@@@2@@2@0@Z 00405a30 f i Common.obj
 0001:00004ae0       ??$unchecked_copy@PAU?$pair@HH@std@@PAU12@@stdext@@YAPAU?$pair@HH@std@@PAU12@00@Z 00405ae0 f i Common.obj
 0001:00004b10       ??$_Ucopy@PAU?$pair@HH@std@@@?$vector@U?$pair@HH@std@@V?$allocator@U?$pair@HH@std@@@2@@std@@IAEPAU?$pair@HH@1@PAU21@00@Z 00405b10 f i Common.obj
 0001:00004b40       ??$_Umove@PAV?$basic_string@DU?$char_traits@D@std@@V?$allocator@D@2@@std@@@?$vector@V?$basic_string@DU?$char_traits@D@std@@V?$allocator@D@2@@std@@V?$allocator@V?$basic_string@DU?$char_traits@D@std@@V?$allocator@D@2@@std@@@2@@std@@IAEPAV?$basic_string@DU?$char_traits@D@std@@V?$allocator@D@2@@1@PAV21@00@Z 00405b40 f i Common.obj
 0001:00004b70       ??$_Allocate@V?$basic_string@DU?$char_traits@D@std@@V?$allocator@D@2@@std@@@std@@YAPAV?$basic_string@DU?$char_traits@D@std@@V?$allocator@D@2@@0@IPAV10@@Z 00405b70 f i Common.obj
 0001:00004bd0       ??$_Uninit_fill_n@PAV?$basic_string@DU?$char_traits@D@std@@V?$allocator@D@2@@std@@IV12@V?$allocator@V?$basic_string@DU?$char_traits@D@std@@V?$allocator@D@2@@std@@@2@@std@@YAXPAV?$basic_string@DU?$char_traits@D@std@@V?$allocator@D@2@@0@IABV10@AAV?$allocator@V?$basic_string@DU?$char_traits@D@std@@V?$allocator@D@2@@std@@@0@U_Nonscalar_ptr_iterator_tag@0@U_Range_checked_iterator_tag@0@@Z 00405bd0 f i Common.obj
 0001:00004c70       ??$_Move_backward_opt@PAV?$basic_string@DU?$char_traits@D@std@@V?$allocator@D@2@@std@@PAV12@@std@@YAPAV?$basic_string@DU?$char_traits@D@std@@V?$allocator@D@2@@0@PAV10@00Urandom_access_iterator_tag@0@U_Swap_move_tag@0@U_Range_checked_iterator_tag@0@@Z 00405c70 f i Common.obj
 0001:00004cc0       ??$_Uninit_fill_n@PAU?$pair@HH@std@@IU12@V?$allocator@U?$pair@HH@std@@@2@@std@@YAXPAU?$pair@HH@0@IABU10@AAV?$allocator@U?$pair@HH@std@@@0@U_Nonscalar_ptr_iterator_tag@0@U_Range_checked_iterator_tag@0@@Z 00405cc0 f i Common.obj
 0001:00004ce0       ??$_Uninit_copy@PAU?$pair@HH@std@@PAU12@V?$allocator@U?$pair@HH@std@@@2@@std@@YAPAU?$pair@HH@0@PAU10@00AAV?$allocator@U?$pair@HH@std@@@0@U_Nonscalar_ptr_iterator_tag@0@U_Range_checked_iterator_tag@0@@Z 00405ce0 f i Common.obj
 0001:00004d00       ??$_Uninit_move@PAV?$basic_string@DU?$char_traits@D@std@@V?$allocator@D@2@@std@@PAV12@V?$allocator@V?$basic_string@DU?$char_traits@D@std@@V?$allocator@D@2@@std@@@2@@std@@YAPAV?$basic_string@DU?$char_traits@D@std@@V?$allocator@D@2@@0@PAV10@00AAV?$allocator@V?$basic_string@DU?$char_traits@D@std@@V?$allocator@D@2@@std@@@0@U_Swap_move_tag@0@U_Range_checked_iterator_tag@0@@Z 00405d00 f i Common.obj
 0001:00004de0       ?resize@MoveArray@MicroSearch@@QAEXABI@Z 00405de0 f i Game.obj
 0001:00004e40       ?validateMoves@MoveArray@MicroSearch@@QAE_NXZ 00405e40 f i Game.obj
 0001:00004f20       ??0Game@MicroSearch@@QAE@ABVGameState@1@AAV?$shared_ptr@VPlayer@MicroSearch@@@boost@@1ABI@Z 00405f20 f   Game.obj
 0001:000050d0       ?play@Game@MicroSearch@@QAEX_N@Z 004060d0 f   Game.obj
 0001:000055d0       ?makeMoves@Game@MicroSearch@@QAEXAB_KAAVMoveArray@2@@Z 004065d0 f   Game.obj
 0001:00005630       ?resize@?$Array2D@VMove@MicroSearch@@$07$0N@@@QAEXABI0@Z 00406630 f i Game.obj
 0001:00005700       ??0?$vector@VMove@MicroSearch@@V?$allocator@VMove@MicroSearch@@@std@@@std@@QAE@I@Z 00406700 f i Game.obj
 0001:00005780       ??4?$vector@VMove@MicroSearch@@V?$allocator@VMove@MicroSearch@@@std@@@std@@QAEAAV01@ABV01@@Z 00406780 f i Game.obj
 0001:00005880       ?clear@?$vector@VMove@MicroSearch@@V?$allocator@VMove@MicroSearch@@@std@@@std@@QAEXXZ 00406880 f i Game.obj
 0001:000058c0       ?resize@?$Array@I$07@@QAEXABI@Z 004068c0 f i Game.obj
 0001:00005950       ??4?$vector@PAVUnit@MicroSearch@@V?$allocator@PAVUnit@MicroSearch@@@std@@@std@@QAEAAV01@ABV01@@Z 00406950 f i GameState.obj
 0001:00005950       ??4?$vector@IV?$allocator@I@std@@@std@@QAEAAV01@ABV01@@Z 00406950 f i Game.obj
 0001:00005a50       ?resize@?$Array@_K$07@@QAEXABI@Z 00406a50 f i Game.obj
 0001:00005ae0       ??4?$vector@_KV?$allocator@_K@std@@@std@@QAEAAV01@ABV01@@Z 00406ae0 f i Game.obj
 0001:00005be0       ??0?$shared_ptr@VPlayer@MicroSearch@@@boost@@QAE@XZ 00406be0 f i Game.obj
 0001:00005bf0       ?resize@?$Array@V?$Array@VMove@MicroSearch@@$0N@@@$07@@QAEXABI@Z 00406bf0 f i Game.obj
 0001:00005ca0       ?resize@?$Array@VMove@MicroSearch@@$0N@@@QAEXABI@Z 00406ca0 f i Game.obj
 0001:00005d30       ?_Construct_n@?$vector@VMove@MicroSearch@@V?$allocator@VMove@MicroSearch@@@std@@@std@@QAEXIABVMove@MicroSearch@@@Z 00406d30 f i Game.obj
 0001:00005de0       ?erase@?$vector@VMove@MicroSearch@@V?$allocator@VMove@MicroSearch@@@std@@@std@@QAE?AV?$_Vector_iterator@VMove@MicroSearch@@V?$allocator@VMove@MicroSearch@@@std@@@2@V?$_Vector_const_iterator@VMove@MicroSearch@@V?$allocator@VMove@MicroSearch@@@std@@@2@0@Z 00406de0 f i Game.obj
 0001:00005e70       ??0?$vector@IV?$allocator@I@std@@@std@@QAE@I@Z 00406e70 f i Game.obj
 0001:00005ee0       ??0?$vector@_KV?$allocator@_K@std@@@std@@QAE@I@Z 00406ee0 f i Game.obj
 0001:00005f50       ?clear@?$vector@_KV?$allocator@_K@std@@@std@@QAEXXZ 00406f50 f i Game.obj
 0001:00005f90       ?get@?$Array@V?$Array@VMove@MicroSearch@@$0N@@@$07@@QAEAAV?$Array@VMove@MicroSearch@@$0N@@@ABI@Z 00406f90 f i Game.obj
 0001:00005f90       ?get@?$Array@V?$Array@VMove@MicroSearch@@$0N@@@$07@@QBEABV?$Array@VMove@MicroSearch@@$0N@@@ABI@Z 00406f90 f i AlphaBeta.obj
 0001:00006000       ??0?$vector@V?$Array@VMove@MicroSearch@@$0N@@@V?$allocator@V?$Array@VMove@MicroSearch@@$0N@@@@std@@@std@@QAE@I@Z 00407000 f i Game.obj
 0001:000060a0       ??4?$vector@V?$Array@VMove@MicroSearch@@$0N@@@V?$allocator@V?$Array@VMove@MicroSearch@@$0N@@@@std@@@std@@QAEAAV01@ABV01@@Z 004070a0 f i Game.obj
 0001:00006200       ?_Construct_n@?$vector@IV?$allocator@I@std@@@std@@QAEXIABI@Z 00407200 f i Game.obj
 0001:00006250       ?_Construct_n@?$vector@_KV?$allocator@_K@std@@@std@@QAEXIAB_K@Z 00407250 f i Game.obj
 0001:000062b0       ?erase@?$vector@_KV?$allocator@_K@std@@@std@@QAE?AV?$_Vector_iterator@_KV?$allocator@_K@std@@@2@V?$_Vector_const_iterator@_KV?$allocator@_K@std@@@2@0@Z 004072b0 f i Game.obj
 0001:00006340       ?_Construct_n@?$vector@V?$Array@VMove@MicroSearch@@$0N@@@V?$allocator@V?$Array@VMove@MicroSearch@@$0N@@@@std@@@std@@QAEXIABV?$Array@VMove@MicroSearch@@$0N@@@@Z 00407340 f i Game.obj
 0001:00006400       ?clear@?$vector@V?$Array@VMove@MicroSearch@@$0N@@@V?$allocator@V?$Array@VMove@MicroSearch@@$0N@@@@std@@@std@@QAEXXZ 00407400 f i Game.obj
 0001:00006440       ?erase@?$vector@V?$Array@VMove@MicroSearch@@$0N@@@V?$allocator@V?$Array@VMove@MicroSearch@@$0N@@@@std@@@std@@QAE?AV?$_Vector_iterator@V?$Array@VMove@MicroSearch@@$0N@@@V?$allocator@V?$Array@VMove@MicroSearch@@$0N@@@@std@@@2@V?$_Vector_const_iterator@V?$Array@VMove@MicroSearch@@$0N@@@V?$allocator@V?$Array@VMove@MicroSearch@@$0N@@@@std@@@2@0@Z 00407440 f i Game.obj
 0001:00006520       ??$unchecked_copy@PAVMove@MicroSearch@@PAV12@@stdext@@YAPAVMove@MicroSearch@@PAV12@00@Z 00407520 f i Game.obj
 0001:00006550       ??$unchecked_copy@PA_KPA_K@stdext@@YAPA_KPA_K00@Z 00407550 f i Game.obj
 0001:00006580       ??$_Ucopy@PA_K@?$vector@_KV?$allocator@_K@std@@@std@@IAEPA_KPA_K00@Z 00407580 f i Game.obj
 0001:000065b0       ??$unchecked_copy@PAV?$Array@VMove@MicroSearch@@$0N@@@PAV1@@stdext@@YAPAV?$Array@VMove@MicroSearch@@$0N@@@PAV1@00@Z 004075b0 f i Game.obj
 0001:00006600       ??$_Ucopy@PAV?$Array@VMove@MicroSearch@@$0N@@@@?$vector@V?$Array@VMove@MicroSearch@@$0N@@@V?$allocator@V?$Array@VMove@MicroSearch@@$0N@@@@std@@@std@@IAEPAV?$Array@VMove@MicroSearch@@$0N@@@PAV2@00@Z 00407600 f i Game.obj
 0001:00006630       ??$_Uninit_fill_n@PAVMove@MicroSearch@@IV12@V?$allocator@VMove@MicroSearch@@@std@@@std@@YAXPAVMove@MicroSearch@@IABV12@AAV?$allocator@VMove@MicroSearch@@@0@U_Nonscalar_ptr_iterator_tag@0@U_Range_checked_iterator_tag@0@@Z 00407630 f i Game.obj
 0001:00006650       ??$_Uninit_fill_n@PAV?$Array@VMove@MicroSearch@@$0N@@@IV1@V?$allocator@V?$Array@VMove@MicroSearch@@$0N@@@@std@@@std@@YAXPAV?$Array@VMove@MicroSearch@@$0N@@@IABV1@AAV?$allocator@V?$Array@VMove@MicroSearch@@$0N@@@@0@U_Nonscalar_ptr_iterator_tag@0@U_Range_checked_iterator_tag@0@@Z 00407650 f i Game.obj
 0001:000066e0       ??$_Copy_opt@PAV?$Array@VMove@MicroSearch@@$0N@@@PAV1@Uforward_iterator_tag@std@@@std@@YAPAV?$Array@VMove@MicroSearch@@$0N@@@PAV1@00Uforward_iterator_tag@0@U_Nonscalar_ptr_iterator_tag@0@U_Range_checked_iterator_tag@0@@Z 004076e0 f i Game.obj
 0001:00006730       ??$_Uninit_copy@PAV?$Array@VMove@MicroSearch@@$0N@@@PAV1@V?$allocator@V?$Array@VMove@MicroSearch@@$0N@@@@std@@@std@@YAPAV?$Array@VMove@MicroSearch@@$0N@@@PAV1@00AAV?$allocator@V?$Array@VMove@MicroSearch@@$0N@@@@0@U_Nonscalar_ptr_iterator_tag@0@U_Range_checked_iterator_tag@0@@Z 00407730 f i Game.obj
 0001:000067c0       ??$_Construct@V?$Array@VMove@MicroSearch@@$0N@@@V1@@std@@YAXPAV?$Array@VMove@MicroSearch@@$0N@@@ABV1@@Z 004077c0 f i Game.obj
 0001:00006840       ??0?$vector@VMove@MicroSearch@@V?$allocator@VMove@MicroSearch@@@std@@@std@@QAE@ABV01@@Z 00407840 f i Game.obj
 0001:00006930       ??$_Uninit_copy@PBVMove@MicroSearch@@PAV12@V?$allocator@VMove@MicroSearch@@@std@@@std@@YAPAVMove@MicroSearch@@PBV12@0PAV12@AAV?$allocator@VMove@MicroSearch@@@0@U_Nonscalar_ptr_iterator_tag@0@U_Range_checked_iterator_tag@0@@Z 00407930 f i Game.obj
 0001:00006930       ??$_Uninit_copy@PAVMove@MicroSearch@@PAV12@V?$allocator@VMove@MicroSearch@@@std@@@std@@YAPAVMove@MicroSearch@@PAV12@00AAV?$allocator@VMove@MicroSearch@@@0@U_Nonscalar_ptr_iterator_tag@0@U_Range_checked_iterator_tag@0@@Z 00407930 f i Game.obj
 0001:00006950       ?moveString@Move@MicroSearch@@QBE?BV?$basic_string@DU?$char_traits@D@std@@V?$allocator@D@2@@std@@XZ 00407950 f i GameState.obj
 0001:000069e0       ??0Unit@MicroSearch@@QAE@VUnitType@BWAPI@@ABE1ABVPosition@1@@Z 004079e0 f i GameState.obj
 0001:00006a70       ??MUnit@MicroSearch@@QBE?B_NABV01@@Z 00407a70 f i GameState.obj
 0001:00006b00       ?canAttackTarget@Unit@MicroSearch@@QBE?B_NABV12@ABH@Z 00407b00 f i GameState.obj
 0001:00006bd0       ?canHealTarget@Unit@MicroSearch@@QBE?B_NABV12@ABH@Z 00407bd0 f i GameState.obj
 0001:00006c60       ?takeAttack@Unit@MicroSearch@@QAEXABV12@@Z 00407c60 f i GameState.obj
 0001:00006d00       ?takeHeal@Unit@MicroSearch@@QAEXABV12@@Z 00407d00 f i GameState.obj
 0001:00006d70       ?attack@Unit@MicroSearch@@QAEXABVMove@2@ABV12@ABH@Z 00407d70 f i GameState.obj
 0001:00006e10       ?heal@Unit@MicroSearch@@QAEXABVMove@2@ABV12@ABH@Z 00407e10 f i GameState.obj
 0001:00006e50       ?move@Unit@MicroSearch@@QAEXABVMove@2@ABH@Z 00407e50 f i GameState.obj
 0001:00006f30       ?moveUntilAttack@Unit@MicroSearch@@QAEXABVPosition@2@ABH@Z 00407f30 f i GameState.obj
 0001:00006f80       ?currentPosition@Unit@MicroSearch@@QBE?BVPosition@2@ABH@Z 00407f80 f i GameState.obj
 0001:00007030       ?calculateHash@Unit@MicroSearch@@QBE?BIABIABH@Z 00408030 f i GameState.obj
 0001:000071b0       ?dpf@Unit@MicroSearch@@QBE?BMXZ 004081b0 f i GameState.obj
 0001:00007250       ?distSq@Unit@MicroSearch@@QBE?BHABV12@ABH@Z 00408250 f i GameState.obj
 0001:000072a0       ?add@MoveArray@MicroSearch@@QAEXABVMove@2@@Z 004082a0 f i GameState.obj
 0001:00007340       ?calculateNumMoveTuples@MoveArray@MicroSearch@@QAEXXZ 00408340 f i GameState.obj
 0001:00007540       ??0GameState@MicroSearch@@QAE@XZ 00408540 f   GameState.obj
 0001:00007a20       ??0GameState@MicroSearch@@QAE@ABV01@@Z 00408a20 f   GameState.obj
 0001:00008070       ??4GameState@MicroSearch@@QAEAAV01@ABV01@@Z 00409070 f   GameState.obj
 0001:00008570       ?getIndexOfUnitPtr@GameState@MicroSearch@@QBE?BIABI0@Z 00409570 f   GameState.obj
 0001:00008610       ?calculateHash@GameState@MicroSearch@@QBE?BIABI@Z 00409610 f   GameState.obj
 0001:000087c0       ?generateMoves@GameState@MicroSearch@@QBEXAAVMoveArray@2@ABE@Z 004097c0 f   GameState.obj
 0001:00008fa0       ?makeMove@GameState@MicroSearch@@QAEXABVMove@2@AAV12@@Z 00409fa0 f   GameState.obj
 0001:00009180       ?getClosestOurUnit@GameState@MicroSearch@@QAEABVUnit@2@ABE0@Z 0040a180 f   GameState.obj
 0001:00009450       ?getClosestEnemyUnit@GameState@MicroSearch@@QAEABVUnit@2@ABE0@Z 0040a450 f   GameState.obj
 0001:000096f0       ?addUnitSymmetric@GameState@MicroSearch@@QAEXABIVUnitType@BWAPI@@ABEABVPosition@2@@Z 0040a6f0 f   GameState.obj
 0001:00009e70       ?sortUnits@GameState@MicroSearch@@QAEXXZ 0040ae70 f   GameState.obj
 0001:0000a1a0       ?getUnit@GameState@MicroSearch@@QAEAAVUnit@2@ABE0@Z 0040b1a0 f   GameState.obj
 0001:0000a1e0       ?playerDead@GameState@MicroSearch@@QBE?B_NABE@Z 0040b1e0 f   GameState.obj
 0001:0000a360       ?whoCanMove@GameState@MicroSearch@@QBE?BEXZ 0040b360 f   GameState.obj
 0001:0000a3f0       ?updateGameTime@GameState@MicroSearch@@QAEXXZ 0040b3f0 f   GameState.obj
 0001:0000a460       ?eval@GameState@MicroSearch@@QBE?BVAlphaBetaScore@2@ABE0E@Z 0040b460 f   GameState.obj
 0001:0000a580       ?evalSumDPS@GameState@MicroSearch@@QBE?BHABE@Z 0040b580 f   GameState.obj
 0001:0000a5c0       ?evalSim@GameState@MicroSearch@@QBE?BVAlphaBetaScore@2@ABE0@Z 0040b5c0 f   GameState.obj
 0001:0000a7b0       ??1Game@MicroSearch@@QAE@XZ 0040b7b0 f i GameState.obj
 0001:0000a850       ?calculateStartingHealth@GameState@MicroSearch@@QAEXXZ 0040b850 f   GameState.obj
 0001:0000ad30       ?sumDPS@GameState@MicroSearch@@QBE?BHABE@Z 0040bd30 f   GameState.obj
 0001:0000aef0       ?sumHP@GameState@MicroSearch@@QBE?BHABE@Z 0040bef0 f   GameState.obj
 0001:0000b090       ?numUnits@GameState@MicroSearch@@QBE?BIABE@Z 0040c090 f   GameState.obj
 0001:0000b100       ?bothCanMove@GameState@MicroSearch@@QBE?B_NXZ 0040c100 f   GameState.obj
 0001:0000b180       ?isDeadlock@GameState@MicroSearch@@QBE?B_NXZ 0040c180 f   GameState.obj
 0001:0000b640       ??A?$Array@VMove@MicroSearch@@$0N@@@QAEAAVMove@MicroSearch@@ABI@Z 0040c640 f i GameState.obj
 0001:0000b6a0       ??A?$Array@_K$07@@QAEAA_KABI@Z 0040c6a0 f i GameState.obj
 0001:0000b700       ??A?$vector@_NV?$allocator@_N@std@@@std@@QBE_NI@Z 0040c700 f i GameState.obj
 0001:0000b790       ??4?$Array2D@VUnit@MicroSearch@@$01$07@@QAEAAV0@ABV0@@Z 0040c790 f i GameState.obj
 0001:0000b8d0       ??0?$vector@VUnit@MicroSearch@@V?$allocator@VUnit@MicroSearch@@@std@@@std@@QAE@ABV01@@Z 0040c8d0 f i GameState.obj
 0001:0000b9d0       ??4?$vector@VUnit@MicroSearch@@V?$allocator@VUnit@MicroSearch@@@std@@@std@@QAEAAV01@ABV01@@Z 0040c9d0 f i GameState.obj
 0001:0000bb20       ??4?$Array2D@PAVUnit@MicroSearch@@$01$07@@QAEAAV0@ABV0@@Z 0040cb20 f i GameState.obj
 0001:0000bbc0       ??A?$Array@PAVUnit@MicroSearch@@$07@@QAEAAPAVUnit@MicroSearch@@ABI@Z 0040cbc0 f i GameState.obj
 0001:0000bbc0       ??A?$Array@I$07@@QAEAAIABI@Z 0040cbc0 f i GameState.obj
 0001:0000bc20       ??A?$Array@PAVUnit@MicroSearch@@$07@@QBEABQAVUnit@MicroSearch@@ABI@Z 0040cc20 f i GameState.obj
 0001:0000bc80       ??0?$Array@VUnit@MicroSearch@@$00@@QAE@XZ 0040cc80 f i GameState.obj
 0001:0000bce0       ??A?$Array@E$01@@QAEAAEABI@Z 0040cce0 f i GameState.obj
 0001:0000bd30       ?fill@?$Array@E$01@@QAEXABE@Z 0040cd30 f i GameState.obj
 0001:0000bd90       ??0?$vector@EV?$allocator@E@std@@@std@@QAE@ABV01@@Z 0040cd90 f i GameState.obj
 0001:0000be60       ??4?$vector@EV?$allocator@E@std@@@std@@QAEAAV01@ABV01@@Z 0040ce60 f i GameState.obj
 0001:0000bf60       ??0?$vector@MV?$allocator@M@std@@@std@@QAE@ABV01@@Z 0040cf60 f i GameState.obj
 0001:0000bf60       ??0?$vector@HV?$allocator@H@std@@@std@@QAE@ABV01@@Z 0040cf60 f i GameState.obj
 0001:0000c040       ??A?$Array@H$01@@QAEAAHABI@Z 0040d040 f i GameState.obj
 0001:0000c0a0       ??A?$Array@H$01@@QBEABHABI@Z 0040d0a0 f i GameState.obj
 0001:0000c100       ?fill@?$Array@H$01@@QAEXABH@Z 0040d100 f i GameState.obj
 0001:0000c180       ??4?$vector@MV?$allocator@M@std@@@std@@QAEAAV01@ABV01@@Z 0040d180 f i GameState.obj
 0001:0000c180       ??4?$vector@HV?$allocator@H@std@@@std@@QAEAAV01@ABV01@@Z 0040d180 f i GameState.obj
 0001:0000c280       ??4?$Array@VUnit@MicroSearch@@$07@@QAEAAV0@ABV0@@Z 0040d280 f i GameState.obj
 0001:0000c330       ??0?$Array@VUnit@MicroSearch@@$07@@QAE@ABV0@@Z 0040d330 f i GameState.obj
 0001:0000c370       ??0?$Array@PAVUnit@MicroSearch@@$07@@QAE@ABV0@@Z 0040d370 f i GameState.obj
 0001:0000c3b0       ?_Getptr@?$_Vb_reference@IHV?$vector@_NV?$allocator@_N@std@@@std@@@std@@QBEPAIXZ 0040d3b0 f i GameState.obj
 0001:0000c410       ??0?$Array@V?$Array@VUnit@MicroSearch@@$07@@$01@@QAE@XZ 0040d410 f i GameState.obj
 0001:0000c490       ?get@?$Array@VUnit@MicroSearch@@$07@@QBEABVUnit@MicroSearch@@ABI@Z 0040d490 f i GameState.obj
 0001:0000c500       ?clear@?$vector@VUnit@MicroSearch@@V?$allocator@VUnit@MicroSearch@@@std@@@std@@QAEXXZ 0040d500 f i GameState.obj
 0001:0000c540       ?_Buy@?$vector@VUnit@MicroSearch@@V?$allocator@VUnit@MicroSearch@@@std@@@std@@IAE_NI@Z 0040d540 f i GameState.obj
 0001:0000c570       ??0?$vector@V?$Array@VUnit@MicroSearch@@$07@@V?$allocator@V?$Array@VUnit@MicroSearch@@$07@@@std@@@std@@QAE@ABV01@@Z 0040d570 f i GameState.obj
 0001:0000c680       ??0?$Array@V?$Array@PAVUnit@MicroSearch@@$07@@$01@@QAE@XZ 0040d680 f i GameState.obj
 0001:0000c700       ??A?$Array@V?$Array@PAVUnit@MicroSearch@@$07@@$01@@QAEAAV?$Array@PAVUnit@MicroSearch@@$07@@ABI@Z 0040d700 f i GameState.obj
 0001:0000c770       ??A?$Array@V?$Array@PAVUnit@MicroSearch@@$07@@$01@@QBEABV?$Array@PAVUnit@MicroSearch@@$07@@ABI@Z 0040d770 f i GameState.obj
 0001:0000c7e0       ??0?$vector@PAVUnit@MicroSearch@@V?$allocator@PAVUnit@MicroSearch@@@std@@@std@@QAE@ABV01@@Z 0040d7e0 f i GameState.obj
 0001:0000c8b0       ??0?$vector@V?$Array@PAVUnit@MicroSearch@@$07@@V?$allocator@V?$Array@PAVUnit@MicroSearch@@$07@@@std@@@std@@QAE@ABV01@@Z 0040d8b0 f i GameState.obj
 0001:0000c9a0       ?clear@?$vector@EV?$allocator@E@std@@@std@@QAEXXZ 0040d9a0 f i GameState.obj
 0001:0000c9e0       ?_Buy@?$vector@EV?$allocator@E@std@@@std@@IAE_NI@Z 0040d9e0 f i GameState.obj
 0001:0000ca10       ?_Buy@?$vector@HV?$allocator@H@std@@@std@@IAE_NI@Z 0040da10 f i GameState.obj
 0001:0000ca10       ?_Buy@?$vector@MV?$allocator@M@std@@@std@@IAE_NI@Z 0040da10 f i GameState.obj
 0001:0000ca40       ?clear@?$vector@IV?$allocator@I@std@@@std@@QAEXXZ 0040da40 f i Game.obj
 0001:0000ca40       ?clear@?$vector@MV?$allocator@M@std@@@std@@QAEXXZ 0040da40 f i GameState.obj
 0001:0000ca40       ?clear@?$vector@HV?$allocator@H@std@@@std@@QAEXXZ 0040da40 f i GameState.obj
 0001:0000ca40       ?clear@?$vector@PAVUnit@MicroSearch@@V?$allocator@PAVUnit@MicroSearch@@@std@@@std@@QAEXXZ 0040da40 f i GameState.obj
 0001:0000ca80       ?get@?$Array@V?$Array@VUnit@MicroSearch@@$07@@$01@@QBEABV?$Array@VUnit@MicroSearch@@$07@@ABI@Z 0040da80 f i GameState.obj
 0001:0000caf0       ??0?$Array@VUnit@MicroSearch@@$07@@QAE@XZ 0040daf0 f i GameState.obj
 0001:0000cdb0       ?erase@?$vector@VUnit@MicroSearch@@V?$allocator@VUnit@MicroSearch@@@std@@@std@@QAE?AV?$_Vector_iterator@VUnit@MicroSearch@@V?$allocator@VUnit@MicroSearch@@@std@@@2@V?$_Vector_const_iterator@VUnit@MicroSearch@@V?$allocator@VUnit@MicroSearch@@@std@@@2@0@Z 0040ddb0 f i GameState.obj
 0001:0000ce20       ?allocate@?$allocator@VUnit@MicroSearch@@@std@@QAEPAVUnit@MicroSearch@@I@Z 0040de20 f i GameState.obj
 0001:0000ce80       ??0?$Array@PAVUnit@MicroSearch@@$07@@QAE@XZ 0040de80 f i GameState.obj
 0001:0000cea0       ?_Buy@?$vector@PAVUnit@MicroSearch@@V?$allocator@PAVUnit@MicroSearch@@@std@@@std@@IAE_NI@Z 0040dea0 f i GameState.obj
 0001:0000cea0       ?_Buy@?$vector@IV?$allocator@I@std@@@std@@IAE_NI@Z 0040dea0 f i AlphaBeta.obj
 0001:0000cea0       ?_Buy@?$vector@VMove@MicroSearch@@V?$allocator@VMove@MicroSearch@@@std@@@std@@IAE_NI@Z 0040dea0 f i AlphaBeta.obj
 0001:0000ced0       ?erase@?$vector@EV?$allocator@E@std@@@std@@QAE?AV?$_Vector_iterator@EV?$allocator@E@std@@@2@V?$_Vector_const_iterator@EV?$allocator@E@std@@@2@0@Z 0040ded0 f i GameState.obj
 0001:0000cf50       ?allocate@?$allocator@E@std@@QAEPAEI@Z 0040df50 f i GameState.obj
 0001:0000cfa0       ?erase@?$vector@PAVUnit@MicroSearch@@V?$allocator@PAVUnit@MicroSearch@@@std@@@std@@QAE?AV?$_Vector_iterator@PAVUnit@MicroSearch@@V?$allocator@PAVUnit@MicroSearch@@@std@@@2@V?$_Vector_const_iterator@PAVUnit@MicroSearch@@V?$allocator@PAVUnit@MicroSearch@@@std@@@2@0@Z 0040dfa0 f i GameState.obj
 0001:0000cfa0       ?erase@?$vector@IV?$allocator@I@std@@@std@@QAE?AV?$_Vector_iterator@IV?$allocator@I@std@@@2@V?$_Vector_const_iterator@IV?$allocator@I@std@@@2@0@Z 0040dfa0 f i Game.obj
 0001:0000cfa0       ?erase@?$vector@HV?$allocator@H@std@@@std@@QAE?AV?$_Vector_iterator@HV?$allocator@H@std@@@2@V?$_Vector_const_iterator@HV?$allocator@H@std@@@2@0@Z 0040dfa0 f i GameState.obj
 0001:0000cfa0       ?erase@?$vector@MV?$allocator@M@std@@@std@@QAE?AV?$_Vector_iterator@MV?$allocator@M@std@@@2@V?$_Vector_const_iterator@MV?$allocator@M@std@@@2@0@Z 0040dfa0 f i GameState.obj
 0001:0000d030       ?_Xlen@?$vector@MV?$allocator@M@std@@@std@@KAXXZ 0040e030 f i GameState.obj
 0001:0000d030       ?_Xlen@?$vector@HV?$allocator@H@std@@@std@@KAXXZ 0040e030 f i GameState.obj
 0001:0000d030       ?_Xlen@?$vector@VGameState@MicroSearch@@V?$allocator@VGameState@MicroSearch@@@std@@@std@@KAXXZ 0040e030 f i test.obj
 0001:0000d030       ?_Xlen@?$vector@V?$Array@PAVUnit@MicroSearch@@$07@@V?$allocator@V?$Array@PAVUnit@MicroSearch@@$07@@@std@@@std@@KAXXZ 0040e030 f i GameState.obj
 0001:0000d030       ?_Xlen@?$vector@V?$vector@_NV?$allocator@_N@std@@@std@@V?$allocator@V?$vector@_NV?$allocator@_N@std@@@std@@@2@@std@@KAXXZ 0040e030 f i test.obj
 0001:0000d030       ?_Xlen@?$vector@V?$Array@VUnit@MicroSearch@@$07@@V?$allocator@V?$Array@VUnit@MicroSearch@@$07@@@std@@@std@@KAXXZ 0040e030 f i GameState.obj
 0001:0000d030       ?_Xlen@?$vector@EV?$allocator@E@std@@@std@@KAXXZ 0040e030 f i GameState.obj
 0001:0000d030       ?_Xlen@?$vector@V?$shared_ptr@VPlayer@MicroSearch@@@boost@@V?$allocator@V?$shared_ptr@VPlayer@MicroSearch@@@boost@@@std@@@std@@KAXXZ 0040e030 f i AlphaBeta.obj
 0001:0000d090       ??Y?$_Vb_const_iterator@IHV?$vector@_NV?$allocator@_N@std@@@std@@@std@@QAEAAV01@H@Z 0040e090 f i GameState.obj
 0001:0000d180       ?allocate@?$allocator@V?$Array@VUnit@MicroSearch@@$07@@@std@@QAEPAV?$Array@VUnit@MicroSearch@@$07@@I@Z 0040e180 f i GameState.obj
 0001:0000d1e0       ??0?$vector@V?$Array@_K$09@@V?$allocator@V?$Array@_K$09@@@std@@@std@@QAE@XZ 0040e1e0 f i AlphaBeta.obj
 0001:0000d1e0       ??0?$vector@V?$Array@VUnit@MicroSearch@@$07@@V?$allocator@V?$Array@VUnit@MicroSearch@@$07@@@std@@@std@@QAE@XZ 0040e1e0 f i GameState.obj
 0001:0000d1e0       ??0?$vector@V?$Array@VMove@MicroSearch@@$0N@@@V?$allocator@V?$Array@VMove@MicroSearch@@$0N@@@@std@@@std@@QAE@XZ 0040e1e0 f i AlphaBeta.obj
 0001:0000d1e0       ??0?$vector@V?$shared_ptr@VPlayer@MicroSearch@@@boost@@V?$allocator@V?$shared_ptr@VPlayer@MicroSearch@@@boost@@@std@@@std@@QAE@XZ 0040e1e0 f i AlphaBeta.obj
 0001:0000d1e0       ??0?$vector@VUnit@MicroSearch@@V?$allocator@VUnit@MicroSearch@@@std@@@std@@QAE@XZ 0040e1e0 f i GameState.obj
 0001:0000d1e0       ??0?$vector@PAVUnit@MicroSearch@@V?$allocator@PAVUnit@MicroSearch@@@std@@@std@@QAE@XZ 0040e1e0 f i GameState.obj
 0001:0000d1e0       ??0?$vector@VMoveArray@MicroSearch@@V?$allocator@VMoveArray@MicroSearch@@@std@@@std@@QAE@XZ 0040e1e0 f i AlphaBeta.obj
 0001:0000d1e0       ??0?$vector@V?$vector@_NV?$allocator@_N@std@@@std@@V?$allocator@V?$vector@_NV?$allocator@_N@std@@@std@@@2@@std@@QAE@XZ 0040e1e0 f i test.obj
 0001:0000d1e0       ??0?$vector@_KV?$allocator@_K@std@@@std@@QAE@XZ 0040e1e0 f i AlphaBeta.obj
 0001:0000d1e0       ??0?$vector@HV?$allocator@H@std@@@std@@QAE@XZ 0040e1e0 f i GameState.obj
 0001:0000d1e0       ??0?$vector@MV?$allocator@M@std@@@std@@QAE@XZ 0040e1e0 f i GameState.obj
 0001:0000d1e0       ??0?$vector@VGameState@MicroSearch@@V?$allocator@VGameState@MicroSearch@@@std@@@std@@QAE@XZ 0040e1e0 f i test.obj
 0001:0000d1e0       ??0?$vector@V?$Array@PAVUnit@MicroSearch@@$07@@V?$allocator@V?$Array@PAVUnit@MicroSearch@@$07@@@std@@@std@@QAE@XZ 0040e1e0 f i GameState.obj
 0001:0000d1e0       ??0?$vector@EV?$allocator@E@std@@@std@@QAE@XZ 0040e1e0 f i GameState.obj
 0001:0000d1e0       ??0?$vector@IV?$allocator@I@std@@@std@@QAE@XZ 0040e1e0 f i AlphaBeta.obj
 0001:0000d240       ?allocate@?$allocator@VMove@MicroSearch@@@std@@QAEPAVMove@MicroSearch@@I@Z 0040e240 f i AlphaBeta.obj
 0001:0000d240       ?allocate@?$allocator@I@std@@QAEPAII@Z 0040e240 f i AlphaBeta.obj
 0001:0000d240       ?allocate@?$allocator@M@std@@QAEPAMI@Z 0040e240 f i GameState.obj
 0001:0000d240       ?allocate@?$allocator@H@std@@QAEPAHI@Z 0040e240 f i GameState.obj
 0001:0000d240       ?allocate@?$allocator@PAVUnit@MicroSearch@@@std@@QAEPAPAVUnit@MicroSearch@@I@Z 0040e240 f i GameState.obj
 0001:0000d2a0       ?allocate@?$allocator@V?$Array@PAVUnit@MicroSearch@@$07@@@std@@QAEPAV?$Array@PAVUnit@MicroSearch@@$07@@I@Z 0040e2a0 f i GameState.obj
 0001:0000d300       ??$?0VPlayer@MicroSearch@@@?$shared_ptr@VPlayer@MicroSearch@@@boost@@QAE@PAVPlayer@MicroSearch@@@Z 0040e300 f i GameState.obj
 0001:0000d360       ??$_Ucopy@V?$_Vector_const_iterator@VUnit@MicroSearch@@V?$allocator@VUnit@MicroSearch@@@std@@@std@@@?$vector@VUnit@MicroSearch@@V?$allocator@VUnit@MicroSearch@@@std@@@std@@IAEPAVUnit@MicroSearch@@V?$_Vector_const_iterator@VUnit@MicroSearch@@V?$allocator@VUnit@MicroSearch@@@std@@@1@0PAV23@@Z 0040e360 f i GameState.obj
 0001:0000d390       ??$unchecked_copy@PAVUnit@MicroSearch@@PAV12@@stdext@@YAPAVUnit@MicroSearch@@PAV12@00@Z 0040e390 f i GameState.obj
 0001:0000d3e0       ??$_Ucopy@PAVUnit@MicroSearch@@@?$vector@VUnit@MicroSearch@@V?$allocator@VUnit@MicroSearch@@@std@@@std@@IAEPAVUnit@MicroSearch@@PAV23@00@Z 0040e3e0 f i GameState.obj
 0001:0000d400       ??$_Ucopy@PAE@?$vector@EV?$allocator@E@std@@@std@@IAEPAEPAE00@Z 0040e400 f i GameState.obj
 0001:0000d420       ??$_Ucopy@PAH@?$vector@HV?$allocator@H@std@@@std@@IAEPAHPAH00@Z 0040e420 f i GameState.obj
 0001:0000d420       ??$_Ucopy@PAI@?$vector@IV?$allocator@I@std@@@std@@IAEPAIPAI00@Z 0040e420 f i Game.obj
 0001:0000d420       ??$_Ucopy@PAPAVUnit@MicroSearch@@@?$vector@PAVUnit@MicroSearch@@V?$allocator@PAVUnit@MicroSearch@@@std@@@std@@IAEPAPAVUnit@MicroSearch@@PAPAV23@00@Z 0040e420 f i GameState.obj
 0001:0000d420       ??$_Ucopy@PAM@?$vector@MV?$allocator@M@std@@@std@@IAEPAMPAM00@Z 0040e420 f i GameState.obj
 0001:0000d450       ??$_Ucopy@V?$_Vector_const_iterator@PAVUnit@MicroSearch@@V?$allocator@PAVUnit@MicroSearch@@@std@@@std@@@?$vector@PAVUnit@MicroSearch@@V?$allocator@PAVUnit@MicroSearch@@@std@@@std@@IAEPAPAVUnit@MicroSearch@@V?$_Vector_const_iterator@PAVUnit@MicroSearch@@V?$allocator@PAVUnit@MicroSearch@@@std@@@1@0PAPAV23@@Z 0040e450 f i GameState.obj
 0001:0000d490       ??$unchecked_copy@PAIPAI@stdext@@YAPAIPAI00@Z 0040e490 f i Game.obj
 0001:0000d490       ??$unchecked_copy@PAMPAM@stdext@@YAPAMPAM00@Z 0040e490 f i GameState.obj
 0001:0000d490       ??$unchecked_copy@PAHPAH@stdext@@YAPAHPAH00@Z 0040e490 f i GameState.obj
 0001:0000d490       ??$unchecked_copy@PAPAVUnit@MicroSearch@@PAPAV12@@stdext@@YAPAPAVUnit@MicroSearch@@PAPAV12@00@Z 0040e490 f i GameState.obj
 0001:0000d4c0       ??$_Sort@PAPAVUnit@MicroSearch@@HVUnitPtrCompare@2@@std@@YAXPAPAVUnit@MicroSearch@@0HVUnitPtrCompare@2@@Z 0040e4c0 f i GameState.obj
 0001:0000d5b0       ??$sp_pointer_construct@VPlayer@MicroSearch@@V12@@detail@boost@@YAXPAV?$shared_ptr@VPlayer@MicroSearch@@@1@PAVPlayer@MicroSearch@@AAVshared_count@01@@Z 0040e5b0 f i GameState.obj
 0001:0000d610       ??$_Unguarded_partition@PAPAVUnit@MicroSearch@@VUnitPtrCompare@2@@std@@YA?AU?$pair@PAPAVUnit@MicroSearch@@PAPAV12@@0@PAPAVUnit@MicroSearch@@0VUnitPtrCompare@3@@Z 0040e610 f i GameState.obj
 0001:0000d800       ??$?0VPlayer@MicroSearch@@@shared_count@detail@boost@@QAE@PAVPlayer@MicroSearch@@@Z 0040e800 f i GameState.obj
 0001:0000d890       ??$_Uninit_copy@PAVUnit@MicroSearch@@PAV12@V?$allocator@VUnit@MicroSearch@@@std@@@std@@YAPAVUnit@MicroSearch@@PAV12@00AAV?$allocator@VUnit@MicroSearch@@@0@U_Nonscalar_ptr_iterator_tag@0@U_Range_checked_iterator_tag@0@@Z 0040e890 f i GameState.obj
 0001:0000d890       ??$_Uninit_copy@PBVUnit@MicroSearch@@PAV12@V?$allocator@VUnit@MicroSearch@@@std@@@std@@YAPAVUnit@MicroSearch@@PBV12@0PAV12@AAV?$allocator@VUnit@MicroSearch@@@0@U_Nonscalar_ptr_iterator_tag@0@U_Range_checked_iterator_tag@0@@Z 0040e890 f i GameState.obj
 0001:0000d8c0       ??$_Uninit_copy@PBV?$Array@VUnit@MicroSearch@@$07@@PAV1@V?$allocator@V?$Array@VUnit@MicroSearch@@$07@@@std@@@std@@YAPAV?$Array@VUnit@MicroSearch@@$07@@PBV1@0PAV1@AAV?$allocator@V?$Array@VUnit@MicroSearch@@$07@@@0@U_Nonscalar_ptr_iterator_tag@0@U_Range_checked_iterator_tag@0@@Z 0040e8c0 f i GameState.obj
 0001:0000d960       ??$_Uninit_copy@PBV?$Array@PAVUnit@MicroSearch@@$07@@PAV1@V?$allocator@V?$Array@PAVUnit@MicroSearch@@$07@@@std@@@std@@YAPAV?$Array@PAVUnit@MicroSearch@@$07@@PBV1@0PAV1@AAV?$allocator@V?$Array@PAVUnit@MicroSearch@@$07@@@0@U_Nonscalar_ptr_iterator_tag@0@U_Range_checked_iterator_tag@0@@Z 0040e960 f i GameState.obj
 0001:0000d9f0       ??$_Median@PAPAVUnit@MicroSearch@@VUnitPtrCompare@2@@std@@YAXPAPAVUnit@MicroSearch@@00VUnitPtrCompare@2@@Z 0040e9f0 f i GameState.obj
 0001:0000daa0       ??$_Make_heap@PAPAVUnit@MicroSearch@@HPAV12@VUnitPtrCompare@2@@std@@YAXPAPAVUnit@MicroSearch@@0VUnitPtrCompare@2@PAH0@Z 0040eaa0 f i GameState.obj
 0001:0000dae0       ??$_Sort_heap@PAPAVUnit@MicroSearch@@VUnitPtrCompare@2@@std@@YAXPAPAVUnit@MicroSearch@@0VUnitPtrCompare@2@@Z 0040eae0 f i GameState.obj
 0001:0000db30       ??$_Insertion_sort1@PAPAVUnit@MicroSearch@@VUnitPtrCompare@2@PAV12@@std@@YAXPAPAVUnit@MicroSearch@@0VUnitPtrCompare@2@0@Z 0040eb30 f i GameState.obj
 0001:0000dbf0       ??$_Construct@V?$Array@VUnit@MicroSearch@@$07@@V1@@std@@YAXPAV?$Array@VUnit@MicroSearch@@$07@@ABV1@@Z 0040ebf0 f i GameState.obj
 0001:0000dc70       ??$_Construct@V?$Array@PAVUnit@MicroSearch@@$07@@V1@@std@@YAXPAV?$Array@PAVUnit@MicroSearch@@$07@@ABV1@@Z 0040ec70 f i GameState.obj
 0001:0000dcf0       ??$_Med3@PAPAVUnit@MicroSearch@@VUnitPtrCompare@2@@std@@YAXPAPAVUnit@MicroSearch@@00VUnitPtrCompare@2@@Z 0040ecf0 f i GameState.obj
 0001:0000dd50       ??$_Adjust_heap@PAPAVUnit@MicroSearch@@HPAV12@VUnitPtrCompare@2@@std@@YAXPAPAVUnit@MicroSearch@@HHPAV12@VUnitPtrCompare@2@@Z 0040ed50 f i GameState.obj
 0001:0000ddc0       ??$_Push_heap@PAPAVUnit@MicroSearch@@HPAV12@VUnitPtrCompare@2@@std@@YAXPAPAVUnit@MicroSearch@@HHPAV12@VUnitPtrCompare@2@@Z 0040edc0 f i GameState.obj
 0001:0000de30       ??0HashValues@Hash@MicroSearch@@QAE@H@Z 0040ee30 f   Hash.obj
 0001:0000df50       ?seed@?$mersenne_twister_engine@I$0CA@$0CHA@$0BIN@$0BP@$0JJAILANP@$0L@$0PPPPPPPP@$06$0JNCMFGIA@$0P@$0OPMGAAAA@$0BC@$0GMAHIJGF@@random@boost@@QAEXABI@Z 0040ef50 f i Hash.obj
 0001:0000dfe0       ??$generate_uniform_int@V?$mersenne_twister_engine@I$0CA@$0CHA@$0BIN@$0BP@$0JJAILANP@$0L@$0PPPPPPPP@$06$0JNCMFGIA@$0P@$0OPMGAAAA@$0BC@$0GMAHIJGF@@random@boost@@H@detail@random@boost@@YAHAAV?$mersenne_twister_engine@I$0CA@$0CHA@$0BIN@$0BP@$0JJAILANP@$0L@$0PPPPPPPP@$06$0JNCMFGIA@$0P@$0OPMGAAAA@$0BC@$0GMAHIJGF@@12@HHU?$bool_@$00@mpl@2@@Z 0040efe0 f i Hash.obj
 0001:0000e110       ??R?$mersenne_twister_engine@I$0CA@$0CHA@$0BIN@$0BP@$0JJAILANP@$0L@$0PPPPPPPP@$06$0JNCMFGIA@$0P@$0OPMGAAAA@$0BC@$0GMAHIJGF@@random@boost@@QAEIXZ 0040f110 f i Hash.obj
 0001:0000e160       ??$generate_uniform_int@V?$mersenne_twister_engine@I$0CA@$0CHA@$0BIN@$0BP@$0JJAILANP@$0L@$0PPPPPPPP@$06$0JNCMFGIA@$0P@$0OPMGAAAA@$0BC@$0GMAHIJGF@@random@boost@@I@detail@random@boost@@YAIAAV?$mersenne_twister_engine@I$0CA@$0CHA@$0BIN@$0BP@$0JJAILANP@$0L@$0PPPPPPPP@$06$0JNCMFGIA@$0P@$0OPMGAAAA@$0BC@$0GMAHIJGF@@12@IIU?$bool_@$00@mpl@2@@Z 0040f160 f i Hash.obj
 0001:0000e270       ?twist@?$mersenne_twister_engine@I$0CA@$0CHA@$0BIN@$0BP@$0JJAILANP@$0L@$0PPPPPPPP@$06$0JNCMFGIA@$0P@$0OPMGAAAA@$0BC@$0GMAHIJGF@@random@boost@@AAEXXZ 0040f270 f i Hash.obj
 0001:0000e5a0       ??0MicroSearchParameters@MicroSearch@@QAE@XZ 0040f5a0 f   MicroSearchParameters.obj
 0001:0000e670       ?setPlayerModel@MicroSearchParameters@MicroSearch@@QAEXABE0AB_N@Z 0040f670 f   MicroSearchParameters.obj
 0001:0000e730       ?getType@Player_AlphaBeta@MicroSearch@@UAEEXZ 0040f730 f i Player.obj
 0001:0000e740       ?getType@Player_AttackClosest@MicroSearch@@UAEEXZ 0040f740 f i Player.obj
 0001:0000e750       ?getType@Player_AttackWeakest@MicroSearch@@UAEEXZ 0040f750 f i Player.obj
 0001:0000e760       ?getType@Player_Kiter@MicroSearch@@UAEEXZ 0040f760 f i Player.obj
 0001:0000e770       ?getType@Player_KiterDPS@MicroSearch@@UAEEXZ 0040f770 f i Player.obj
 0001:0000e780       ?getType@Player_AttackDPS@MicroSearch@@UAEEXZ 0040f780 f i Player.obj
 0001:0000e790       ?getType@Player_NOK_AttackDPS@MicroSearch@@UAEEXZ 0040f790 f i Player.obj
 0001:0000e7a0       ?getType@Player_Random@MicroSearch@@UAEEXZ 0040f7a0 f i Player.obj
 0001:0000e7b0       ?getPlayer@Players@MicroSearch@@YAPAVPlayer@2@ABE0@Z 0040f7b0 f   Player.obj
 0001:0000e880       ??_EPlayer_AlphaBeta@MicroSearch@@UAEPAXI@Z 0040f880 f i  CIL library: CIL module
 0001:0000e880       ??_GPlayer_AlphaBeta@MicroSearch@@UAEPAXI@Z 0040f880 f i Player.obj
 0001:0000e8a0       ??0Player_AlphaBeta@MicroSearch@@QAE@ABEABVMicroSearchParameters@1@V?$shared_ptr@VTranspositionTable@MicroSearch@@@boost@@@Z 0040f8a0 f   Player.obj
 0001:0000e9b0       ??4MicroSearchParameters@MicroSearch@@QAEAAV01@ABV01@@Z 0040f9b0 f i Player.obj
 0001:0000eaa0       ??1Player_AlphaBeta@MicroSearch@@UAE@XZ 0040faa0 f   Player.obj
 0001:0000eb50       ??1AlphaBeta@MicroSearch@@QAE@XZ 0040fb50 f i Player.obj
 0001:0000ec20       ?setTranspositionTable@Player_AlphaBeta@MicroSearch@@QAEXV?$shared_ptr@VTranspositionTable@MicroSearch@@@boost@@@Z 0040fc20 f   Player.obj
 0001:0000ecb0       ?getMoves@Player_AlphaBeta@MicroSearch@@UAEXAAVGameState@2@ABVMoveArray@2@AAV?$vector@VMove@MicroSearch@@V?$allocator@VMove@MicroSearch@@@std@@@std@@@Z 0040fcb0 f   Player.obj
 0001:0000ecc0       ?getMoveTuple@Player_AlphaBeta@MicroSearch@@UAE?B_KAAVGameState@2@ABVMoveArray@2@@Z 0040fcc0 f   Player.obj
 0001:0000ece0       ?getMoveTuple@Player_AttackClosest@MicroSearch@@UAE?B_KAAVGameState@2@ABVMoveArray@2@@Z 0040fce0 f   Player.obj
 0001:0000f310       ?getMoves@Player_AttackClosest@MicroSearch@@UAEXAAVGameState@2@ABVMoveArray@2@AAV?$vector@VMove@MicroSearch@@V?$allocator@VMove@MicroSearch@@@std@@@std@@@Z 00410310 f   Player.obj
 0001:0000f930       ?getMoveTuple@Player_AttackWeakest@MicroSearch@@UAE?B_KAAVGameState@2@ABVMoveArray@2@@Z 00410930 f   Player.obj
 0001:0000fdf0       ?getMoves@Player_AttackWeakest@MicroSearch@@UAEXAAVGameState@2@ABVMoveArray@2@AAV?$vector@VMove@MicroSearch@@V?$allocator@VMove@MicroSearch@@@std@@@std@@@Z 00410df0 f   Player.obj
 0001:000102a0       ?getMoves@Player_AttackDPS@MicroSearch@@UAEXAAVGameState@2@ABVMoveArray@2@AAV?$vector@VMove@MicroSearch@@V?$allocator@VMove@MicroSearch@@@std@@@std@@@Z 004112a0 f   Player.obj
 0001:00010860       ?getMoveTuple@Player_AttackDPS@MicroSearch@@UAE?B_KAAVGameState@2@ABVMoveArray@2@@Z 00411860 f   Player.obj
 0001:00010e40       ?getMoves@Player_NOK_AttackDPS@MicroSearch@@UAEXAAVGameState@2@ABVMoveArray@2@AAV?$vector@VMove@MicroSearch@@V?$allocator@VMove@MicroSearch@@@std@@@std@@@Z 00411e40 f   Player.obj
 0001:00011960       ?getMoveTuple@Player_NOK_AttackDPS@MicroSearch@@UAE?B_KAAVGameState@2@ABVMoveArray@2@@Z 00412960 f   Player.obj
 0001:000124a0       ?getMoves@Player_Kiter@MicroSearch@@UAEXAAVGameState@2@ABVMoveArray@2@AAV?$vector@VMove@MicroSearch@@V?$allocator@VMove@MicroSearch@@@std@@@std@@@Z 004134a0 f   Player.obj
 0001:00012a70       ?getMoveTuple@Player_Kiter@MicroSearch@@UAE?B_KAAVGameState@2@ABVMoveArray@2@@Z 00413a70 f   Player.obj
 0001:00013060       ?getMoves@Player_KiterDPS@MicroSearch@@UAEXAAVGameState@2@ABVMoveArray@2@AAV?$vector@VMove@MicroSearch@@V?$allocator@VMove@MicroSearch@@@std@@@std@@@Z 00414060 f   Player.obj
 0001:00013630       ?getMoveTuple@Player_KiterDPS@MicroSearch@@UAE?B_KAAVGameState@2@ABVMoveArray@2@@Z 00414630 f   Player.obj
 0001:00013c10       ?getMoves@Player_Random@MicroSearch@@UAEXAAVGameState@2@ABVMoveArray@2@AAV?$vector@VMove@MicroSearch@@V?$allocator@VMove@MicroSearch@@@std@@@std@@@Z 00414c10 f   Player.obj
 0001:00013d60       ?getMoveTuple@Player_Random@MicroSearch@@UAE?B_KAAVGameState@2@ABVMoveArray@2@@Z 00414d60 f   Player.obj
 0001:00013d90       ?resize@?$Array@H$07@@QAEXABI@Z 00414d90 f i Player.obj
 0001:00013e20       ?insert@?$vector@VMove@MicroSearch@@V?$allocator@VMove@MicroSearch@@@std@@@std@@QAE?AV?$_Vector_iterator@VMove@MicroSearch@@V?$allocator@VMove@MicroSearch@@@std@@@2@V?$_Vector_const_iterator@VMove@MicroSearch@@V?$allocator@VMove@MicroSearch@@@std@@@2@ABVMove@MicroSearch@@@Z 00414e20 f i Player.obj
 0001:00013ee0       ??0?$vector@HV?$allocator@H@std@@@std@@QAE@I@Z 00414ee0 f i Player.obj
 0001:00013f50       ?_Insert_n@?$vector@VMove@MicroSearch@@V?$allocator@VMove@MicroSearch@@@std@@@std@@IAEXV?$_Vector_const_iterator@VMove@MicroSearch@@V?$allocator@VMove@MicroSearch@@@std@@@2@IABVMove@MicroSearch@@@Z 00414f50 f i Player.obj
 0001:00014190       ?_Construct_n@?$vector@HV?$allocator@H@std@@@std@@QAEXIABH@Z 00415190 f i Player.obj
 0001:000141e0       ??$_Umove@PAVMove@MicroSearch@@@?$vector@VMove@MicroSearch@@V?$allocator@VMove@MicroSearch@@@std@@@std@@IAEPAVMove@MicroSearch@@PAV23@00@Z 004151e0 f i Player.obj
 0001:000141e0       ??$_Ucopy@PAVMove@MicroSearch@@@?$vector@VMove@MicroSearch@@V?$allocator@VMove@MicroSearch@@@std@@@std@@IAEPAVMove@MicroSearch@@PAV23@00@Z 004151e0 f i Game.obj
 0001:00014210       ??0Map@MicroSearch@@QAE@XZ 00415210 f i test.obj
 0001:00014280       ?load@Map@MicroSearch@@QAEXABV?$basic_string@DU?$char_traits@D@std@@V?$allocator@D@2@@std@@@Z 00415280 f i test.obj
 0001:000146d0       ?getSymmetricState@@YA?AVGameState@MicroSearch@@ABEVUnitType@BWAPI@@ABI12ABH3@Z 004156d0 f   test.obj
 0001:000149a0       ?generateAllStates@@YAXAAV?$vector@VGameState@MicroSearch@@V?$allocator@VGameState@MicroSearch@@@std@@@std@@ABIVUnitType@BWAPI@@121ABH3@Z 004159a0 f   test.obj
 0001:00014a90       ?getSearchPlayer@@YA?AV?$shared_ptr@VPlayer@MicroSearch@@@boost@@ABE00ABI@Z 00415a90 f   test.obj
 0001:00014bd0       ?addSearchPlayers50ms@@YAXAAV?$vector@V?$shared_ptr@VPlayer@MicroSearch@@@boost@@V?$allocator@V?$shared_ptr@VPlayer@MicroSearch@@@boost@@@std@@@std@@ABE@Z 00415bd0 f   test.obj
 0001:00014c80       ?addModelPlayers@@YAXAAV?$vector@V?$shared_ptr@VPlayer@MicroSearch@@@boost@@V?$allocator@V?$shared_ptr@VPlayer@MicroSearch@@@boost@@@std@@@std@@ABE@Z 00415c80 f   test.obj
 0001:00014ff0       ?results@@YAXXZ            00415ff0 f   test.obj
 0001:00015830       _main                      00416830 f   test.obj
 0001:00015910       ??0?$vector@V?$vector@_NV?$allocator@_N@std@@@std@@V?$allocator@V?$vector@_NV?$allocator@_N@std@@@std@@@2@@std@@QAE@IABV?$vector@_NV?$allocator@_N@std@@@1@@Z 00416910 f i test.obj
 0001:00015980       ??1?$vector@V?$vector@_NV?$allocator@_N@std@@@std@@V?$allocator@V?$vector@_NV?$allocator@_N@std@@@std@@@2@@std@@QAE@XZ 00416980 f i test.obj
 0001:000159d0       ??4?$vector@V?$vector@_NV?$allocator@_N@std@@@std@@V?$allocator@V?$vector@_NV?$allocator@_N@std@@@std@@@2@@std@@QAEAAV01@ABV01@@Z 004169d0 f i test.obj
 0001:00015b40       ??0?$vector@_NV?$allocator@_N@std@@@std@@QAE@I_N@Z 00416b40 f i test.obj
 0001:00015bd0       ?destroy@?$allocator@V?$vector@_NV?$allocator@_N@std@@@std@@@std@@QAEXPAV?$vector@_NV?$allocator@_N@std@@@2@@Z 00416bd0 f i test.obj
 0001:00015bd0       ??1?$vector@_NV?$allocator@_N@std@@@std@@QAE@XZ 00416bd0 f i test.obj
 0001:00015c10       ??A?$vector@_NV?$allocator@_N@std@@@std@@QAE?AV?$_Vb_reference@IHV?$vector@_NV?$allocator@_N@std@@@std@@@1@I@Z 00416c10 f i test.obj
 0001:00015ca0       ??1?$vector@VGameState@MicroSearch@@V?$allocator@VGameState@MicroSearch@@@std@@@std@@QAE@XZ 00416ca0 f i test.obj
 0001:00015cf0       ?push_back@?$vector@VGameState@MicroSearch@@V?$allocator@VGameState@MicroSearch@@@std@@@std@@QAEXABVGameState@MicroSearch@@@Z 00416cf0 f i test.obj
 0001:00015da0       ??0?$vector@IV?$allocator@I@std@@@std@@QAE@IABI@Z 00416da0 f i test.obj
 0001:00015e00       ?_Construct_n@?$vector@V?$vector@_NV?$allocator@_N@std@@@std@@V?$allocator@V?$vector@_NV?$allocator@_N@std@@@std@@@2@@std@@QAEXIABV?$vector@_NV?$allocator@_N@std@@@2@@Z 00416e00 f i test.obj
 0001:00015ec0       ?clear@?$vector@V?$vector@_NV?$allocator@_N@std@@@std@@V?$allocator@V?$vector@_NV?$allocator@_N@std@@@std@@@2@@std@@QAEXXZ 00416ec0 f i test.obj
 0001:00015f00       ?_Buy@?$vector@V?$vector@_NV?$allocator@_N@std@@@std@@V?$allocator@V?$vector@_NV?$allocator@_N@std@@@std@@@2@@std@@IAE_NI@Z 00416f00 f i test.obj
 0001:00015f30       ?_Destroy@?$vector@V?$vector@_NV?$allocator@_N@std@@@std@@V?$allocator@V?$vector@_NV?$allocator@_N@std@@@std@@@2@@std@@IAEXPAV?$vector@_NV?$allocator@_N@std@@@2@0@Z 00416f30 f i test.obj
 0001:00015f50       ?_Tidy@?$vector@V?$vector@_NV?$allocator@_N@std@@@std@@V?$allocator@V?$vector@_NV?$allocator@_N@std@@@std@@@2@@std@@IAEXXZ 00416f50 f i test.obj
 0001:00015f90       ?_Trim@?$vector@_NV?$allocator@_N@std@@@std@@IAEXI@Z 00416f90 f i test.obj
 0001:00016080       ?insert@?$vector@VGameState@MicroSearch@@V?$allocator@VGameState@MicroSearch@@@std@@@std@@QAE?AV?$_Vector_iterator@VGameState@MicroSearch@@V?$allocator@VGameState@MicroSearch@@@std@@@2@V?$_Vector_const_iterator@VGameState@MicroSearch@@V?$allocator@VGameState@MicroSearch@@@std@@@2@ABVGameState@MicroSearch@@@Z 00417080 f i test.obj
 0001:00016160       ?_Tidy@?$vector@VGameState@MicroSearch@@V?$allocator@VGameState@MicroSearch@@@std@@@std@@IAEXXZ 00417160 f i test.obj
 0001:000161b0       ?_Ufill@?$vector@VGameState@MicroSearch@@V?$allocator@VGameState@MicroSearch@@@std@@@std@@IAEPAVGameState@MicroSearch@@PAV34@IABV34@@Z 004171b0 f i test.obj
 0001:000161e0       ?erase@?$vector@V?$vector@_NV?$allocator@_N@std@@@std@@V?$allocator@V?$vector@_NV?$allocator@_N@std@@@std@@@2@@std@@QAE?AV?$_Vector_iterator@V?$vector@_NV?$allocator@_N@std@@@std@@V?$allocator@V?$vector@_NV?$allocator@_N@std@@@std@@@2@@2@V?$_Vector_const_iterator@V?$vector@_NV?$allocator@_N@std@@@std@@V?$allocator@V?$vector@_NV?$allocator@_N@std@@@std@@@2@@2@0@Z 004171e0 f i test.obj
 0001:00016280       ?allocate@?$allocator@V?$vector@_NV?$allocator@_N@std@@@std@@@std@@QAEPAV?$vector@_NV?$allocator@_N@std@@@2@I@Z 00417280 f i test.obj
 0001:000162e0       ?_Xlen@?$vector@_NV?$allocator@_N@std@@@std@@IBEXXZ 004172e0 f i test.obj
 0001:00016340       ?_Destroy@?$vector@VGameState@MicroSearch@@V?$allocator@VGameState@MicroSearch@@@std@@@std@@IAEXPAVGameState@MicroSearch@@0@Z 00417340 f i test.obj
 0001:00016360       ?_Insert_n@?$vector@VGameState@MicroSearch@@V?$allocator@VGameState@MicroSearch@@@std@@@std@@IAEXV?$_Vector_const_iterator@VGameState@MicroSearch@@V?$allocator@VGameState@MicroSearch@@@std@@@2@IABVGameState@MicroSearch@@@Z 00417360 f i test.obj
 0001:00016750       ?allocate@?$allocator@VGameState@MicroSearch@@@std@@QAEPAVGameState@MicroSearch@@I@Z 00417750 f i test.obj
 0001:000167b0       ??$?0VPlayer_AttackClosest@MicroSearch@@@?$shared_ptr@VPlayer@MicroSearch@@@boost@@QAE@PAVPlayer_AttackClosest@MicroSearch@@@Z 004177b0 f i test.obj
 0001:00016810       ??$?0VPlayer_AttackWeakest@MicroSearch@@@?$shared_ptr@VPlayer@MicroSearch@@@boost@@QAE@PAVPlayer_AttackWeakest@MicroSearch@@@Z 00417810 f i test.obj
 0001:00016870       ??$?0VPlayer_AttackDPS@MicroSearch@@@?$shared_ptr@VPlayer@MicroSearch@@@boost@@QAE@PAVPlayer_AttackDPS@MicroSearch@@@Z 00417870 f i test.obj
 0001:000168d0       ??$?0VPlayer_Kiter@MicroSearch@@@?$shared_ptr@VPlayer@MicroSearch@@@boost@@QAE@PAVPlayer_Kiter@MicroSearch@@@Z 004178d0 f i test.obj
 0001:00016930       ??$?0VPlayer_KiterDPS@MicroSearch@@@?$shared_ptr@VPlayer@MicroSearch@@@boost@@QAE@PAVPlayer_KiterDPS@MicroSearch@@@Z 00417930 f i test.obj
 0001:00016990       ??$?0VPlayer_AlphaBeta@MicroSearch@@@?$shared_ptr@VPlayer@MicroSearch@@@boost@@QAE@PAVPlayer_AlphaBeta@MicroSearch@@@Z 00417990 f i test.obj
 0001:000169f0       ??$?0VPlayer_Random@MicroSearch@@@?$shared_ptr@VPlayer@MicroSearch@@@boost@@QAE@PAVPlayer_Random@MicroSearch@@@Z 004179f0 f i test.obj
 0001:00016a50       ??$unchecked_copy@PAV?$vector@_NV?$allocator@_N@std@@@std@@PAV12@@stdext@@YAPAV?$vector@_NV?$allocator@_N@std@@@std@@PAV12@00@Z 00417a50 f i test.obj
 0001:00016a80       ??$_Ucopy@PAV?$vector@_NV?$allocator@_N@std@@@std@@@?$vector@V?$vector@_NV?$allocator@_N@std@@@std@@V?$allocator@V?$vector@_NV?$allocator@_N@std@@@std@@@2@@std@@IAEPAV?$vector@_NV?$allocator@_N@std@@@1@PAV21@00@Z 00417a80 f i test.obj
 0001:00016ab0       ??$_Umove@PAVGameState@MicroSearch@@@?$vector@VGameState@MicroSearch@@V?$allocator@VGameState@MicroSearch@@@std@@@std@@IAEPAVGameState@MicroSearch@@PAV23@00@Z 00417ab0 f i test.obj
 0001:00016ae0       ??$sp_pointer_construct@VPlayer@MicroSearch@@VPlayer_AttackClosest@2@@detail@boost@@YAXPAV?$shared_ptr@VPlayer@MicroSearch@@@1@PAVPlayer_AttackClosest@MicroSearch@@AAVshared_count@01@@Z 00417ae0 f i test.obj
 0001:00016b40       ??$sp_pointer_construct@VPlayer@MicroSearch@@VPlayer_AttackWeakest@2@@detail@boost@@YAXPAV?$shared_ptr@VPlayer@MicroSearch@@@1@PAVPlayer_AttackWeakest@MicroSearch@@AAVshared_count@01@@Z 00417b40 f i test.obj
 0001:00016ba0       ??$sp_pointer_construct@VPlayer@MicroSearch@@VPlayer_AttackDPS@2@@detail@boost@@YAXPAV?$shared_ptr@VPlayer@MicroSearch@@@1@PAVPlayer_AttackDPS@MicroSearch@@AAVshared_count@01@@Z 00417ba0 f i test.obj
 0001:00016c00       ??$sp_pointer_construct@VPlayer@MicroSearch@@VPlayer_Kiter@2@@detail@boost@@YAXPAV?$shared_ptr@VPlayer@MicroSearch@@@1@PAVPlayer_Kiter@MicroSearch@@AAVshared_count@01@@Z 00417c00 f i test.obj
 0001:00016c60       ??$sp_pointer_construct@VPlayer@MicroSearch@@VPlayer_KiterDPS@2@@detail@boost@@YAXPAV?$shared_ptr@VPlayer@MicroSearch@@@1@PAVPlayer_KiterDPS@MicroSearch@@AAVshared_count@01@@Z 00417c60 f i test.obj
 0001:00016cc0       ??$sp_pointer_construct@VPlayer@MicroSearch@@VPlayer_AlphaBeta@2@@detail@boost@@YAXPAV?$shared_ptr@VPlayer@MicroSearch@@@1@PAVPlayer_AlphaBeta@MicroSearch@@AAVshared_count@01@@Z 00417cc0 f i test.obj
 0001:00016d20       ??$sp_pointer_construct@VPlayer@MicroSearch@@VPlayer_Random@2@@detail@boost@@YAXPAV?$shared_ptr@VPlayer@MicroSearch@@@1@PAVPlayer_Random@MicroSearch@@AAVshared_count@01@@Z 00417d20 f i test.obj
 0001:00016d80       ??$_Copy_opt@PAV?$vector@_NV?$allocator@_N@std@@@std@@PAV12@@std@@YAPAV?$vector@_NV?$allocator@_N@std@@@0@PAV10@00Urandom_access_iterator_tag@0@U_Nonscalar_ptr_iterator_tag@0@U_Range_checked_iterator_tag@0@@Z 00417d80 f i test.obj
 0001:00016de0       ??$_Destroy_range@V?$allocator@V?$vector@_NV?$allocator@_N@std@@@std@@@std@@@std@@YAXPAV?$vector@_NV?$allocator@_N@std@@@0@0AAV?$allocator@V?$vector@_NV?$allocator@_N@std@@@std@@@0@U_Nonscalar_ptr_iterator_tag@0@@Z 00417de0 f i test.obj
 0001:00016e30       ??$_Uninit_fill_n@PAVGameState@MicroSearch@@IV12@V?$allocator@VGameState@MicroSearch@@@std@@@std@@YAXPAVGameState@MicroSearch@@IABV12@AAV?$allocator@VGameState@MicroSearch@@@0@U_Nonscalar_ptr_iterator_tag@0@U_Range_checked_iterator_tag@0@@Z 00417e30 f i test.obj
 0001:00016ed0       ??$_Uninit_fill_n@PAV?$vector@_NV?$allocator@_N@std@@@std@@IV12@V?$allocator@V?$vector@_NV?$allocator@_N@std@@@std@@@2@@std@@YAXPAV?$vector@_NV?$allocator@_N@std@@@0@IABV10@AAV?$allocator@V?$vector@_NV?$allocator@_N@std@@@std@@@0@U_Nonscalar_ptr_iterator_tag@0@U_Range_checked_iterator_tag@0@@Z 00417ed0 f i test.obj
 0001:00016f70       ??$?0VPlayer_AttackClosest@MicroSearch@@@shared_count@detail@boost@@QAE@PAVPlayer_AttackClosest@MicroSearch@@@Z 00417f70 f i test.obj
 0001:00017000       ??$?0VPlayer_AttackWeakest@MicroSearch@@@shared_count@detail@boost@@QAE@PAVPlayer_AttackWeakest@MicroSearch@@@Z 00418000 f i test.obj
 0001:00017090       ??$?0VPlayer_AttackDPS@MicroSearch@@@shared_count@detail@boost@@QAE@PAVPlayer_AttackDPS@MicroSearch@@@Z 00418090 f i test.obj
 0001:00017120       ??$?0VPlayer_Kiter@MicroSearch@@@shared_count@detail@boost@@QAE@PAVPlayer_Kiter@MicroSearch@@@Z 00418120 f i test.obj
 0001:000171b0       ??$?0VPlayer_KiterDPS@MicroSearch@@@shared_count@detail@boost@@QAE@PAVPlayer_KiterDPS@MicroSearch@@@Z 004181b0 f i test.obj
 0001:00017240       ??$?0VPlayer_AlphaBeta@MicroSearch@@@shared_count@detail@boost@@QAE@PAVPlayer_AlphaBeta@MicroSearch@@@Z 00418240 f i test.obj
 0001:000172e0       ??$?0VPlayer_Random@MicroSearch@@@shared_count@detail@boost@@QAE@PAVPlayer_Random@MicroSearch@@@Z 004182e0 f i test.obj
 0001:00017370       ??$_Uninit_copy@PAV?$vector@_NV?$allocator@_N@std@@@std@@PAV12@V?$allocator@V?$vector@_NV?$allocator@_N@std@@@std@@@2@@std@@YAPAV?$vector@_NV?$allocator@_N@std@@@0@PAV10@00AAV?$allocator@V?$vector@_NV?$allocator@_N@std@@@std@@@0@U_Nonscalar_ptr_iterator_tag@0@U_Range_checked_iterator_tag@0@@Z 00418370 f i test.obj
 0001:00017410       ??$_Copy_backward_opt@PAVGameState@MicroSearch@@PAV12@@std@@YAPAVGameState@MicroSearch@@PAV12@00Urandom_access_iterator_tag@0@U_Nonscalar_ptr_iterator_tag@0@U_Range_checked_iterator_tag@0@@Z 00418410 f i test.obj
 0001:00017460       ??0?$vector@_NV?$allocator@_N@std@@@std@@QAE@ABV01@@Z 00418460 f i test.obj
 0001:000174d0       ?dispose@?$sp_counted_impl_p@VPlayer_AttackDPS@MicroSearch@@@detail@boost@@UAEXXZ 004184d0 f i test.obj
 0001:000174d0       ?dispose@?$sp_counted_impl_p@VPlayer_AttackClosest@MicroSearch@@@detail@boost@@UAEXXZ 004184d0 f i test.obj
 0001:000174d0       ?dispose@?$sp_counted_impl_p@VPlayer_Random@MicroSearch@@@detail@boost@@UAEXXZ 004184d0 f i test.obj
 0001:000174d0       ?dispose@?$sp_counted_impl_p@VPlayer@MicroSearch@@@detail@boost@@UAEXXZ 004184d0 f i GameState.obj
 0001:000174d0       ?dispose@?$sp_counted_impl_p@VPlayer_KiterDPS@MicroSearch@@@detail@boost@@UAEXXZ 004184d0 f i test.obj
 0001:000174d0       ?dispose@?$sp_counted_impl_p@VPlayer_AttackWeakest@MicroSearch@@@detail@boost@@UAEXXZ 004184d0 f i test.obj
 0001:000174d0       ?dispose@?$sp_counted_impl_p@VPlayer_NOK_AttackDPS@MicroSearch@@@detail@boost@@UAEXXZ 004184d0 f i AlphaBeta.obj
 0001:000174d0       ?dispose@?$sp_counted_impl_p@VPlayer_Kiter@MicroSearch@@@detail@boost@@UAEXXZ 004184d0 f i test.obj
 0001:000174e0       ?get_deleter@?$sp_counted_impl_p@VPlayer_NOK_AttackDPS@MicroSearch@@@detail@boost@@UAEPAXABVtype_info@@@Z 004184e0 f i AlphaBeta.obj
 0001:000174e0       ?get_deleter@?$sp_counted_impl_p@VPlayer_Random@MicroSearch@@@detail@boost@@UAEPAXABVtype_info@@@Z 004184e0 f i test.obj
 0001:000174e0       ?get_deleter@?$sp_counted_impl_p@VPlayer@MicroSearch@@@detail@boost@@UAEPAXABVtype_info@@@Z 004184e0 f i GameState.obj
 0001:000174e0       ?get_deleter@?$sp_counted_impl_p@VPlayer_Kiter@MicroSearch@@@detail@boost@@UAEPAXABVtype_info@@@Z 004184e0 f i test.obj
 0001:000174e0       ?get_deleter@?$sp_counted_impl_p@VPlayer_AttackClosest@MicroSearch@@@detail@boost@@UAEPAXABVtype_info@@@Z 004184e0 f i test.obj
 0001:000174e0       ?get_deleter@?$sp_counted_impl_p@VPlayer_AlphaBeta@MicroSearch@@@detail@boost@@UAEPAXABVtype_info@@@Z 004184e0 f i test.obj
 0001:000174e0       ?get_deleter@?$sp_counted_impl_p@VTranspositionTable@MicroSearch@@@detail@boost@@UAEPAXABVtype_info@@@Z 004184e0 f i AlphaBeta.obj
 0001:000174e0       ?get_deleter@?$sp_counted_impl_p@VPlayer_AttackDPS@MicroSearch@@@detail@boost@@UAEPAXABVtype_info@@@Z 004184e0 f i test.obj
 0001:000174e0       ?get_deleter@?$sp_counted_impl_p@VPlayer_AttackWeakest@MicroSearch@@@detail@boost@@UAEPAXABVtype_info@@@Z 004184e0 f i test.obj
 0001:000174e0       ?get_deleter@?$sp_counted_impl_p@VPlayer_KiterDPS@MicroSearch@@@detail@boost@@UAEPAXABVtype_info@@@Z 004184e0 f i test.obj
 0001:000174f0       ?dispose@?$sp_counted_impl_p@VPlayer_AlphaBeta@MicroSearch@@@detail@boost@@UAEXXZ 004184f0 f i test.obj
 0001:00017510       ??0?$vector@IV?$allocator@I@std@@@std@@QAE@ABV01@@Z 00418510 f i test.obj
 0001:000175f0       ??$_Uninit_copy@PAVGameState@MicroSearch@@PAV12@V?$allocator@VGameState@MicroSearch@@@std@@@std@@YAPAVGameState@MicroSearch@@PAV12@00AAV?$allocator@VGameState@MicroSearch@@@0@U_Nonscalar_ptr_iterator_tag@0@U_Range_checked_iterator_tag@0@@Z 004185f0 f i test.obj
 0001:00017690       ??0TTEntry@MicroSearch@@QAE@ABIABVAlphaBetaScore@1@0ABHABEABVAlphaBetaMove@1@4@Z 00418690 f   TranspositionTable.obj
 0001:00017740       ??0TranspositionTable@MicroSearch@@QAE@XZ 00418740 f   TranspositionTable.obj
 0001:000177d0       ?getSaveIndex@TranspositionTable@MicroSearch@@QBE?BIABI00@Z 004187d0 f   TranspositionTable.obj
 0001:000178a0       ?save@TranspositionTable@MicroSearch@@QAEXABI0ABVAlphaBetaScore@2@0ABHABEABVAlphaBetaMove@2@4@Z 004188a0 f   TranspositionTable.obj
 0001:000179b0       ?lookupScan@TranspositionTable@MicroSearch@@QAEPAVTTEntry@2@ABI0@Z 004189b0 f   TranspositionTable.obj
 0001:00017a30       ?lookup@TranspositionTable@MicroSearch@@QAEPAVTTEntry@2@ABI0@Z 00418a30 f   TranspositionTable.obj
 0001:00017b00       ??0?$vector@VTTEntry@MicroSearch@@V?$allocator@VTTEntry@MicroSearch@@@std@@@std@@QAE@IABVTTEntry@MicroSearch@@@Z 00418b00 f i TranspositionTable.obj
 0001:00017b70       ?_Construct_n@?$vector@VTTEntry@MicroSearch@@V?$allocator@VTTEntry@MicroSearch@@@std@@@std@@QAEXIABVTTEntry@MicroSearch@@@Z 00418b70 f i TranspositionTable.obj
 0001:00017c10       ??$_Uninit_fill_n@PAVTTEntry@MicroSearch@@IV12@V?$allocator@VTTEntry@MicroSearch@@@std@@@std@@YAXPAVTTEntry@MicroSearch@@IABV12@AAV?$allocator@VTTEntry@MicroSearch@@@0@U_Nonscalar_ptr_iterator_tag@0@U_Range_checked_iterator_tag@0@@Z 00418c10 f i TranspositionTable.obj
 0001:00017c40       ??1out_of_range@std@@UAE@XZ 00418c40 f i BWAPI:UnitType.obj
 0001:00017c60       ??_Gout_of_range@std@@UAEPAXI@Z 00418c60 f i BWAPI:UnitType.obj
 0001:00017c60       ??_Eout_of_range@std@@UAEPAXI@Z 00418c60 f i BWAPI:UnitType.obj
 0001:00017c90       ??0UnitType@BWAPI@@QAE@XZ  00418c90 f   BWAPI:UnitType.obj
 0001:00017ca0       ?maxHitPoints@UnitType@BWAPI@@QBEHXZ 00418ca0 f   BWAPI:UnitType.obj
 0001:00017cc0       ?maxShields@UnitType@BWAPI@@QBEHXZ 00418cc0 f   BWAPI:UnitType.obj
 0001:00017ce0       ?groundWeapon@UnitType@BWAPI@@QBE?AVWeaponType@2@XZ 00418ce0 f   BWAPI:UnitType.obj
 0001:00017d00       ?airWeapon@UnitType@BWAPI@@QBE?AVWeaponType@2@XZ 00418d00 f   BWAPI:UnitType.obj
 0001:00017d20       ?topSpeed@UnitType@BWAPI@@QBENXZ 00418d20 f   BWAPI:UnitType.obj
 0001:00017d40       ?canMove@UnitType@BWAPI@@QBE_NXZ 00418d40 f   BWAPI:UnitType.obj
 0001:00017d60       ?isFlyer@UnitType@BWAPI@@QBE_NXZ 00418d60 f   BWAPI:UnitType.obj
 0001:00017d80       ?isOrganic@UnitType@BWAPI@@QBE_NXZ 00418d80 f   BWAPI:UnitType.obj
 0001:00017da0       ?allUnitTypes@UnitTypes@BWAPI@@YAABV?$set@VUnitType@BWAPI@@U?$less@VUnitType@BWAPI@@@std@@V?$allocator@VUnitType@BWAPI@@@4@@std@@XZ 00418da0 f   BWAPI:UnitType.obj
 0001:00017db0       ?_Max@?$_Tree@V?$_Tmap_traits@VUnitType@BWAPI@@HU?$less@VUnitType@BWAPI@@@std@@V?$allocator@U?$pair@$$CBVUnitType@BWAPI@@H@std@@@4@$0A@@std@@@std@@KAPAU_Node@?$_Tree_nod@V?$_Tmap_traits@VUnitType@BWAPI@@HU?$less@VUnitType@BWAPI@@@std@@V?$allocator@U?$pair@$$CBVUnitType@BWAPI@@H@std@@@4@$0A@@std@@@2@PAU342@@Z 00418db0 f i BWAPI:UnitType.obj
 0001:00017dd0       ?_Min@?$_Tree@V?$_Tmap_traits@VUnitType@BWAPI@@HU?$less@VUnitType@BWAPI@@@std@@V?$allocator@U?$pair@$$CBVUnitType@BWAPI@@H@std@@@4@$0A@@std@@@std@@KAPAU_Node@?$_Tree_nod@V?$_Tmap_traits@VUnitType@BWAPI@@HU?$less@VUnitType@BWAPI@@@std@@V?$allocator@U?$pair@$$CBVUnitType@BWAPI@@H@std@@@4@$0A@@std@@@2@PAU342@@Z 00418dd0 f i BWAPI:UnitType.obj
 0001:00017df0       ?_Inc@const_iterator@?$_Tree@V?$_Tmap_traits@VUnitType@BWAPI@@HU?$less@VUnitType@BWAPI@@@std@@V?$allocator@U?$pair@$$CBVUnitType@BWAPI@@H@std@@@4@$0A@@std@@@std@@QAEXXZ 00418df0 f i BWAPI:UnitType.obj
 0001:00017e60       ?_Lrotate@?$_Tree@V?$_Tmap_traits@VUnitType@BWAPI@@HU?$less@VUnitType@BWAPI@@@std@@V?$allocator@U?$pair@$$CBVUnitType@BWAPI@@H@std@@@4@$0A@@std@@@std@@IAEXPAU_Node@?$_Tree_nod@V?$_Tmap_traits@VUnitType@BWAPI@@HU?$less@VUnitType@BWAPI@@@std@@V?$allocator@U?$pair@$$CBVUnitType@BWAPI@@H@std@@@4@$0A@@std@@@2@@Z 00418e60 f i BWAPI:UnitType.obj
 0001:00017eb0       ?_Rrotate@?$_Tree@V?$_Tmap_traits@VUnitType@BWAPI@@HU?$less@VUnitType@BWAPI@@@std@@V?$allocator@U?$pair@$$CBVUnitType@BWAPI@@H@std@@@4@$0A@@std@@@std@@IAEXPAU_Node@?$_Tree_nod@V?$_Tmap_traits@VUnitType@BWAPI@@HU?$less@VUnitType@BWAPI@@@std@@V?$allocator@U?$pair@$$CBVUnitType@BWAPI@@H@std@@@4@$0A@@std@@@2@@Z 00418eb0 f i BWAPI:UnitType.obj
 0001:00017f10       ?_Lbound@?$_Tree@V?$_Tset_traits@VTechType@BWAPI@@U?$less@VTechType@BWAPI@@@std@@V?$allocator@VTechType@BWAPI@@@4@$0A@@std@@@std@@IBEPAU_Node@?$_Tree_nod@V?$_Tset_traits@VTechType@BWAPI@@U?$less@VTechType@BWAPI@@@std@@V?$allocator@VTechType@BWAPI@@@4@$0A@@std@@@2@ABVTechType@BWAPI@@@Z 00418f10 f i BWAPI:UnitType.obj
 0001:00017f60       ?_Dec@const_iterator@?$_Tree@V?$_Tmap_traits@VUnitType@BWAPI@@HU?$less@VUnitType@BWAPI@@@std@@V?$allocator@U?$pair@$$CBVUnitType@BWAPI@@H@std@@@4@$0A@@std@@@std@@QAEXXZ 00418f60 f i BWAPI:UnitType.obj
 0001:00017ff0       ?_Buynode@?$_Tree@V?$_Tmap_traits@VUnitType@BWAPI@@HU?$less@VUnitType@BWAPI@@@std@@V?$allocator@U?$pair@$$CBVUnitType@BWAPI@@H@std@@@4@$0A@@std@@@std@@IAEPAU_Node@?$_Tree_nod@V?$_Tmap_traits@VUnitType@BWAPI@@HU?$less@VUnitType@BWAPI@@@std@@V?$allocator@U?$pair@$$CBVUnitType@BWAPI@@H@std@@@4@$0A@@std@@@2@PAU342@00ABU?$pair@$$CBVUnitType@BWAPI@@H@2@D@Z 00418ff0 f i BWAPI:UnitType.obj
 0001:00018030       ?_Buynode@?$_Tree@V?$_Tmap_traits@VUnitType@BWAPI@@HU?$less@VUnitType@BWAPI@@@std@@V?$allocator@U?$pair@$$CBVUnitType@BWAPI@@H@std@@@4@$0A@@std@@@std@@IAEPAU_Node@?$_Tree_nod@V?$_Tmap_traits@VUnitType@BWAPI@@HU?$less@VUnitType@BWAPI@@@std@@V?$allocator@U?$pair@$$CBVUnitType@BWAPI@@H@std@@@4@$0A@@std@@@2@XZ 00419030 f i BWAPI:UnitType.obj
 0001:00018070       ??0out_of_range@std@@QAE@ABV01@@Z 00419070 f i BWAPI:UnitType.obj
 0001:00018090       ?_Erase@?$_Tree@V?$_Tmap_traits@VUnitType@BWAPI@@HU?$less@VUnitType@BWAPI@@@std@@V?$allocator@U?$pair@$$CBVUnitType@BWAPI@@H@std@@@4@$0A@@std@@@std@@IAEXPAU_Node@?$_Tree_nod@V?$_Tmap_traits@VUnitType@BWAPI@@HU?$less@VUnitType@BWAPI@@@std@@V?$allocator@U?$pair@$$CBVUnitType@BWAPI@@H@std@@@4@$0A@@std@@@2@@Z 00419090 f i BWAPI:UnitType.obj
 0001:000180d0       ?erase@?$_Tree@V?$_Tmap_traits@VUnitType@BWAPI@@HU?$less@VUnitType@BWAPI@@@std@@V?$allocator@U?$pair@$$CBVUnitType@BWAPI@@H@std@@@4@$0A@@std@@@std@@QAE?AViterator@12@Vconst_iterator@12@@Z 004190d0 f i BWAPI:UnitType.obj
 0001:000183a0       ?_Insert@?$_Tree@V?$_Tmap_traits@VUnitType@BWAPI@@HU?$less@VUnitType@BWAPI@@@std@@V?$allocator@U?$pair@$$CBVUnitType@BWAPI@@H@std@@@4@$0A@@std@@@std@@IAE?AViterator@12@_NPAU_Node@?$_Tree_nod@V?$_Tmap_traits@VUnitType@BWAPI@@HU?$less@VUnitType@BWAPI@@@std@@V?$allocator@U?$pair@$$CBVUnitType@BWAPI@@H@std@@@4@$0A@@std@@@2@ABU?$pair@$$CBVUnitType@BWAPI@@H@2@@Z 004193a0 f i BWAPI:UnitType.obj
 0001:000185a0       ?erase@?$_Tree@V?$_Tmap_traits@VUnitType@BWAPI@@HU?$less@VUnitType@BWAPI@@@std@@V?$allocator@U?$pair@$$CBVUnitType@BWAPI@@H@std@@@4@$0A@@std@@@std@@QAE?AViterator@12@Vconst_iterator@12@0@Z 004195a0 f i BWAPI:UnitType.obj
 0001:00018680       ?insert@?$_Tree@V?$_Tmap_traits@VUnitType@BWAPI@@HU?$less@VUnitType@BWAPI@@@std@@V?$allocator@U?$pair@$$CBVUnitType@BWAPI@@H@std@@@4@$0A@@std@@@std@@QAE?AU?$pair@Viterator@?$_Tree@V?$_Tmap_traits@VUnitType@BWAPI@@HU?$less@VUnitType@BWAPI@@@std@@V?$allocator@U?$pair@$$CBVUnitType@BWAPI@@H@std@@@4@$0A@@std@@@std@@_N@2@ABU?$pair@$$CBVUnitType@BWAPI@@H@2@@Z 00419680 f i BWAPI:UnitType.obj
 0001:000187a0       ?find@?$_Tree@V?$_Tset_traits@VTechType@BWAPI@@U?$less@VTechType@BWAPI@@@std@@V?$allocator@VTechType@BWAPI@@@4@$0A@@std@@@std@@QAE?AViterator@12@ABVTechType@BWAPI@@@Z 004197a0 f i BWAPI:UnitType.obj
 0001:00018830       ??1?$_Tree_val@V?$_Tmap_traits@V?$basic_string@DU?$char_traits@D@std@@V?$allocator@D@2@@std@@VError@BWAPI@@U?$less@V?$basic_string@DU?$char_traits@D@std@@V?$allocator@D@2@@std@@@2@V?$allocator@U?$pair@$$CBV?$basic_string@DU?$char_traits@D@std@@V?$allocator@D@2@@std@@VError@BWAPI@@@std@@@2@$0A@@std@@@std@@QAE@XZ 00419830 f i BWAPI:Error.obj
 0001:00018830       ??1?$_Tree_val@V?$_Tset_traits@VTechType@BWAPI@@U?$less@VTechType@BWAPI@@@std@@V?$allocator@VTechType@BWAPI@@@4@$0A@@std@@@std@@QAE@XZ 00419830 f i BWAPI:UnitType.obj
 0001:00018830       ??1?$_Tree_val@V?$_Tset_traits@VGameType@BWAPI@@U?$less@VGameType@BWAPI@@@std@@V?$allocator@VGameType@BWAPI@@@4@$0A@@std@@@std@@QAE@XZ 00419830 f i BWAPI:GameType.obj
 0001:00018830       ??1?$_Tree_val@V?$_Tset_traits@VPlayerType@BWAPI@@U?$less@VPlayerType@BWAPI@@@std@@V?$allocator@VPlayerType@BWAPI@@@4@$0A@@std@@@std@@QAE@XZ 00419830 f i BWAPI:PlayerType.obj
 0001:00018830       ??1?$_Tree_val@V?$_Tmap_traits@V?$basic_string@DU?$char_traits@D@std@@V?$allocator@D@2@@std@@VPlayerType@BWAPI@@U?$less@V?$basic_string@DU?$char_traits@D@std@@V?$allocator@D@2@@std@@@2@V?$allocator@U?$pair@$$CBV?$basic_string@DU?$char_traits@D@std@@V?$allocator@D@2@@std@@VPlayerType@BWAPI@@@std@@@2@$0A@@std@@@std@@QAE@XZ 00419830 f i BWAPI:PlayerType.obj
 0001:00018830       ??1?$_Tree_val@V?$_Tset_traits@VError@BWAPI@@U?$less@VError@BWAPI@@@std@@V?$allocator@VError@BWAPI@@@4@$0A@@std@@@std@@QAE@XZ 00419830 f i BWAPI:Error.obj
 0001:00018830       ??1?$_Tree_val@V?$_Tset_traits@VRace@BWAPI@@U?$less@VRace@BWAPI@@@std@@V?$allocator@VRace@BWAPI@@@4@$0A@@std@@@std@@QAE@XZ 00419830 f i BWAPI:Race.obj
 0001:00018830       ??1?$_Tree_val@V?$_Tmap_traits@V?$basic_string@DU?$char_traits@D@std@@V?$allocator@D@2@@std@@VUnitCommandType@BWAPI@@U?$less@V?$basic_string@DU?$char_traits@D@std@@V?$allocator@D@2@@std@@@2@V?$allocator@U?$pair@$$CBV?$basic_string@DU?$char_traits@D@std@@V?$allocator@D@2@@std@@VUnitCommandType@BWAPI@@@std@@@2@$0A@@std@@@std@@QAE@XZ 00419830 f i BWAPI:UnitCommandType.obj
 0001:00018830       ??1?$_Tree_val@V?$_Tmap_traits@V?$basic_string@DU?$char_traits@D@std@@V?$allocator@D@2@@std@@VWeaponType@BWAPI@@U?$less@V?$basic_string@DU?$char_traits@D@std@@V?$allocator@D@2@@std@@@2@V?$allocator@U?$pair@$$CBV?$basic_string@DU?$char_traits@D@std@@V?$allocator@D@2@@std@@VWeaponType@BWAPI@@@std@@@2@$0A@@std@@@std@@QAE@XZ 00419830 f i BWAPI:WeaponType.obj
 0001:00018830       ??1?$_Tree_val@V?$_Tmap_traits@V?$basic_string@DU?$char_traits@D@std@@V?$allocator@D@2@@std@@VGameType@BWAPI@@U?$less@V?$basic_string@DU?$char_traits@D@std@@V?$allocator@D@2@@std@@@2@V?$allocator@U?$pair@$$CBV?$basic_string@DU?$char_traits@D@std@@V?$allocator@D@2@@std@@VGameType@BWAPI@@@std@@@2@$0A@@std@@@std@@QAE@XZ 00419830 f i BWAPI:GameType.obj
 0001:00018830       ??1?$_Tree_val@V?$_Tmap_traits@V?$basic_string@DU?$char_traits@D@std@@V?$allocator@D@2@@std@@VUnitSizeType@BWAPI@@U?$less@V?$basic_string@DU?$char_traits@D@std@@V?$allocator@D@2@@std@@@2@V?$allocator@U?$pair@$$CBV?$basic_string@DU?$char_traits@D@std@@V?$allocator@D@2@@std@@VUnitSizeType@BWAPI@@@std@@@2@$0A@@std@@@std@@QAE@XZ 00419830 f i BWAPI:UnitSizeType.obj
 0001:00018830       ??1?$_Tree_val@V?$_Tset_traits@VDamageType@BWAPI@@U?$less@VDamageType@BWAPI@@@std@@V?$allocator@VDamageType@BWAPI@@@4@$0A@@std@@@std@@QAE@XZ 00419830 f i BWAPI:DamageType.obj
 0001:00018830       ??1?$_Tree_val@V?$_Tset_traits@VWeaponType@BWAPI@@U?$less@VWeaponType@BWAPI@@@std@@V?$allocator@VWeaponType@BWAPI@@@4@$0A@@std@@@std@@QAE@XZ 00419830 f i BWAPI:WeaponType.obj
 0001:00018830       ??1?$_Tree_val@V?$_Tmap_traits@V?$basic_string@DU?$char_traits@D@std@@V?$allocator@D@2@@std@@VOrder@BWAPI@@U?$less@V?$basic_string@DU?$char_traits@D@std@@V?$allocator@D@2@@std@@@2@V?$allocator@U?$pair@$$CBV?$basic_string@DU?$char_traits@D@std@@V?$allocator@D@2@@std@@VOrder@BWAPI@@@std@@@2@$0A@@std@@@std@@QAE@XZ 00419830 f i BWAPI:Order.obj
 0001:00018830       ??1?$_Tree_val@V?$_Tmap_traits@V?$basic_string@DU?$char_traits@D@std@@V?$allocator@D@2@@std@@VTechType@BWAPI@@U?$less@V?$basic_string@DU?$char_traits@D@std@@V?$allocator@D@2@@std@@@2@V?$allocator@U?$pair@$$CBV?$basic_string@DU?$char_traits@D@std@@V?$allocator@D@2@@std@@VTechType@BWAPI@@@std@@@2@$0A@@std@@@std@@QAE@XZ 00419830 f i BWAPI:TechType.obj
 0001:00018830       ??1?$_Tree_val@V?$_Tset_traits@VUnitType@BWAPI@@U?$less@VUnitType@BWAPI@@@std@@V?$allocator@VUnitType@BWAPI@@@4@$0A@@std@@@std@@QAE@XZ 00419830 f i BWAPI:UnitType.obj
 0001:00018830       ??1?$_Tree_val@V?$_Tset_traits@VOrder@BWAPI@@U?$less@VOrder@BWAPI@@@std@@V?$allocator@VOrder@BWAPI@@@4@$0A@@std@@@std@@QAE@XZ 00419830 f i BWAPI:Order.obj
 0001:00018830       ??1?$_Tree_val@V?$_Tmap_traits@V?$basic_string@DU?$char_traits@D@std@@V?$allocator@D@2@@std@@VDamageType@BWAPI@@U?$less@V?$basic_string@DU?$char_traits@D@std@@V?$allocator@D@2@@std@@@2@V?$allocator@U?$pair@$$CBV?$basic_string@DU?$char_traits@D@std@@V?$allocator@D@2@@std@@VDamageType@BWAPI@@@std@@@2@$0A@@std@@@std@@QAE@XZ 00419830 f i BWAPI:DamageType.obj
 0001:00018830       ??1?$_Tree_val@V?$_Tset_traits@VUpgradeType@BWAPI@@U?$less@VUpgradeType@BWAPI@@@std@@V?$allocator@VUpgradeType@BWAPI@@@4@$0A@@std@@@std@@QAE@XZ 00419830 f i BWAPI:UnitType.obj
 0001:00018830       ??1?$_Tree_val@V?$_Tmap_traits@V?$basic_string@DU?$char_traits@D@std@@V?$allocator@D@2@@std@@VExplosionType@BWAPI@@U?$less@V?$basic_string@DU?$char_traits@D@std@@V?$allocator@D@2@@std@@@2@V?$allocator@U?$pair@$$CBV?$basic_string@DU?$char_traits@D@std@@V?$allocator@D@2@@std@@VExplosionType@BWAPI@@@std@@@2@$0A@@std@@@std@@QAE@XZ 00419830 f i BWAPI:ExplosionType.obj
 0001:00018830       ??1?$_Tree_val@V?$_Tmap_traits@V?$basic_string@DU?$char_traits@D@std@@V?$allocator@D@2@@std@@VUpgradeType@BWAPI@@U?$less@V?$basic_string@DU?$char_traits@D@std@@V?$allocator@D@2@@std@@@2@V?$allocator@U?$pair@$$CBV?$basic_string@DU?$char_traits@D@std@@V?$allocator@D@2@@std@@VUpgradeType@BWAPI@@@std@@@2@$0A@@std@@@std@@QAE@XZ 00419830 f i BWAPI:UpgradeType.obj
 0001:00018830       ??1?$_Tree_val@V?$_Tmap_traits@V?$basic_string@DU?$char_traits@D@std@@V?$allocator@D@2@@std@@VBulletType@BWAPI@@U?$less@V?$basic_string@DU?$char_traits@D@std@@V?$allocator@D@2@@std@@@2@V?$allocator@U?$pair@$$CBV?$basic_string@DU?$char_traits@D@std@@V?$allocator@D@2@@std@@VBulletType@BWAPI@@@std@@@2@$0A@@std@@@std@@QAE@XZ 00419830 f i BWAPI:BulletType.obj
 0001:00018830       ??1?$_Tree_val@V?$_Tmap_traits@VUnitType@BWAPI@@HU?$less@VUnitType@BWAPI@@@std@@V?$allocator@U?$pair@$$CBVUnitType@BWAPI@@H@std@@@4@$0A@@std@@@std@@QAE@XZ 00419830 f i BWAPI:UnitType.obj
 0001:00018830       ??1?$_Tree_val@V?$_Tmap_traits@V?$basic_string@DU?$char_traits@D@std@@V?$allocator@D@2@@std@@VUnitType@BWAPI@@U?$less@V?$basic_string@DU?$char_traits@D@std@@V?$allocator@D@2@@std@@@2@V?$allocator@U?$pair@$$CBV?$basic_string@DU?$char_traits@D@std@@V?$allocator@D@2@@std@@VUnitType@BWAPI@@@std@@@2@$0A@@std@@@std@@QAE@XZ 00419830 f i BWAPI:UnitType.obj
 0001:00018830       ??1?$_Tree_val@V?$_Tset_traits@VExplosionType@BWAPI@@U?$less@VExplosionType@BWAPI@@@std@@V?$allocator@VExplosionType@BWAPI@@@4@$0A@@std@@@std@@QAE@XZ 00419830 f i BWAPI:ExplosionType.obj
 0001:00018830       ??1?$_Tree_val@V?$_Tset_traits@VUnitCommandType@BWAPI@@U?$less@VUnitCommandType@BWAPI@@@std@@V?$allocator@VUnitCommandType@BWAPI@@@4@$0A@@std@@@std@@QAE@XZ 00419830 f i BWAPI:UnitCommandType.obj
 0001:00018830       ??1?$_Tree_val@V?$_Tset_traits@VBulletType@BWAPI@@U?$less@VBulletType@BWAPI@@@std@@V?$allocator@VBulletType@BWAPI@@@4@$0A@@std@@@std@@QAE@XZ 00419830 f i BWAPI:BulletType.obj
 0001:00018830       ??1?$_Tree_val@V?$_Tmap_traits@V?$basic_string@DU?$char_traits@D@std@@V?$allocator@D@2@@std@@VRace@BWAPI@@U?$less@V?$basic_string@DU?$char_traits@D@std@@V?$allocator@D@2@@std@@@2@V?$allocator@U?$pair@$$CBV?$basic_string@DU?$char_traits@D@std@@V?$allocator@D@2@@std@@VRace@BWAPI@@@std@@@2@$0A@@std@@@std@@QAE@XZ 00419830 f i BWAPI:Race.obj
 0001:00018830       ??1?$_Tree_val@V?$_Tset_traits@VUnitSizeType@BWAPI@@U?$less@VUnitSizeType@BWAPI@@@std@@V?$allocator@VUnitSizeType@BWAPI@@@4@$0A@@std@@@std@@QAE@XZ 00419830 f i BWAPI:UnitSizeType.obj
 0001:00018840       ?set@UnitTypeInternal@BWAPI@@QAEXPBDVRace@2@_NVUnitType@2@H33VTechType@2@4444VUpgradeType@2@HHHHHHHHHHHHHVUnitSizeType@2@HHHHHHHHVWeaponType@2@H7HNHHH22222222222222222222222@Z 00419840 f i BWAPI:UnitType.obj
 0001:00018da0       ?init@UnitTypes@BWAPI@@YAXXZ 00419da0 f   BWAPI:UnitType.obj
 0001:00024f70       ??1?$_Tree@V?$_Tmap_traits@VUnitType@BWAPI@@HU?$less@VUnitType@BWAPI@@@std@@V?$allocator@U?$pair@$$CBVUnitType@BWAPI@@H@std@@@4@$0A@@std@@@std@@QAE@XZ 00425f70 f i BWAPI:UnitType.obj
 0001:00024fe0       ??1?$map@VUnitType@BWAPI@@HU?$less@VUnitType@BWAPI@@@std@@V?$allocator@U?$pair@$$CBVUnitType@BWAPI@@H@std@@@4@@std@@QAE@XZ 00425fe0 f i BWAPI:UnitType.obj
 0001:00024ff0       ??1?$set@VUnitType@BWAPI@@U?$less@VUnitType@BWAPI@@@std@@V?$allocator@VUnitType@BWAPI@@@4@@std@@QAE@XZ 00425ff0 f i BWAPI:UnitType.obj
 0001:00024ff0       ??1?$set@VTechType@BWAPI@@U?$less@VTechType@BWAPI@@@std@@V?$allocator@VTechType@BWAPI@@@4@@std@@QAE@XZ 00425ff0 f i BWAPI:UnitType.obj
 0001:00024ff0       ??1?$set@VUpgradeType@BWAPI@@U?$less@VUpgradeType@BWAPI@@@std@@V?$allocator@VUpgradeType@BWAPI@@@4@@std@@QAE@XZ 00425ff0 f i BWAPI:UnitType.obj
 0001:00025000       ??1UnitTypeInternal@BWAPI@@QAE@XZ 00426000 f i BWAPI:UnitType.obj
 0001:00025070       ??0?$_Tree@V?$_Tmap_traits@VUnitType@BWAPI@@HU?$less@VUnitType@BWAPI@@@std@@V?$allocator@U?$pair@$$CBVUnitType@BWAPI@@H@std@@@4@$0A@@std@@@std@@QAE@ABU?$less@VUnitType@BWAPI@@@1@ABV?$allocator@U?$pair@$$CBVUnitType@BWAPI@@H@std@@@1@@Z 00426070 f i BWAPI:UnitType.obj
 0001:000250f0       ??0?$_Tree@V?$_Tset_traits@VOrder@BWAPI@@U?$less@VOrder@BWAPI@@@std@@V?$allocator@VOrder@BWAPI@@@4@$0A@@std@@@std@@QAE@ABU?$less@VOrder@BWAPI@@@1@ABV?$allocator@VOrder@BWAPI@@@1@@Z 004260f0 f i BWAPI:Order.obj
 0001:000250f0       ??0?$_Tree@V?$_Tset_traits@VUpgradeType@BWAPI@@U?$less@VUpgradeType@BWAPI@@@std@@V?$allocator@VUpgradeType@BWAPI@@@4@$0A@@std@@@std@@QAE@ABU?$less@VUpgradeType@BWAPI@@@1@ABV?$allocator@VUpgradeType@BWAPI@@@1@@Z 004260f0 f i BWAPI:UnitType.obj
 0001:000250f0       ??0?$_Tree@V?$_Tset_traits@VRace@BWAPI@@U?$less@VRace@BWAPI@@@std@@V?$allocator@VRace@BWAPI@@@4@$0A@@std@@@std@@QAE@ABU?$less@VRace@BWAPI@@@1@ABV?$allocator@VRace@BWAPI@@@1@@Z 004260f0 f i BWAPI:Race.obj
 0001:000250f0       ??0?$_Tree@V?$_Tset_traits@VUnitCommandType@BWAPI@@U?$less@VUnitCommandType@BWAPI@@@std@@V?$allocator@VUnitCommandType@BWAPI@@@4@$0A@@std@@@std@@QAE@ABU?$less@VUnitCommandType@BWAPI@@@1@ABV?$allocator@VUnitCommandType@BWAPI@@@1@@Z 004260f0 f i BWAPI:UnitCommandType.obj
 0001:000250f0       ??0?$_Tree@V?$_Tset_traits@VPlayerType@BWAPI@@U?$less@VPlayerType@BWAPI@@@std@@V?$allocator@VPlayerType@BWAPI@@@4@$0A@@std@@@std@@QAE@ABU?$less@VPlayerType@BWAPI@@@1@ABV?$allocator@VPlayerType@BWAPI@@@1@@Z 004260f0 f i BWAPI:PlayerType.obj
 0001:000250f0       ??0?$_Tree@V?$_Tset_traits@VBulletType@BWAPI@@U?$less@VBulletType@BWAPI@@@std@@V?$allocator@VBulletType@BWAPI@@@4@$0A@@std@@@std@@QAE@ABU?$less@VBulletType@BWAPI@@@1@ABV?$allocator@VBulletType@BWAPI@@@1@@Z 004260f0 f i BWAPI:BulletType.obj
 0001:000250f0       ??0?$_Tree@V?$_Tset_traits@VGameType@BWAPI@@U?$less@VGameType@BWAPI@@@std@@V?$allocator@VGameType@BWAPI@@@4@$0A@@std@@@std@@QAE@ABU?$less@VGameType@BWAPI@@@1@ABV?$allocator@VGameType@BWAPI@@@1@@Z 004260f0 f i BWAPI:GameType.obj
 0001:000250f0       ??0?$_Tree@V?$_Tset_traits@VTechType@BWAPI@@U?$less@VTechType@BWAPI@@@std@@V?$allocator@VTechType@BWAPI@@@4@$0A@@std@@@std@@QAE@ABU?$less@VTechType@BWAPI@@@1@ABV?$allocator@VTechType@BWAPI@@@1@@Z 004260f0 f i BWAPI:UnitType.obj
 0001:000250f0       ??0?$_Tree@V?$_Tset_traits@VExplosionType@BWAPI@@U?$less@VExplosionType@BWAPI@@@std@@V?$allocator@VExplosionType@BWAPI@@@4@$0A@@std@@@std@@QAE@ABU?$less@VExplosionType@BWAPI@@@1@ABV?$allocator@VExplosionType@BWAPI@@@1@@Z 004260f0 f i BWAPI:ExplosionType.obj
 0001:000250f0       ??0?$_Tree@V?$_Tset_traits@VDamageType@BWAPI@@U?$less@VDamageType@BWAPI@@@std@@V?$allocator@VDamageType@BWAPI@@@4@$0A@@std@@@std@@QAE@ABU?$less@VDamageType@BWAPI@@@1@ABV?$allocator@VDamageType@BWAPI@@@1@@Z 004260f0 f i BWAPI:DamageType.obj
 0001:000250f0       ??0?$_Tree@V?$_Tset_traits@VError@BWAPI@@U?$less@VError@BWAPI@@@std@@V?$allocator@VError@BWAPI@@@4@$0A@@std@@@std@@QAE@ABU?$less@VError@BWAPI@@@1@ABV?$allocator@VError@BWAPI@@@1@@Z 004260f0 f i BWAPI:Error.obj
 0001:000250f0       ??0?$_Tree@V?$_Tset_traits@VWeaponType@BWAPI@@U?$less@VWeaponType@BWAPI@@@std@@V?$allocator@VWeaponType@BWAPI@@@4@$0A@@std@@@std@@QAE@ABU?$less@VWeaponType@BWAPI@@@1@ABV?$allocator@VWeaponType@BWAPI@@@1@@Z 004260f0 f i BWAPI:WeaponType.obj
 0001:000250f0       ??0?$_Tree@V?$_Tset_traits@VUnitSizeType@BWAPI@@U?$less@VUnitSizeType@BWAPI@@@std@@V?$allocator@VUnitSizeType@BWAPI@@@4@$0A@@std@@@std@@QAE@ABU?$less@VUnitSizeType@BWAPI@@@1@ABV?$allocator@VUnitSizeType@BWAPI@@@1@@Z 004260f0 f i BWAPI:UnitSizeType.obj
 0001:000250f0       ??0?$_Tree@V?$_Tset_traits@VUnitType@BWAPI@@U?$less@VUnitType@BWAPI@@@std@@V?$allocator@VUnitType@BWAPI@@@4@$0A@@std@@@std@@QAE@ABU?$less@VUnitType@BWAPI@@@1@ABV?$allocator@VUnitType@BWAPI@@@1@@Z 004260f0 f i BWAPI:UnitType.obj
 0001:00025170       ??0UnitTypeInternal@BWAPI@@QAE@XZ 00426170 f i BWAPI:UnitType.obj
 0001:00025250       ??0WeaponTypeInternal@BWAPI@@QAE@XZ 00426250 f i BWAPI:WeaponType.obj
 0001:000252c0       ?set@WeaponTypeInternal@BWAPI@@QAEXPBDVTechType@2@HHHHVUpgradeType@2@VDamageType@2@VExplosionType@2@HHHHH_N55555555VUnitType@2@@Z 004262c0 f i BWAPI:WeaponType.obj
 0001:00025390       ??0WeaponType@BWAPI@@QAE@XZ 00426390 f   BWAPI:WeaponType.obj
 0001:000253a0       ?damageAmount@WeaponType@BWAPI@@QBEHXZ 004263a0 f   BWAPI:WeaponType.obj
 0001:000253c0       ?damageCooldown@WeaponType@BWAPI@@QBEHXZ 004263c0 f   BWAPI:WeaponType.obj
 0001:000253e0       ?maxRange@WeaponType@BWAPI@@QBEHXZ 004263e0 f   BWAPI:WeaponType.obj
 0001:00025400       ?_Inc@const_iterator@?$_Tree@V?$_Tmap_traits@V?$basic_string@DU?$char_traits@D@std@@V?$allocator@D@2@@std@@VGameType@BWAPI@@U?$less@V?$basic_string@DU?$char_traits@D@std@@V?$allocator@D@2@@std@@@2@V?$allocator@U?$pair@$$CBV?$basic_string@DU?$char_traits@D@std@@V?$allocator@D@2@@std@@VGameType@BWAPI@@@std@@@2@$0A@@std@@@std@@QAEXXZ 00426400 f i BWAPI:GameType.obj
 0001:00025400       ?_Inc@const_iterator@?$_Tree@V?$_Tmap_traits@V?$basic_string@DU?$char_traits@D@std@@V?$allocator@D@2@@std@@VTechType@BWAPI@@U?$less@V?$basic_string@DU?$char_traits@D@std@@V?$allocator@D@2@@std@@@2@V?$allocator@U?$pair@$$CBV?$basic_string@DU?$char_traits@D@std@@V?$allocator@D@2@@std@@VTechType@BWAPI@@@std@@@2@$0A@@std@@@std@@QAEXXZ 00426400 f i BWAPI:TechType.obj
 0001:00025400       ?_Inc@const_iterator@?$_Tree@V?$_Tmap_traits@V?$basic_string@DU?$char_traits@D@std@@V?$allocator@D@2@@std@@VUnitSizeType@BWAPI@@U?$less@V?$basic_string@DU?$char_traits@D@std@@V?$allocator@D@2@@std@@@2@V?$allocator@U?$pair@$$CBV?$basic_string@DU?$char_traits@D@std@@V?$allocator@D@2@@std@@VUnitSizeType@BWAPI@@@std@@@2@$0A@@std@@@std@@QAEXXZ 00426400 f i BWAPI:UnitSizeType.obj
 0001:00025400       ?_Inc@const_iterator@?$_Tree@V?$_Tmap_traits@V?$basic_string@DU?$char_traits@D@std@@V?$allocator@D@2@@std@@VBulletType@BWAPI@@U?$less@V?$basic_string@DU?$char_traits@D@std@@V?$allocator@D@2@@std@@@2@V?$allocator@U?$pair@$$CBV?$basic_string@DU?$char_traits@D@std@@V?$allocator@D@2@@std@@VBulletType@BWAPI@@@std@@@2@$0A@@std@@@std@@QAEXXZ 00426400 f i BWAPI:BulletType.obj
 0001:00025400       ?_Inc@const_iterator@?$_Tree@V?$_Tmap_traits@V?$basic_string@DU?$char_traits@D@std@@V?$allocator@D@2@@std@@VError@BWAPI@@U?$less@V?$basic_string@DU?$char_traits@D@std@@V?$allocator@D@2@@std@@@2@V?$allocator@U?$pair@$$CBV?$basic_string@DU?$char_traits@D@std@@V?$allocator@D@2@@std@@VError@BWAPI@@@std@@@2@$0A@@std@@@std@@QAEXXZ 00426400 f i BWAPI:Error.obj
 0001:00025400       ?_Inc@const_iterator@?$_Tree@V?$_Tmap_traits@V?$basic_string@DU?$char_traits@D@std@@V?$allocator@D@2@@std@@VUnitType@BWAPI@@U?$less@V?$basic_string@DU?$char_traits@D@std@@V?$allocator@D@2@@std@@@2@V?$allocator@U?$pair@$$CBV?$basic_string@DU?$char_traits@D@std@@V?$allocator@D@2@@std@@VUnitType@BWAPI@@@std@@@2@$0A@@std@@@std@@QAEXXZ 00426400 f i BWAPI:UnitType.obj
 0001:00025400       ?_Inc@const_iterator@?$_Tree@V?$_Tmap_traits@V?$basic_string@DU?$char_traits@D@std@@V?$allocator@D@2@@std@@VPlayerType@BWAPI@@U?$less@V?$basic_string@DU?$char_traits@D@std@@V?$allocator@D@2@@std@@@2@V?$allocator@U?$pair@$$CBV?$basic_string@DU?$char_traits@D@std@@V?$allocator@D@2@@std@@VPlayerType@BWAPI@@@std@@@2@$0A@@std@@@std@@QAEXXZ 00426400 f i BWAPI:PlayerType.obj
 0001:00025400       ?_Inc@const_iterator@?$_Tree@V?$_Tmap_traits@V?$basic_string@DU?$char_traits@D@std@@V?$allocator@D@2@@std@@VOrder@BWAPI@@U?$less@V?$basic_string@DU?$char_traits@D@std@@V?$allocator@D@2@@std@@@2@V?$allocator@U?$pair@$$CBV?$basic_string@DU?$char_traits@D@std@@V?$allocator@D@2@@std@@VOrder@BWAPI@@@std@@@2@$0A@@std@@@std@@QAEXXZ 00426400 f i BWAPI:Order.obj
 0001:00025400       ?_Inc@const_iterator@?$_Tree@V?$_Tmap_traits@V?$basic_string@DU?$char_traits@D@std@@V?$allocator@D@2@@std@@VUnitCommandType@BWAPI@@U?$less@V?$basic_string@DU?$char_traits@D@std@@V?$allocator@D@2@@std@@@2@V?$allocator@U?$pair@$$CBV?$basic_string@DU?$char_traits@D@std@@V?$allocator@D@2@@std@@VUnitCommandType@BWAPI@@@std@@@2@$0A@@std@@@std@@QAEXXZ 00426400 f i BWAPI:UnitCommandType.obj
 0001:00025400       ?_Inc@const_iterator@?$_Tree@V?$_Tmap_traits@V?$basic_string@DU?$char_traits@D@std@@V?$allocator@D@2@@std@@VDamageType@BWAPI@@U?$less@V?$basic_string@DU?$char_traits@D@std@@V?$allocator@D@2@@std@@@2@V?$allocator@U?$pair@$$CBV?$basic_string@DU?$char_traits@D@std@@V?$allocator@D@2@@std@@VDamageType@BWAPI@@@std@@@2@$0A@@std@@@std@@QAEXXZ 00426400 f i BWAPI:DamageType.obj
 0001:00025400       ?_Inc@const_iterator@?$_Tree@V?$_Tmap_traits@V?$basic_string@DU?$char_traits@D@std@@V?$allocator@D@2@@std@@VWeaponType@BWAPI@@U?$less@V?$basic_string@DU?$char_traits@D@std@@V?$allocator@D@2@@std@@@2@V?$allocator@U?$pair@$$CBV?$basic_string@DU?$char_traits@D@std@@V?$allocator@D@2@@std@@VWeaponType@BWAPI@@@std@@@2@$0A@@std@@@std@@QAEXXZ 00426400 f i BWAPI:WeaponType.obj
 0001:00025400       ?_Inc@const_iterator@?$_Tree@V?$_Tmap_traits@V?$basic_string@DU?$char_traits@D@std@@V?$allocator@D@2@@std@@VExplosionType@BWAPI@@U?$less@V?$basic_string@DU?$char_traits@D@std@@V?$allocator@D@2@@std@@@2@V?$allocator@U?$pair@$$CBV?$basic_string@DU?$char_traits@D@std@@V?$allocator@D@2@@std@@VExplosionType@BWAPI@@@std@@@2@$0A@@std@@@std@@QAEXXZ 00426400 f i BWAPI:ExplosionType.obj
 0001:00025400       ?_Inc@const_iterator@?$_Tree@V?$_Tmap_traits@V?$basic_string@DU?$char_traits@D@std@@V?$allocator@D@2@@std@@VUpgradeType@BWAPI@@U?$less@V?$basic_string@DU?$char_traits@D@std@@V?$allocator@D@2@@std@@@2@V?$allocator@U?$pair@$$CBV?$basic_string@DU?$char_traits@D@std@@V?$allocator@D@2@@std@@VUpgradeType@BWAPI@@@std@@@2@$0A@@std@@@std@@QAEXXZ 00426400 f i BWAPI:UpgradeType.obj
 0001:00025400       ?_Inc@const_iterator@?$_Tree@V?$_Tmap_traits@V?$basic_string@DU?$char_traits@D@std@@V?$allocator@D@2@@std@@VRace@BWAPI@@U?$less@V?$basic_string@DU?$char_traits@D@std@@V?$allocator@D@2@@std@@@2@V?$allocator@U?$pair@$$CBV?$basic_string@DU?$char_traits@D@std@@V?$allocator@D@2@@std@@VRace@BWAPI@@@std@@@2@$0A@@std@@@std@@QAEXXZ 00426400 f i BWAPI:Race.obj
 0001:000254b0       ?init@WeaponTypes@BWAPI@@YAXXZ 004264b0 f   BWAPI:WeaponType.obj
 0001:00028f50       ??0Type@BWAPI@@QAE@H@Z     00429f50 f   BWAPI:Type.obj
 0001:00028f60       ??BType@BWAPI@@QBEHXZ      00429f60 f   BWAPI:Type.obj
 0001:00028f60       ?getID@Type@BWAPI@@QBEHXZ  00429f60 f   BWAPI:Type.obj
 0001:00028f70       ?BWAPI_init@BWAPI@@YAXXZ   00429f70 f   BWAPI:BWAPI.obj
 0001:00028fc0       ??0TechType@BWAPI@@QAE@XZ  00429fc0 f   BWAPI:TechType.obj
 0001:00028fd0       ?_Rrotate@?$_Tree@V?$_Tmap_traits@V?$basic_string@DU?$char_traits@D@std@@V?$allocator@D@2@@std@@VUnitType@BWAPI@@U?$less@V?$basic_string@DU?$char_traits@D@std@@V?$allocator@D@2@@std@@@2@V?$allocator@U?$pair@$$CBV?$basic_string@DU?$char_traits@D@std@@V?$allocator@D@2@@std@@VUnitType@BWAPI@@@std@@@2@$0A@@std@@@std@@IAEXPAU_Node@?$_Tree_nod@V?$_Tmap_traits@V?$basic_string@DU?$char_traits@D@std@@V?$allocator@D@2@@std@@VUnitType@BWAPI@@U?$less@V?$basic_string@DU?$char_traits@D@std@@V?$allocator@D@2@@std@@@2@V?$allocator@U?$pair@$$CBV?$basic_string@DU?$char_traits@D@std@@V?$allocator@D@2@@std@@VUnitType@BWAPI@@@std@@@2@$0A@@std@@@2@@Z 00429fd0 f i BWAPI:UnitType.obj
 0001:00028fd0       ?_Rrotate@?$_Tree@V?$_Tmap_traits@V?$basic_string@DU?$char_traits@D@std@@V?$allocator@D@2@@std@@VTechType@BWAPI@@U?$less@V?$basic_string@DU?$char_traits@D@std@@V?$allocator@D@2@@std@@@2@V?$allocator@U?$pair@$$CBV?$basic_string@DU?$char_traits@D@std@@V?$allocator@D@2@@std@@VTechType@BWAPI@@@std@@@2@$0A@@std@@@std@@IAEXPAU_Node@?$_Tree_nod@V?$_Tmap_traits@V?$basic_string@DU?$char_traits@D@std@@V?$allocator@D@2@@std@@VTechType@BWAPI@@U?$less@V?$basic_string@DU?$char_traits@D@std@@V?$allocator@D@2@@std@@@2@V?$allocator@U?$pair@$$CBV?$basic_string@DU?$char_traits@D@std@@V?$allocator@D@2@@std@@VTechType@BWAPI@@@std@@@2@$0A@@std@@@2@@Z 00429fd0 f i BWAPI:TechType.obj
 0001:00028fd0       ?_Rrotate@?$_Tree@V?$_Tmap_traits@V?$basic_string@DU?$char_traits@D@std@@V?$allocator@D@2@@std@@VDamageType@BWAPI@@U?$less@V?$basic_string@DU?$char_traits@D@std@@V?$allocator@D@2@@std@@@2@V?$allocator@U?$pair@$$CBV?$basic_string@DU?$char_traits@D@std@@V?$allocator@D@2@@std@@VDamageType@BWAPI@@@std@@@2@$0A@@std@@@std@@IAEXPAU_Node@?$_Tree_nod@V?$_Tmap_traits@V?$basic_string@DU?$char_traits@D@std@@V?$allocator@D@2@@std@@VDamageType@BWAPI@@U?$less@V?$basic_string@DU?$char_traits@D@std@@V?$allocator@D@2@@std@@@2@V?$allocator@U?$pair@$$CBV?$basic_string@DU?$char_traits@D@std@@V?$allocator@D@2@@std@@VDamageType@BWAPI@@@std@@@2@$0A@@std@@@2@@Z 00429fd0 f i BWAPI:DamageType.obj
 0001:00028fd0       ?_Rrotate@?$_Tree@V?$_Tmap_traits@V?$basic_string@DU?$char_traits@D@std@@V?$allocator@D@2@@std@@VUnitSizeType@BWAPI@@U?$less@V?$basic_string@DU?$char_traits@D@std@@V?$allocator@D@2@@std@@@2@V?$allocator@U?$pair@$$CBV?$basic_string@DU?$char_traits@D@std@@V?$allocator@D@2@@std@@VUnitSizeType@BWAPI@@@std@@@2@$0A@@std@@@std@@IAEXPAU_Node@?$_Tree_nod@V?$_Tmap_traits@V?$basic_string@DU?$char_traits@D@std@@V?$allocator@D@2@@std@@VUnitSizeType@BWAPI@@U?$less@V?$basic_string@DU?$char_traits@D@std@@V?$allocator@D@2@@std@@@2@V?$allocator@U?$pair@$$CBV?$basic_string@DU?$char_traits@D@std@@V?$allocator@D@2@@std@@VUnitSizeType@BWAPI@@@std@@@2@$0A@@std@@@2@@Z 00429fd0 f i BWAPI:UnitSizeType.obj
 0001:00028fd0       ?_Rrotate@?$_Tree@V?$_Tmap_traits@V?$basic_string@DU?$char_traits@D@std@@V?$allocator@D@2@@std@@VRace@BWAPI@@U?$less@V?$basic_string@DU?$char_traits@D@std@@V?$allocator@D@2@@std@@@2@V?$allocator@U?$pair@$$CBV?$basic_string@DU?$char_traits@D@std@@V?$allocator@D@2@@std@@VRace@BWAPI@@@std@@@2@$0A@@std@@@std@@IAEXPAU_Node@?$_Tree_nod@V?$_Tmap_traits@V?$basic_string@DU?$char_traits@D@std@@V?$allocator@D@2@@std@@VRace@BWAPI@@U?$less@V?$basic_string@DU?$char_traits@D@std@@V?$allocator@D@2@@std@@@2@V?$allocator@U?$pair@$$CBV?$basic_string@DU?$char_traits@D@std@@V?$allocator@D@2@@std@@VRace@BWAPI@@@std@@@2@$0A@@std@@@2@@Z 00429fd0 f i BWAPI:Race.obj
 0001:00028fd0       ?_Rrotate@?$_Tree@V?$_Tmap_traits@V?$basic_string@DU?$char_traits@D@std@@V?$allocator@D@2@@std@@VError@BWAPI@@U?$less@V?$basic_string@DU?$char_traits@D@std@@V?$allocator@D@2@@std@@@2@V?$allocator@U?$pair@$$CBV?$basic_string@DU?$char_traits@D@std@@V?$allocator@D@2@@std@@VError@BWAPI@@@std@@@2@$0A@@std@@@std@@IAEXPAU_Node@?$_Tree_nod@V?$_Tmap_traits@V?$basic_string@DU?$char_traits@D@std@@V?$allocator@D@2@@std@@VError@BWAPI@@U?$less@V?$basic_string@DU?$char_traits@D@std@@V?$allocator@D@2@@std@@@2@V?$allocator@U?$pair@$$CBV?$basic_string@DU?$char_traits@D@std@@V?$allocator@D@2@@std@@VError@BWAPI@@@std@@@2@$0A@@std@@@2@@Z 00429fd0 f i BWAPI:Error.obj
 0001:00028fd0       ?_Rrotate@?$_Tree@V?$_Tmap_traits@V?$basic_string@DU?$char_traits@D@std@@V?$allocator@D@2@@std@@VWeaponType@BWAPI@@U?$less@V?$basic_string@DU?$char_traits@D@std@@V?$allocator@D@2@@std@@@2@V?$allocator@U?$pair@$$CBV?$basic_string@DU?$char_traits@D@std@@V?$allocator@D@2@@std@@VWeaponType@BWAPI@@@std@@@2@$0A@@std@@@std@@IAEXPAU_Node@?$_Tree_nod@V?$_Tmap_traits@V?$basic_string@DU?$char_traits@D@std@@V?$allocator@D@2@@std@@VWeaponType@BWAPI@@U?$less@V?$basic_string@DU?$char_traits@D@std@@V?$allocator@D@2@@std@@@2@V?$allocator@U?$pair@$$CBV?$basic_string@DU?$char_traits@D@std@@V?$allocator@D@2@@std@@VWeaponType@BWAPI@@@std@@@2@$0A@@std@@@2@@Z 00429fd0 f i BWAPI:WeaponType.obj
 0001:00028fd0       ?_Rrotate@?$_Tree@V?$_Tmap_traits@V?$basic_string@DU?$char_traits@D@std@@V?$allocator@D@2@@std@@VUnitCommandType@BWAPI@@U?$less@V?$basic_string@DU?$char_traits@D@std@@V?$allocator@D@2@@std@@@2@V?$allocator@U?$pair@$$CBV?$basic_string@DU?$char_traits@D@std@@V?$allocator@D@2@@std@@VUnitCommandType@BWAPI@@@std@@@2@$0A@@std@@@std@@IAEXPAU_Node@?$_Tree_nod@V?$_Tmap_traits@V?$basic_string@DU?$char_traits@D@std@@V?$allocator@D@2@@std@@VUnitCommandType@BWAPI@@U?$less@V?$basic_string@DU?$char_traits@D@std@@V?$allocator@D@2@@std@@@2@V?$allocator@U?$pair@$$CBV?$basic_string@DU?$char_traits@D@std@@V?$allocator@D@2@@std@@VUnitCommandType@BWAPI@@@std@@@2@$0A@@std@@@2@@Z 00429fd0 f i BWAPI:UnitCommandType.obj
 0001:00028fd0       ?_Rrotate@?$_Tree@V?$_Tmap_traits@V?$basic_string@DU?$char_traits@D@std@@V?$allocator@D@2@@std@@VBulletType@BWAPI@@U?$less@V?$basic_string@DU?$char_traits@D@std@@V?$allocator@D@2@@std@@@2@V?$allocator@U?$pair@$$CBV?$basic_string@DU?$char_traits@D@std@@V?$allocator@D@2@@std@@VBulletType@BWAPI@@@std@@@2@$0A@@std@@@std@@IAEXPAU_Node@?$_Tree_nod@V?$_Tmap_traits@V?$basic_string@DU?$char_traits@D@std@@V?$allocator@D@2@@std@@VBulletType@BWAPI@@U?$less@V?$basic_string@DU?$char_traits@D@std@@V?$allocator@D@2@@std@@@2@V?$allocator@U?$pair@$$CBV?$basic_string@DU?$char_traits@D@std@@V?$allocator@D@2@@std@@VBulletType@BWAPI@@@std@@@2@$0A@@std@@@2@@Z 00429fd0 f i BWAPI:BulletType.obj
 0001:00028fd0       ?_Rrotate@?$_Tree@V?$_Tmap_traits@V?$basic_string@DU?$char_traits@D@std@@V?$allocator@D@2@@std@@VUpgradeType@BWAPI@@U?$less@V?$basic_string@DU?$char_traits@D@std@@V?$allocator@D@2@@std@@@2@V?$allocator@U?$pair@$$CBV?$basic_string@DU?$char_traits@D@std@@V?$allocator@D@2@@std@@VUpgradeType@BWAPI@@@std@@@2@$0A@@std@@@std@@IAEXPAU_Node@?$_Tree_nod@V?$_Tmap_traits@V?$basic_string@DU?$char_traits@D@std@@V?$allocator@D@2@@std@@VUpgradeType@BWAPI@@U?$less@V?$basic_string@DU?$char_traits@D@std@@V?$allocator@D@2@@std@@@2@V?$allocator@U?$pair@$$CBV?$basic_string@DU?$char_traits@D@std@@V?$allocator@D@2@@std@@VUpgradeType@BWAPI@@@std@@@2@$0A@@std@@@2@@Z 00429fd0 f i BWAPI:UpgradeType.obj
 0001:00028fd0       ?_Rrotate@?$_Tree@V?$_Tmap_traits@V?$basic_string@DU?$char_traits@D@std@@V?$allocator@D@2@@std@@VGameType@BWAPI@@U?$less@V?$basic_string@DU?$char_traits@D@std@@V?$allocator@D@2@@std@@@2@V?$allocator@U?$pair@$$CBV?$basic_string@DU?$char_traits@D@std@@V?$allocator@D@2@@std@@VGameType@BWAPI@@@std@@@2@$0A@@std@@@std@@IAEXPAU_Node@?$_Tree_nod@V?$_Tmap_traits@V?$basic_string@DU?$char_traits@D@std@@V?$allocator@D@2@@std@@VGameType@BWAPI@@U?$less@V?$basic_string@DU?$char_traits@D@std@@V?$allocator@D@2@@std@@@2@V?$allocator@U?$pair@$$CBV?$basic_string@DU?$char_traits@D@std@@V?$allocator@D@2@@std@@VGameType@BWAPI@@@std@@@2@$0A@@std@@@2@@Z 00429fd0 f i BWAPI:GameType.obj
 0001:00028fd0       ?_Rrotate@?$_Tree@V?$_Tmap_traits@V?$basic_string@DU?$char_traits@D@std@@V?$allocator@D@2@@std@@VExplosionType@BWAPI@@U?$less@V?$basic_string@DU?$char_traits@D@std@@V?$allocator@D@2@@std@@@2@V?$allocator@U?$pair@$$CBV?$basic_string@DU?$char_traits@D@std@@V?$allocator@D@2@@std@@VExplosionType@BWAPI@@@std@@@2@$0A@@std@@@std@@IAEXPAU_Node@?$_Tree_nod@V?$_Tmap_traits@V?$basic_string@DU?$char_traits@D@std@@V?$allocator@D@2@@std@@VExplosionType@BWAPI@@U?$less@V?$basic_string@DU?$char_traits@D@std@@V?$allocator@D@2@@std@@@2@V?$allocator@U?$pair@$$CBV?$basic_string@DU?$char_traits@D@std@@V?$allocator@D@2@@std@@VExplosionType@BWAPI@@@std@@@2@$0A@@std@@@2@@Z 00429fd0 f i BWAPI:ExplosionType.obj
 0001:00028fd0       ?_Rrotate@?$_Tree@V?$_Tmap_traits@V?$basic_string@DU?$char_traits@D@std@@V?$allocator@D@2@@std@@VPlayerType@BWAPI@@U?$less@V?$basic_string@DU?$char_traits@D@std@@V?$allocator@D@2@@std@@@2@V?$allocator@U?$pair@$$CBV?$basic_string@DU?$char_traits@D@std@@V?$allocator@D@2@@std@@VPlayerType@BWAPI@@@std@@@2@$0A@@std@@@std@@IAEXPAU_Node@?$_Tree_nod@V?$_Tmap_traits@V?$basic_string@DU?$char_traits@D@std@@V?$allocator@D@2@@std@@VPlayerType@BWAPI@@U?$less@V?$basic_string@DU?$char_traits@D@std@@V?$allocator@D@2@@std@@@2@V?$allocator@U?$pair@$$CBV?$basic_string@DU?$char_traits@D@std@@V?$allocator@D@2@@std@@VPlayerType@BWAPI@@@std@@@2@$0A@@std@@@2@@Z 00429fd0 f i BWAPI:PlayerType.obj
 0001:00028fd0       ?_Rrotate@?$_Tree@V?$_Tmap_traits@V?$basic_string@DU?$char_traits@D@std@@V?$allocator@D@2@@std@@VOrder@BWAPI@@U?$less@V?$basic_string@DU?$char_traits@D@std@@V?$allocator@D@2@@std@@@2@V?$allocator@U?$pair@$$CBV?$basic_string@DU?$char_traits@D@std@@V?$allocator@D@2@@std@@VOrder@BWAPI@@@std@@@2@$0A@@std@@@std@@IAEXPAU_Node@?$_Tree_nod@V?$_Tmap_traits@V?$basic_string@DU?$char_traits@D@std@@V?$allocator@D@2@@std@@VOrder@BWAPI@@U?$less@V?$basic_string@DU?$char_traits@D@std@@V?$allocator@D@2@@std@@@2@V?$allocator@U?$pair@$$CBV?$basic_string@DU?$char_traits@D@std@@V?$allocator@D@2@@std@@VOrder@BWAPI@@@std@@@2@$0A@@std@@@2@@Z 00429fd0 f i BWAPI:Order.obj
 0001:00029030       ?_Insert@?$_Tree@V?$_Tmap_traits@V?$basic_string@DU?$char_traits@D@std@@V?$allocator@D@2@@std@@VDamageType@BWAPI@@U?$less@V?$basic_string@DU?$char_traits@D@std@@V?$allocator@D@2@@std@@@2@V?$allocator@U?$pair@$$CBV?$basic_string@DU?$char_traits@D@std@@V?$allocator@D@2@@std@@VDamageType@BWAPI@@@std@@@2@$0A@@std@@@std@@IAE?AViterator@12@_NPAU_Node@?$_Tree_nod@V?$_Tmap_traits@V?$basic_string@DU?$char_traits@D@std@@V?$allocator@D@2@@std@@VDamageType@BWAPI@@U?$less@V?$basic_string@DU?$char_traits@D@std@@V?$allocator@D@2@@std@@@2@V?$allocator@U?$pair@$$CBV?$basic_string@DU?$char_traits@D@std@@V?$allocator@D@2@@std@@VDamageType@BWAPI@@@std@@@2@$0A@@std@@@2@ABU?$pair@$$CBV?$basic_string@DU?$char_traits@D@std@@V?$allocator@D@2@@std@@VDamageType@BWAPI@@@2@@Z 0042a030 f i BWAPI:DamageType.obj
 0001:00029030       ?_Insert@?$_Tree@V?$_Tmap_traits@V?$basic_string@DU?$char_traits@D@std@@V?$allocator@D@2@@std@@VRace@BWAPI@@U?$less@V?$basic_string@DU?$char_traits@D@std@@V?$allocator@D@2@@std@@@2@V?$allocator@U?$pair@$$CBV?$basic_string@DU?$char_traits@D@std@@V?$allocator@D@2@@std@@VRace@BWAPI@@@std@@@2@$0A@@std@@@std@@IAE?AViterator@12@_NPAU_Node@?$_Tree_nod@V?$_Tmap_traits@V?$basic_string@DU?$char_traits@D@std@@V?$allocator@D@2@@std@@VRace@BWAPI@@U?$less@V?$basic_string@DU?$char_traits@D@std@@V?$allocator@D@2@@std@@@2@V?$allocator@U?$pair@$$CBV?$basic_string@DU?$char_traits@D@std@@V?$allocator@D@2@@std@@VRace@BWAPI@@@std@@@2@$0A@@std@@@2@ABU?$pair@$$CBV?$basic_string@DU?$char_traits@D@std@@V?$allocator@D@2@@std@@VRace@BWAPI@@@2@@Z 0042a030 f i BWAPI:Race.obj
 0001:00029030       ?_Insert@?$_Tree@V?$_Tmap_traits@V?$basic_string@DU?$char_traits@D@std@@V?$allocator@D@2@@std@@VExplosionType@BWAPI@@U?$less@V?$basic_string@DU?$char_traits@D@std@@V?$allocator@D@2@@std@@@2@V?$allocator@U?$pair@$$CBV?$basic_string@DU?$char_traits@D@std@@V?$allocator@D@2@@std@@VExplosionType@BWAPI@@@std@@@2@$0A@@std@@@std@@IAE?AViterator@12@_NPAU_Node@?$_Tree_nod@V?$_Tmap_traits@V?$basic_string@DU?$char_traits@D@std@@V?$allocator@D@2@@std@@VExplosionType@BWAPI@@U?$less@V?$basic_string@DU?$char_traits@D@std@@V?$allocator@D@2@@std@@@2@V?$allocator@U?$pair@$$CBV?$basic_string@DU?$char_traits@D@std@@V?$allocator@D@2@@std@@VExplosionType@BWAPI@@@std@@@2@$0A@@std@@@2@ABU?$pair@$$CBV?$basic_string@DU?$char_traits@D@std@@V?$allocator@D@2@@std@@VExplosionType@BWAPI@@@2@@Z 0042a030 f i BWAPI:ExplosionType.obj
 0001:00029030       ?_Insert@?$_Tree@V?$_Tmap_traits@V?$basic_string@DU?$char_traits@D@std@@V?$allocator@D@2@@std@@VBulletType@BWAPI@@U?$less@V?$basic_string@DU?$char_traits@D@std@@V?$allocator@D@2@@std@@@2@V?$allocator@U?$pair@$$CBV?$basic_string@DU?$char_traits@D@std@@V?$allocator@D@2@@std@@VBulletType@BWAPI@@@std@@@2@$0A@@std@@@std@@IAE?AViterator@12@_NPAU_Node@?$_Tree_nod@V?$_Tmap_traits@V?$basic_string@DU?$char_traits@D@std@@V?$allocator@D@2@@std@@VBulletType@BWAPI@@U?$less@V?$basic_string@DU?$char_traits@D@std@@V?$allocator@D@2@@std@@@2@V?$allocator@U?$pair@$$CBV?$basic_string@DU?$char_traits@D@std@@V?$allocator@D@2@@std@@VBulletType@BWAPI@@@std@@@2@$0A@@std@@@2@ABU?$pair@$$CBV?$basic_string@DU?$char_traits@D@std@@V?$allocator@D@2@@std@@VBulletType@BWAPI@@@2@@Z 0042a030 f i BWAPI:BulletType.obj
 0001:00029030       ?_Insert@?$_Tree@V?$_Tmap_traits@V?$basic_string@DU?$char_traits@D@std@@V?$allocator@D@2@@std@@VWeaponType@BWAPI@@U?$less@V?$basic_string@DU?$char_traits@D@std@@V?$allocator@D@2@@std@@@2@V?$allocator@U?$pair@$$CBV?$basic_string@DU?$char_traits@D@std@@V?$allocator@D@2@@std@@VWeaponType@BWAPI@@@std@@@2@$0A@@std@@@std@@IAE?AViterator@12@_NPAU_Node@?$_Tree_nod@V?$_Tmap_traits@V?$basic_string@DU?$char_traits@D@std@@V?$allocator@D@2@@std@@VWeaponType@BWAPI@@U?$less@V?$basic_string@DU?$char_traits@D@std@@V?$allocator@D@2@@std@@@2@V?$allocator@U?$pair@$$CBV?$basic_string@DU?$char_traits@D@std@@V?$allocator@D@2@@std@@VWeaponType@BWAPI@@@std@@@2@$0A@@std@@@2@ABU?$pair@$$CBV?$basic_string@DU?$char_traits@D@std@@V?$allocator@D@2@@std@@VWeaponType@BWAPI@@@2@@Z 0042a030 f i BWAPI:WeaponType.obj
 0001:00029030       ?_Insert@?$_Tree@V?$_Tmap_traits@V?$basic_string@DU?$char_traits@D@std@@V?$allocator@D@2@@std@@VUnitSizeType@BWAPI@@U?$less@V?$basic_string@DU?$char_traits@D@std@@V?$allocator@D@2@@std@@@2@V?$allocator@U?$pair@$$CBV?$basic_string@DU?$char_traits@D@std@@V?$allocator@D@2@@std@@VUnitSizeType@BWAPI@@@std@@@2@$0A@@std@@@std@@IAE?AViterator@12@_NPAU_Node@?$_Tree_nod@V?$_Tmap_traits@V?$basic_string@DU?$char_traits@D@std@@V?$allocator@D@2@@std@@VUnitSizeType@BWAPI@@U?$less@V?$basic_string@DU?$char_traits@D@std@@V?$allocator@D@2@@std@@@2@V?$allocator@U?$pair@$$CBV?$basic_string@DU?$char_traits@D@std@@V?$allocator@D@2@@std@@VUnitSizeType@BWAPI@@@std@@@2@$0A@@std@@@2@ABU?$pair@$$CBV?$basic_string@DU?$char_traits@D@std@@V?$allocator@D@2@@std@@VUnitSizeType@BWAPI@@@2@@Z 0042a030 f i BWAPI:UnitSizeType.obj
 0001:00029030       ?_Insert@?$_Tree@V?$_Tmap_traits@V?$basic_string@DU?$char_traits@D@std@@V?$allocator@D@2@@std@@VError@BWAPI@@U?$less@V?$basic_string@DU?$char_traits@D@std@@V?$allocator@D@2@@std@@@2@V?$allocator@U?$pair@$$CBV?$basic_string@DU?$char_traits@D@std@@V?$allocator@D@2@@std@@VError@BWAPI@@@std@@@2@$0A@@std@@@std@@IAE?AViterator@12@_NPAU_Node@?$_Tree_nod@V?$_Tmap_traits@V?$basic_string@DU?$char_traits@D@std@@V?$allocator@D@2@@std@@VError@BWAPI@@U?$less@V?$basic_string@DU?$char_traits@D@std@@V?$allocator@D@2@@std@@@2@V?$allocator@U?$pair@$$CBV?$basic_string@DU?$char_traits@D@std@@V?$allocator@D@2@@std@@VError@BWAPI@@@std@@@2@$0A@@std@@@2@ABU?$pair@$$CBV?$basic_string@DU?$char_traits@D@std@@V?$allocator@D@2@@std@@VError@BWAPI@@@2@@Z 0042a030 f i BWAPI:Error.obj
 0001:00029030       ?_Insert@?$_Tree@V?$_Tmap_traits@V?$basic_string@DU?$char_traits@D@std@@V?$allocator@D@2@@std@@VUpgradeType@BWAPI@@U?$less@V?$basic_string@DU?$char_traits@D@std@@V?$allocator@D@2@@std@@@2@V?$allocator@U?$pair@$$CBV?$basic_string@DU?$char_traits@D@std@@V?$allocator@D@2@@std@@VUpgradeType@BWAPI@@@std@@@2@$0A@@std@@@std@@IAE?AViterator@12@_NPAU_Node@?$_Tree_nod@V?$_Tmap_traits@V?$basic_string@DU?$char_traits@D@std@@V?$allocator@D@2@@std@@VUpgradeType@BWAPI@@U?$less@V?$basic_string@DU?$char_traits@D@std@@V?$allocator@D@2@@std@@@2@V?$allocator@U?$pair@$$CBV?$basic_string@DU?$char_traits@D@std@@V?$allocator@D@2@@std@@VUpgradeType@BWAPI@@@std@@@2@$0A@@std@@@2@ABU?$pair@$$CBV?$basic_string@DU?$char_traits@D@std@@V?$allocator@D@2@@std@@VUpgradeType@BWAPI@@@2@@Z 0042a030 f i BWAPI:UpgradeType.obj
 0001:00029030       ?_Insert@?$_Tree@V?$_Tmap_traits@V?$basic_string@DU?$char_traits@D@std@@V?$allocator@D@2@@std@@VUnitType@BWAPI@@U?$less@V?$basic_string@DU?$char_traits@D@std@@V?$allocator@D@2@@std@@@2@V?$allocator@U?$pair@$$CBV?$basic_string@DU?$char_traits@D@std@@V?$allocator@D@2@@std@@VUnitType@BWAPI@@@std@@@2@$0A@@std@@@std@@IAE?AViterator@12@_NPAU_Node@?$_Tree_nod@V?$_Tmap_traits@V?$basic_string@DU?$char_traits@D@std@@V?$allocator@D@2@@std@@VUnitType@BWAPI@@U?$less@V?$basic_string@DU?$char_traits@D@std@@V?$allocator@D@2@@std@@@2@V?$allocator@U?$pair@$$CBV?$basic_string@DU?$char_traits@D@std@@V?$allocator@D@2@@std@@VUnitType@BWAPI@@@std@@@2@$0A@@std@@@2@ABU?$pair@$$CBV?$basic_string@DU?$char_traits@D@std@@V?$allocator@D@2@@std@@VUnitType@BWAPI@@@2@@Z 0042a030 f i BWAPI:UnitType.obj
 0001:00029030       ?_Insert@?$_Tree@V?$_Tmap_traits@V?$basic_string@DU?$char_traits@D@std@@V?$allocator@D@2@@std@@VPlayerType@BWAPI@@U?$less@V?$basic_string@DU?$char_traits@D@std@@V?$allocator@D@2@@std@@@2@V?$allocator@U?$pair@$$CBV?$basic_string@DU?$char_traits@D@std@@V?$allocator@D@2@@std@@VPlayerType@BWAPI@@@std@@@2@$0A@@std@@@std@@IAE?AViterator@12@_NPAU_Node@?$_Tree_nod@V?$_Tmap_traits@V?$basic_string@DU?$char_traits@D@std@@V?$allocator@D@2@@std@@VPlayerType@BWAPI@@U?$less@V?$basic_string@DU?$char_traits@D@std@@V?$allocator@D@2@@std@@@2@V?$allocator@U?$pair@$$CBV?$basic_string@DU?$char_traits@D@std@@V?$allocator@D@2@@std@@VPlayerType@BWAPI@@@std@@@2@$0A@@std@@@2@ABU?$pair@$$CBV?$basic_string@DU?$char_traits@D@std@@V?$allocator@D@2@@std@@VPlayerType@BWAPI@@@2@@Z 0042a030 f i BWAPI:PlayerType.obj
 0001:00029030       ?_Insert@?$_Tree@V?$_Tmap_traits@V?$basic_string@DU?$char_traits@D@std@@V?$allocator@D@2@@std@@VGameType@BWAPI@@U?$less@V?$basic_string@DU?$char_traits@D@std@@V?$allocator@D@2@@std@@@2@V?$allocator@U?$pair@$$CBV?$basic_string@DU?$char_traits@D@std@@V?$allocator@D@2@@std@@VGameType@BWAPI@@@std@@@2@$0A@@std@@@std@@IAE?AViterator@12@_NPAU_Node@?$_Tree_nod@V?$_Tmap_traits@V?$basic_string@DU?$char_traits@D@std@@V?$allocator@D@2@@std@@VGameType@BWAPI@@U?$less@V?$basic_string@DU?$char_traits@D@std@@V?$allocator@D@2@@std@@@2@V?$allocator@U?$pair@$$CBV?$basic_string@DU?$char_traits@D@std@@V?$allocator@D@2@@std@@VGameType@BWAPI@@@std@@@2@$0A@@std@@@2@ABU?$pair@$$CBV?$basic_string@DU?$char_traits@D@std@@V?$allocator@D@2@@std@@VGameType@BWAPI@@@2@@Z 0042a030 f i BWAPI:GameType.obj
 0001:00029030       ?_Insert@?$_Tree@V?$_Tmap_traits@V?$basic_string@DU?$char_traits@D@std@@V?$allocator@D@2@@std@@VUnitCommandType@BWAPI@@U?$less@V?$basic_string@DU?$char_traits@D@std@@V?$allocator@D@2@@std@@@2@V?$allocator@U?$pair@$$CBV?$basic_string@DU?$char_traits@D@std@@V?$allocator@D@2@@std@@VUnitCommandType@BWAPI@@@std@@@2@$0A@@std@@@std@@IAE?AViterator@12@_NPAU_Node@?$_Tree_nod@V?$_Tmap_traits@V?$basic_string@DU?$char_traits@D@std@@V?$allocator@D@2@@std@@VUnitCommandType@BWAPI@@U?$less@V?$basic_string@DU?$char_traits@D@std@@V?$allocator@D@2@@std@@@2@V?$allocator@U?$pair@$$CBV?$basic_string@DU?$char_traits@D@std@@V?$allocator@D@2@@std@@VUnitCommandType@BWAPI@@@std@@@2@$0A@@std@@@2@ABU?$pair@$$CBV?$basic_string@DU?$char_traits@D@std@@V?$allocator@D@2@@std@@VUnitCommandType@BWAPI@@@2@@Z 0042a030 f i BWAPI:UnitCommandType.obj
 0001:00029030       ?_Insert@?$_Tree@V?$_Tmap_traits@V?$basic_string@DU?$char_traits@D@std@@V?$allocator@D@2@@std@@VTechType@BWAPI@@U?$less@V?$basic_string@DU?$char_traits@D@std@@V?$allocator@D@2@@std@@@2@V?$allocator@U?$pair@$$CBV?$basic_string@DU?$char_traits@D@std@@V?$allocator@D@2@@std@@VTechType@BWAPI@@@std@@@2@$0A@@std@@@std@@IAE?AViterator@12@_NPAU_Node@?$_Tree_nod@V?$_Tmap_traits@V?$basic_string@DU?$char_traits@D@std@@V?$allocator@D@2@@std@@VTechType@BWAPI@@U?$less@V?$basic_string@DU?$char_traits@D@std@@V?$allocator@D@2@@std@@@2@V?$allocator@U?$pair@$$CBV?$basic_string@DU?$char_traits@D@std@@V?$allocator@D@2@@std@@VTechType@BWAPI@@@std@@@2@$0A@@std@@@2@ABU?$pair@$$CBV?$basic_string@DU?$char_traits@D@std@@V?$allocator@D@2@@std@@VTechType@BWAPI@@@2@@Z 0042a030 f i BWAPI:TechType.obj
 0001:00029030       ?_Insert@?$_Tree@V?$_Tmap_traits@V?$basic_string@DU?$char_traits@D@std@@V?$allocator@D@2@@std@@VOrder@BWAPI@@U?$less@V?$basic_string@DU?$char_traits@D@std@@V?$allocator@D@2@@std@@@2@V?$allocator@U?$pair@$$CBV?$basic_string@DU?$char_traits@D@std@@V?$allocator@D@2@@std@@VOrder@BWAPI@@@std@@@2@$0A@@std@@@std@@IAE?AViterator@12@_NPAU_Node@?$_Tree_nod@V?$_Tmap_traits@V?$basic_string@DU?$char_traits@D@std@@V?$allocator@D@2@@std@@VOrder@BWAPI@@U?$less@V?$basic_string@DU?$char_traits@D@std@@V?$allocator@D@2@@std@@@2@V?$allocator@U?$pair@$$CBV?$basic_string@DU?$char_traits@D@std@@V?$allocator@D@2@@std@@VOrder@BWAPI@@@std@@@2@$0A@@std@@@2@ABU?$pair@$$CBV?$basic_string@DU?$char_traits@D@std@@V?$allocator@D@2@@std@@VOrder@BWAPI@@@2@@Z 0042a030 f i BWAPI:Order.obj
 0001:00029230       ?_Erase@?$_Tree@V?$_Tmap_traits@V?$basic_string@DU?$char_traits@D@std@@V?$allocator@D@2@@std@@VPlayerType@BWAPI@@U?$less@V?$basic_string@DU?$char_traits@D@std@@V?$allocator@D@2@@std@@@2@V?$allocator@U?$pair@$$CBV?$basic_string@DU?$char_traits@D@std@@V?$allocator@D@2@@std@@VPlayerType@BWAPI@@@std@@@2@$0A@@std@@@std@@IAEXPAU_Node@?$_Tree_nod@V?$_Tmap_traits@V?$basic_string@DU?$char_traits@D@std@@V?$allocator@D@2@@std@@VPlayerType@BWAPI@@U?$less@V?$basic_string@DU?$char_traits@D@std@@V?$allocator@D@2@@std@@@2@V?$allocator@U?$pair@$$CBV?$basic_string@DU?$char_traits@D@std@@V?$allocator@D@2@@std@@VPlayerType@BWAPI@@@std@@@2@$0A@@std@@@2@@Z 0042a230 f i BWAPI:PlayerType.obj
 0001:00029230       ?_Erase@?$_Tree@V?$_Tmap_traits@V?$basic_string@DU?$char_traits@D@std@@V?$allocator@D@2@@std@@VError@BWAPI@@U?$less@V?$basic_string@DU?$char_traits@D@std@@V?$allocator@D@2@@std@@@2@V?$allocator@U?$pair@$$CBV?$basic_string@DU?$char_traits@D@std@@V?$allocator@D@2@@std@@VError@BWAPI@@@std@@@2@$0A@@std@@@std@@IAEXPAU_Node@?$_Tree_nod@V?$_Tmap_traits@V?$basic_string@DU?$char_traits@D@std@@V?$allocator@D@2@@std@@VError@BWAPI@@U?$less@V?$basic_string@DU?$char_traits@D@std@@V?$allocator@D@2@@std@@@2@V?$allocator@U?$pair@$$CBV?$basic_string@DU?$char_traits@D@std@@V?$allocator@D@2@@std@@VError@BWAPI@@@std@@@2@$0A@@std@@@2@@Z 0042a230 f i BWAPI:Error.obj
 0001:00029230       ?_Erase@?$_Tree@V?$_Tmap_traits@V?$basic_string@DU?$char_traits@D@std@@V?$allocator@D@2@@std@@VExplosionType@BWAPI@@U?$less@V?$basic_string@DU?$char_traits@D@std@@V?$allocator@D@2@@std@@@2@V?$allocator@U?$pair@$$CBV?$basic_string@DU?$char_traits@D@std@@V?$allocator@D@2@@std@@VExplosionType@BWAPI@@@std@@@2@$0A@@std@@@std@@IAEXPAU_Node@?$_Tree_nod@V?$_Tmap_traits@V?$basic_string@DU?$char_traits@D@std@@V?$allocator@D@2@@std@@VExplosionType@BWAPI@@U?$less@V?$basic_string@DU?$char_traits@D@std@@V?$allocator@D@2@@std@@@2@V?$allocator@U?$pair@$$CBV?$basic_string@DU?$char_traits@D@std@@V?$allocator@D@2@@std@@VExplosionType@BWAPI@@@std@@@2@$0A@@std@@@2@@Z 0042a230 f i BWAPI:ExplosionType.obj
 0001:00029230       ?_Erase@?$_Tree@V?$_Tmap_traits@V?$basic_string@DU?$char_traits@D@std@@V?$allocator@D@2@@std@@VUnitCommandType@BWAPI@@U?$less@V?$basic_string@DU?$char_traits@D@std@@V?$allocator@D@2@@std@@@2@V?$allocator@U?$pair@$$CBV?$basic_string@DU?$char_traits@D@std@@V?$allocator@D@2@@std@@VUnitCommandType@BWAPI@@@std@@@2@$0A@@std@@@std@@IAEXPAU_Node@?$_Tree_nod@V?$_Tmap_traits@V?$basic_string@DU?$char_traits@D@std@@V?$allocator@D@2@@std@@VUnitCommandType@BWAPI@@U?$less@V?$basic_string@DU?$char_traits@D@std@@V?$allocator@D@2@@std@@@2@V?$allocator@U?$pair@$$CBV?$basic_string@DU?$char_traits@D@std@@V?$allocator@D@2@@std@@VUnitCommandType@BWAPI@@@std@@@2@$0A@@std@@@2@@Z 0042a230 f i BWAPI:UnitCommandType.obj
 0001:00029230       ?_Erase@?$_Tree@V?$_Tmap_traits@V?$basic_string@DU?$char_traits@D@std@@V?$allocator@D@2@@std@@VGameType@BWAPI@@U?$less@V?$basic_string@DU?$char_traits@D@std@@V?$allocator@D@2@@std@@@2@V?$allocator@U?$pair@$$CBV?$basic_string@DU?$char_traits@D@std@@V?$allocator@D@2@@std@@VGameType@BWAPI@@@std@@@2@$0A@@std@@@std@@IAEXPAU_Node@?$_Tree_nod@V?$_Tmap_traits@V?$basic_string@DU?$char_traits@D@std@@V?$allocator@D@2@@std@@VGameType@BWAPI@@U?$less@V?$basic_string@DU?$char_traits@D@std@@V?$allocator@D@2@@std@@@2@V?$allocator@U?$pair@$$CBV?$basic_string@DU?$char_traits@D@std@@V?$allocator@D@2@@std@@VGameType@BWAPI@@@std@@@2@$0A@@std@@@2@@Z 0042a230 f i BWAPI:GameType.obj
 0001:00029230       ?_Erase@?$_Tree@V?$_Tmap_traits@V?$basic_string@DU?$char_traits@D@std@@V?$allocator@D@2@@std@@VUpgradeType@BWAPI@@U?$less@V?$basic_string@DU?$char_traits@D@std@@V?$allocator@D@2@@std@@@2@V?$allocator@U?$pair@$$CBV?$basic_string@DU?$char_traits@D@std@@V?$allocator@D@2@@std@@VUpgradeType@BWAPI@@@std@@@2@$0A@@std@@@std@@IAEXPAU_Node@?$_Tree_nod@V?$_Tmap_traits@V?$basic_string@DU?$char_traits@D@std@@V?$allocator@D@2@@std@@VUpgradeType@BWAPI@@U?$less@V?$basic_string@DU?$char_traits@D@std@@V?$allocator@D@2@@std@@@2@V?$allocator@U?$pair@$$CBV?$basic_string@DU?$char_traits@D@std@@V?$allocator@D@2@@std@@VUpgradeType@BWAPI@@@std@@@2@$0A@@std@@@2@@Z 0042a230 f i BWAPI:UpgradeType.obj
 0001:00029230       ?_Erase@?$_Tree@V?$_Tmap_traits@V?$basic_string@DU?$char_traits@D@std@@V?$allocator@D@2@@std@@VUnitSizeType@BWAPI@@U?$less@V?$basic_string@DU?$char_traits@D@std@@V?$allocator@D@2@@std@@@2@V?$allocator@U?$pair@$$CBV?$basic_string@DU?$char_traits@D@std@@V?$allocator@D@2@@std@@VUnitSizeType@BWAPI@@@std@@@2@$0A@@std@@@std@@IAEXPAU_Node@?$_Tree_nod@V?$_Tmap_traits@V?$basic_string@DU?$char_traits@D@std@@V?$allocator@D@2@@std@@VUnitSizeType@BWAPI@@U?$less@V?$basic_string@DU?$char_traits@D@std@@V?$allocator@D@2@@std@@@2@V?$allocator@U?$pair@$$CBV?$basic_string@DU?$char_traits@D@std@@V?$allocator@D@2@@std@@VUnitSizeType@BWAPI@@@std@@@2@$0A@@std@@@2@@Z 0042a230 f i BWAPI:UnitSizeType.obj
 0001:00029230       ?_Erase@?$_Tree@V?$_Tmap_traits@V?$basic_string@DU?$char_traits@D@std@@V?$allocator@D@2@@std@@VWeaponType@BWAPI@@U?$less@V?$basic_string@DU?$char_traits@D@std@@V?$allocator@D@2@@std@@@2@V?$allocator@U?$pair@$$CBV?$basic_string@DU?$char_traits@D@std@@V?$allocator@D@2@@std@@VWeaponType@BWAPI@@@std@@@2@$0A@@std@@@std@@IAEXPAU_Node@?$_Tree_nod@V?$_Tmap_traits@V?$basic_string@DU?$char_traits@D@std@@V?$allocator@D@2@@std@@VWeaponType@BWAPI@@U?$less@V?$basic_string@DU?$char_traits@D@std@@V?$allocator@D@2@@std@@@2@V?$allocator@U?$pair@$$CBV?$basic_string@DU?$char_traits@D@std@@V?$allocator@D@2@@std@@VWeaponType@BWAPI@@@std@@@2@$0A@@std@@@2@@Z 0042a230 f i BWAPI:WeaponType.obj
 0001:00029230       ?_Erase@?$_Tree@V?$_Tmap_traits@V?$basic_string@DU?$char_traits@D@std@@V?$allocator@D@2@@std@@VBulletType@BWAPI@@U?$less@V?$basic_string@DU?$char_traits@D@std@@V?$allocator@D@2@@std@@@2@V?$allocator@U?$pair@$$CBV?$basic_string@DU?$char_traits@D@std@@V?$allocator@D@2@@std@@VBulletType@BWAPI@@@std@@@2@$0A@@std@@@std@@IAEXPAU_Node@?$_Tree_nod@V?$_Tmap_traits@V?$basic_string@DU?$char_traits@D@std@@V?$allocator@D@2@@std@@VBulletType@BWAPI@@U?$less@V?$basic_string@DU?$char_traits@D@std@@V?$allocator@D@2@@std@@@2@V?$allocator@U?$pair@$$CBV?$basic_string@DU?$char_traits@D@std@@V?$allocator@D@2@@std@@VBulletType@BWAPI@@@std@@@2@$0A@@std@@@2@@Z 0042a230 f i BWAPI:BulletType.obj
 0001:00029230       ?_Erase@?$_Tree@V?$_Tmap_traits@V?$basic_string@DU?$char_traits@D@std@@V?$allocator@D@2@@std@@VTechType@BWAPI@@U?$less@V?$basic_string@DU?$char_traits@D@std@@V?$allocator@D@2@@std@@@2@V?$allocator@U?$pair@$$CBV?$basic_string@DU?$char_traits@D@std@@V?$allocator@D@2@@std@@VTechType@BWAPI@@@std@@@2@$0A@@std@@@std@@IAEXPAU_Node@?$_Tree_nod@V?$_Tmap_traits@V?$basic_string@DU?$char_traits@D@std@@V?$allocator@D@2@@std@@VTechType@BWAPI@@U?$less@V?$basic_string@DU?$char_traits@D@std@@V?$allocator@D@2@@std@@@2@V?$allocator@U?$pair@$$CBV?$basic_string@DU?$char_traits@D@std@@V?$allocator@D@2@@std@@VTechType@BWAPI@@@std@@@2@$0A@@std@@@2@@Z 0042a230 f i BWAPI:TechType.obj
 0001:00029230       ?_Erase@?$_Tree@V?$_Tmap_traits@V?$basic_string@DU?$char_traits@D@std@@V?$allocator@D@2@@std@@VDamageType@BWAPI@@U?$less@V?$basic_string@DU?$char_traits@D@std@@V?$allocator@D@2@@std@@@2@V?$allocator@U?$pair@$$CBV?$basic_string@DU?$char_traits@D@std@@V?$allocator@D@2@@std@@VDamageType@BWAPI@@@std@@@2@$0A@@std@@@std@@IAEXPAU_Node@?$_Tree_nod@V?$_Tmap_traits@V?$basic_string@DU?$char_traits@D@std@@V?$allocator@D@2@@std@@VDamageType@BWAPI@@U?$less@V?$basic_string@DU?$char_traits@D@std@@V?$allocator@D@2@@std@@@2@V?$allocator@U?$pair@$$CBV?$basic_string@DU?$char_traits@D@std@@V?$allocator@D@2@@std@@VDamageType@BWAPI@@@std@@@2@$0A@@std@@@2@@Z 0042a230 f i BWAPI:DamageType.obj
 0001:00029230       ?_Erase@?$_Tree@V?$_Tmap_traits@V?$basic_string@DU?$char_traits@D@std@@V?$allocator@D@2@@std@@VOrder@BWAPI@@U?$less@V?$basic_string@DU?$char_traits@D@std@@V?$allocator@D@2@@std@@@2@V?$allocator@U?$pair@$$CBV?$basic_string@DU?$char_traits@D@std@@V?$allocator@D@2@@std@@VOrder@BWAPI@@@std@@@2@$0A@@std@@@std@@IAEXPAU_Node@?$_Tree_nod@V?$_Tmap_traits@V?$basic_string@DU?$char_traits@D@std@@V?$allocator@D@2@@std@@VOrder@BWAPI@@U?$less@V?$basic_string@DU?$char_traits@D@std@@V?$allocator@D@2@@std@@@2@V?$allocator@U?$pair@$$CBV?$basic_string@DU?$char_traits@D@std@@V?$allocator@D@2@@std@@VOrder@BWAPI@@@std@@@2@$0A@@std@@@2@@Z 0042a230 f i BWAPI:Order.obj
 0001:00029230       ?_Erase@?$_Tree@V?$_Tmap_traits@V?$basic_string@DU?$char_traits@D@std@@V?$allocator@D@2@@std@@VRace@BWAPI@@U?$less@V?$basic_string@DU?$char_traits@D@std@@V?$allocator@D@2@@std@@@2@V?$allocator@U?$pair@$$CBV?$basic_string@DU?$char_traits@D@std@@V?$allocator@D@2@@std@@VRace@BWAPI@@@std@@@2@$0A@@std@@@std@@IAEXPAU_Node@?$_Tree_nod@V?$_Tmap_traits@V?$basic_string@DU?$char_traits@D@std@@V?$allocator@D@2@@std@@VRace@BWAPI@@U?$less@V?$basic_string@DU?$char_traits@D@std@@V?$allocator@D@2@@std@@@2@V?$allocator@U?$pair@$$CBV?$basic_string@DU?$char_traits@D@std@@V?$allocator@D@2@@std@@VRace@BWAPI@@@std@@@2@$0A@@std@@@2@@Z 0042a230 f i BWAPI:Race.obj
 0001:00029230       ?_Erase@?$_Tree@V?$_Tmap_traits@V?$basic_string@DU?$char_traits@D@std@@V?$allocator@D@2@@std@@VUnitType@BWAPI@@U?$less@V?$basic_string@DU?$char_traits@D@std@@V?$allocator@D@2@@std@@@2@V?$allocator@U?$pair@$$CBV?$basic_string@DU?$char_traits@D@std@@V?$allocator@D@2@@std@@VUnitType@BWAPI@@@std@@@2@$0A@@std@@@std@@IAEXPAU_Node@?$_Tree_nod@V?$_Tmap_traits@V?$basic_string@DU?$char_traits@D@std@@V?$allocator@D@2@@std@@VUnitType@BWAPI@@U?$less@V?$basic_string@DU?$char_traits@D@std@@V?$allocator@D@2@@std@@@2@V?$allocator@U?$pair@$$CBV?$basic_string@DU?$char_traits@D@std@@V?$allocator@D@2@@std@@VUnitType@BWAPI@@@std@@@2@$0A@@std@@@2@@Z 0042a230 f i BWAPI:UnitType.obj
 0001:00029270       ?insert@?$_Tree@V?$_Tmap_traits@V?$basic_string@DU?$char_traits@D@std@@V?$allocator@D@2@@std@@VError@BWAPI@@U?$less@V?$basic_string@DU?$char_traits@D@std@@V?$allocator@D@2@@std@@@2@V?$allocator@U?$pair@$$CBV?$basic_string@DU?$char_traits@D@std@@V?$allocator@D@2@@std@@VError@BWAPI@@@std@@@2@$0A@@std@@@std@@QAE?AU?$pair@Viterator@?$_Tree@V?$_Tmap_traits@V?$basic_string@DU?$char_traits@D@std@@V?$allocator@D@2@@std@@VError@BWAPI@@U?$less@V?$basic_string@DU?$char_traits@D@std@@V?$allocator@D@2@@std@@@2@V?$allocator@U?$pair@$$CBV?$basic_string@DU?$char_traits@D@std@@V?$allocator@D@2@@std@@VError@BWAPI@@@std@@@2@$0A@@std@@@std@@_N@2@ABU?$pair@$$CBV?$basic_string@DU?$char_traits@D@std@@V?$allocator@D@2@@std@@VError@BWAPI@@@2@@Z 0042a270 f i BWAPI:Error.obj
 0001:00029270       ?insert@?$_Tree@V?$_Tmap_traits@V?$basic_string@DU?$char_traits@D@std@@V?$allocator@D@2@@std@@VDamageType@BWAPI@@U?$less@V?$basic_string@DU?$char_traits@D@std@@V?$allocator@D@2@@std@@@2@V?$allocator@U?$pair@$$CBV?$basic_string@DU?$char_traits@D@std@@V?$allocator@D@2@@std@@VDamageType@BWAPI@@@std@@@2@$0A@@std@@@std@@QAE?AU?$pair@Viterator@?$_Tree@V?$_Tmap_traits@V?$basic_string@DU?$char_traits@D@std@@V?$allocator@D@2@@std@@VDamageType@BWAPI@@U?$less@V?$basic_string@DU?$char_traits@D@std@@V?$allocator@D@2@@std@@@2@V?$allocator@U?$pair@$$CBV?$basic_string@DU?$char_traits@D@std@@V?$allocator@D@2@@std@@VDamageType@BWAPI@@@std@@@2@$0A@@std@@@std@@_N@2@ABU?$pair@$$CBV?$basic_string@DU?$char_traits@D@std@@V?$allocator@D@2@@std@@VDamageType@BWAPI@@@2@@Z 0042a270 f i BWAPI:DamageType.obj
 0001:00029270       ?insert@?$_Tree@V?$_Tmap_traits@V?$basic_string@DU?$char_traits@D@std@@V?$allocator@D@2@@std@@VUnitCommandType@BWAPI@@U?$less@V?$basic_string@DU?$char_traits@D@std@@V?$allocator@D@2@@std@@@2@V?$allocator@U?$pair@$$CBV?$basic_string@DU?$char_traits@D@std@@V?$allocator@D@2@@std@@VUnitCommandType@BWAPI@@@std@@@2@$0A@@std@@@std@@QAE?AU?$pair@Viterator@?$_Tree@V?$_Tmap_traits@V?$basic_string@DU?$char_traits@D@std@@V?$allocator@D@2@@std@@VUnitCommandType@BWAPI@@U?$less@V?$basic_string@DU?$char_traits@D@std@@V?$allocator@D@2@@std@@@2@V?$allocator@U?$pair@$$CBV?$basic_string@DU?$char_traits@D@std@@V?$allocator@D@2@@std@@VUnitCommandType@BWAPI@@@std@@@2@$0A@@std@@@std@@_N@2@ABU?$pair@$$CBV?$basic_string@DU?$char_traits@D@std@@V?$allocator@D@2@@std@@VUnitCommandType@BWAPI@@@2@@Z 0042a270 f i BWAPI:UnitCommandType.obj
 0001:00029270       ?insert@?$_Tree@V?$_Tmap_traits@V?$basic_string@DU?$char_traits@D@std@@V?$allocator@D@2@@std@@VTechType@BWAPI@@U?$less@V?$basic_string@DU?$char_traits@D@std@@V?$allocator@D@2@@std@@@2@V?$allocator@U?$pair@$$CBV?$basic_string@DU?$char_traits@D@std@@V?$allocator@D@2@@std@@VTechType@BWAPI@@@std@@@2@$0A@@std@@@std@@QAE?AU?$pair@Viterator@?$_Tree@V?$_Tmap_traits@V?$basic_string@DU?$char_traits@D@std@@V?$allocator@D@2@@std@@VTechType@BWAPI@@U?$less@V?$basic_string@DU?$char_traits@D@std@@V?$allocator@D@2@@std@@@2@V?$allocator@U?$pair@$$CBV?$basic_string@DU?$char_traits@D@std@@V?$allocator@D@2@@std@@VTechType@BWAPI@@@std@@@2@$0A@@std@@@std@@_N@2@ABU?$pair@$$CBV?$basic_string@DU?$char_traits@D@std@@V?$allocator@D@2@@std@@VTechType@BWAPI@@@2@@Z 0042a270 f i BWAPI:TechType.obj
 0001:00029270       ?insert@?$_Tree@V?$_Tmap_traits@V?$basic_string@DU?$char_traits@D@std@@V?$allocator@D@2@@std@@VUpgradeType@BWAPI@@U?$less@V?$basic_string@DU?$char_traits@D@std@@V?$allocator@D@2@@std@@@2@V?$allocator@U?$pair@$$CBV?$basic_string@DU?$char_traits@D@std@@V?$allocator@D@2@@std@@VUpgradeType@BWAPI@@@std@@@2@$0A@@std@@@std@@QAE?AU?$pair@Viterator@?$_Tree@V?$_Tmap_traits@V?$basic_string@DU?$char_traits@D@std@@V?$allocator@D@2@@std@@VUpgradeType@BWAPI@@U?$less@V?$basic_string@DU?$char_traits@D@std@@V?$allocator@D@2@@std@@@2@V?$allocator@U?$pair@$$CBV?$basic_string@DU?$char_traits@D@std@@V?$allocator@D@2@@std@@VUpgradeType@BWAPI@@@std@@@2@$0A@@std@@@std@@_N@2@ABU?$pair@$$CBV?$basic_string@DU?$char_traits@D@std@@V?$allocator@D@2@@std@@VUpgradeType@BWAPI@@@2@@Z 0042a270 f i BWAPI:UpgradeType.obj
 0001:00029270       ?insert@?$_Tree@V?$_Tmap_traits@V?$basic_string@DU?$char_traits@D@std@@V?$allocator@D@2@@std@@VWeaponType@BWAPI@@U?$less@V?$basic_string@DU?$char_traits@D@std@@V?$allocator@D@2@@std@@@2@V?$allocator@U?$pair@$$CBV?$basic_string@DU?$char_traits@D@std@@V?$allocator@D@2@@std@@VWeaponType@BWAPI@@@std@@@2@$0A@@std@@@std@@QAE?AU?$pair@Viterator@?$_Tree@V?$_Tmap_traits@V?$basic_string@DU?$char_traits@D@std@@V?$allocator@D@2@@std@@VWeaponType@BWAPI@@U?$less@V?$basic_string@DU?$char_traits@D@std@@V?$allocator@D@2@@std@@@2@V?$allocator@U?$pair@$$CBV?$basic_string@DU?$char_traits@D@std@@V?$allocator@D@2@@std@@VWeaponType@BWAPI@@@std@@@2@$0A@@std@@@std@@_N@2@ABU?$pair@$$CBV?$basic_string@DU?$char_traits@D@std@@V?$allocator@D@2@@std@@VWeaponType@BWAPI@@@2@@Z 0042a270 f i BWAPI:WeaponType.obj
 0001:00029270       ?insert@?$_Tree@V?$_Tmap_traits@V?$basic_string@DU?$char_traits@D@std@@V?$allocator@D@2@@std@@VPlayerType@BWAPI@@U?$less@V?$basic_string@DU?$char_traits@D@std@@V?$allocator@D@2@@std@@@2@V?$allocator@U?$pair@$$CBV?$basic_string@DU?$char_traits@D@std@@V?$allocator@D@2@@std@@VPlayerType@BWAPI@@@std@@@2@$0A@@std@@@std@@QAE?AU?$pair@Viterator@?$_Tree@V?$_Tmap_traits@V?$basic_string@DU?$char_traits@D@std@@V?$allocator@D@2@@std@@VPlayerType@BWAPI@@U?$less@V?$basic_string@DU?$char_traits@D@std@@V?$allocator@D@2@@std@@@2@V?$allocator@U?$pair@$$CBV?$basic_string@DU?$char_traits@D@std@@V?$allocator@D@2@@std@@VPlayerType@BWAPI@@@std@@@2@$0A@@std@@@std@@_N@2@ABU?$pair@$$CBV?$basic_string@DU?$char_traits@D@std@@V?$allocator@D@2@@std@@VPlayerType@BWAPI@@@2@@Z 0042a270 f i BWAPI:PlayerType.obj
 0001:00029270       ?insert@?$_Tree@V?$_Tmap_traits@V?$basic_string@DU?$char_traits@D@std@@V?$allocator@D@2@@std@@VRace@BWAPI@@U?$less@V?$basic_string@DU?$char_traits@D@std@@V?$allocator@D@2@@std@@@2@V?$allocator@U?$pair@$$CBV?$basic_string@DU?$char_traits@D@std@@V?$allocator@D@2@@std@@VRace@BWAPI@@@std@@@2@$0A@@std@@@std@@QAE?AU?$pair@Viterator@?$_Tree@V?$_Tmap_traits@V?$basic_string@DU?$char_traits@D@std@@V?$allocator@D@2@@std@@VRace@BWAPI@@U?$less@V?$basic_string@DU?$char_traits@D@std@@V?$allocator@D@2@@std@@@2@V?$allocator@U?$pair@$$CBV?$basic_string@DU?$char_traits@D@std@@V?$allocator@D@2@@std@@VRace@BWAPI@@@std@@@2@$0A@@std@@@std@@_N@2@ABU?$pair@$$CBV?$basic_string@DU?$char_traits@D@std@@V?$allocator@D@2@@std@@VRace@BWAPI@@@2@@Z 0042a270 f i BWAPI:Race.obj
 0001:00029270       ?insert@?$_Tree@V?$_Tmap_traits@V?$basic_string@DU?$char_traits@D@std@@V?$allocator@D@2@@std@@VBulletType@BWAPI@@U?$less@V?$basic_string@DU?$char_traits@D@std@@V?$allocator@D@2@@std@@@2@V?$allocator@U?$pair@$$CBV?$basic_string@DU?$char_traits@D@std@@V?$allocator@D@2@@std@@VBulletType@BWAPI@@@std@@@2@$0A@@std@@@std@@QAE?AU?$pair@Viterator@?$_Tree@V?$_Tmap_traits@V?$basic_string@DU?$char_traits@D@std@@V?$allocator@D@2@@std@@VBulletType@BWAPI@@U?$less@V?$basic_string@DU?$char_traits@D@std@@V?$allocator@D@2@@std@@@2@V?$allocator@U?$pair@$$CBV?$basic_string@DU?$char_traits@D@std@@V?$allocator@D@2@@std@@VBulletType@BWAPI@@@std@@@2@$0A@@std@@@std@@_N@2@ABU?$pair@$$CBV?$basic_string@DU?$char_traits@D@std@@V?$allocator@D@2@@std@@VBulletType@BWAPI@@@2@@Z 0042a270 f i BWAPI:BulletType.obj
 0001:00029270       ?insert@?$_Tree@V?$_Tmap_traits@V?$basic_string@DU?$char_traits@D@std@@V?$allocator@D@2@@std@@VUnitType@BWAPI@@U?$less@V?$basic_string@DU?$char_traits@D@std@@V?$allocator@D@2@@std@@@2@V?$allocator@U?$pair@$$CBV?$basic_string@DU?$char_traits@D@std@@V?$allocator@D@2@@std@@VUnitType@BWAPI@@@std@@@2@$0A@@std@@@std@@QAE?AU?$pair@Viterator@?$_Tree@V?$_Tmap_traits@V?$basic_string@DU?$char_traits@D@std@@V?$allocator@D@2@@std@@VUnitType@BWAPI@@U?$less@V?$basic_string@DU?$char_traits@D@std@@V?$allocator@D@2@@std@@@2@V?$allocator@U?$pair@$$CBV?$basic_string@DU?$char_traits@D@std@@V?$allocator@D@2@@std@@VUnitType@BWAPI@@@std@@@2@$0A@@std@@@std@@_N@2@ABU?$pair@$$CBV?$basic_string@DU?$char_traits@D@std@@V?$allocator@D@2@@std@@VUnitType@BWAPI@@@2@@Z 0042a270 f i BWAPI:UnitType.obj
 0001:00029270       ?insert@?$_Tree@V?$_Tmap_traits@V?$basic_string@DU?$char_traits@D@std@@V?$allocator@D@2@@std@@VExplosionType@BWAPI@@U?$less@V?$basic_string@DU?$char_traits@D@std@@V?$allocator@D@2@@std@@@2@V?$allocator@U?$pair@$$CBV?$basic_string@DU?$char_traits@D@std@@V?$allocator@D@2@@std@@VExplosionType@BWAPI@@@std@@@2@$0A@@std@@@std@@QAE?AU?$pair@Viterator@?$_Tree@V?$_Tmap_traits@V?$basic_string@DU?$char_traits@D@std@@V?$allocator@D@2@@std@@VExplosionType@BWAPI@@U?$less@V?$basic_string@DU?$char_traits@D@std@@V?$allocator@D@2@@std@@@2@V?$allocator@U?$pair@$$CBV?$basic_string@DU?$char_traits@D@std@@V?$allocator@D@2@@std@@VExplosionType@BWAPI@@@std@@@2@$0A@@std@@@std@@_N@2@ABU?$pair@$$CBV?$basic_string@DU?$char_traits@D@std@@V?$allocator@D@2@@std@@VExplosionType@BWAPI@@@2@@Z 0042a270 f i BWAPI:ExplosionType.obj
 0001:00029270       ?insert@?$_Tree@V?$_Tmap_traits@V?$basic_string@DU?$char_traits@D@std@@V?$allocator@D@2@@std@@VUnitSizeType@BWAPI@@U?$less@V?$basic_string@DU?$char_traits@D@std@@V?$allocator@D@2@@std@@@2@V?$allocator@U?$pair@$$CBV?$basic_string@DU?$char_traits@D@std@@V?$allocator@D@2@@std@@VUnitSizeType@BWAPI@@@std@@@2@$0A@@std@@@std@@QAE?AU?$pair@Viterator@?$_Tree@V?$_Tmap_traits@V?$basic_string@DU?$char_traits@D@std@@V?$allocator@D@2@@std@@VUnitSizeType@BWAPI@@U?$less@V?$basic_string@DU?$char_traits@D@std@@V?$allocator@D@2@@std@@@2@V?$allocator@U?$pair@$$CBV?$basic_string@DU?$char_traits@D@std@@V?$allocator@D@2@@std@@VUnitSizeType@BWAPI@@@std@@@2@$0A@@std@@@std@@_N@2@ABU?$pair@$$CBV?$basic_string@DU?$char_traits@D@std@@V?$allocator@D@2@@std@@VUnitSizeType@BWAPI@@@2@@Z 0042a270 f i BWAPI:UnitSizeType.obj
 0001:00029270       ?insert@?$_Tree@V?$_Tmap_traits@V?$basic_string@DU?$char_traits@D@std@@V?$allocator@D@2@@std@@VGameType@BWAPI@@U?$less@V?$basic_string@DU?$char_traits@D@std@@V?$allocator@D@2@@std@@@2@V?$allocator@U?$pair@$$CBV?$basic_string@DU?$char_traits@D@std@@V?$allocator@D@2@@std@@VGameType@BWAPI@@@std@@@2@$0A@@std@@@std@@QAE?AU?$pair@Viterator@?$_Tree@V?$_Tmap_traits@V?$basic_string@DU?$char_traits@D@std@@V?$allocator@D@2@@std@@VGameType@BWAPI@@U?$less@V?$basic_string@DU?$char_traits@D@std@@V?$allocator@D@2@@std@@@2@V?$allocator@U?$pair@$$CBV?$basic_string@DU?$char_traits@D@std@@V?$allocator@D@2@@std@@VGameType@BWAPI@@@std@@@2@$0A@@std@@@std@@_N@2@ABU?$pair@$$CBV?$basic_string@DU?$char_traits@D@std@@V?$allocator@D@2@@std@@VGameType@BWAPI@@@2@@Z 0042a270 f i BWAPI:GameType.obj
 0001:00029270       ?insert@?$_Tree@V?$_Tmap_traits@V?$basic_string@DU?$char_traits@D@std@@V?$allocator@D@2@@std@@VOrder@BWAPI@@U?$less@V?$basic_string@DU?$char_traits@D@std@@V?$allocator@D@2@@std@@@2@V?$allocator@U?$pair@$$CBV?$basic_string@DU?$char_traits@D@std@@V?$allocator@D@2@@std@@VOrder@BWAPI@@@std@@@2@$0A@@std@@@std@@QAE?AU?$pair@Viterator@?$_Tree@V?$_Tmap_traits@V?$basic_string@DU?$char_traits@D@std@@V?$allocator@D@2@@std@@VOrder@BWAPI@@U?$less@V?$basic_string@DU?$char_traits@D@std@@V?$allocator@D@2@@std@@@2@V?$allocator@U?$pair@$$CBV?$basic_string@DU?$char_traits@D@std@@V?$allocator@D@2@@std@@VOrder@BWAPI@@@std@@@2@$0A@@std@@@std@@_N@2@ABU?$pair@$$CBV?$basic_string@DU?$char_traits@D@std@@V?$allocator@D@2@@std@@VOrder@BWAPI@@@2@@Z 0042a270 f i BWAPI:Order.obj
 0001:00029360       ?set@TechTypeInternal@BWAPI@@QAEXPBDHHHHVUnitType@2@VRace@2@VWeaponType@2@_N4VOrder@2@111111@Z 0042a360 f i BWAPI:TechType.obj
 0001:000294d0       ?init@TechTypes@BWAPI@@YAXXZ 0042a4d0 f   BWAPI:TechType.obj
 0001:0002a6a0       ??1TechTypeInternal@BWAPI@@QAE@XZ 0042b6a0 f i BWAPI:TechType.obj
 0001:0002a6f0       ??0TechTypeInternal@BWAPI@@QAE@XZ 0042b6f0 f i BWAPI:TechType.obj
 0001:0002a770       ?fixName@BWAPI@@YAXPAV?$basic_string@DU?$char_traits@D@std@@V?$allocator@D@2@@std@@@Z 0042b770 f   BWAPI:Common.obj
 0001:0002a830       ??0UpgradeType@BWAPI@@QAE@XZ 0042b830 f   BWAPI:UpgradeType.obj
 0001:0002a840       ?whatUses@UpgradeType@BWAPI@@QBEABV?$set@VUnitType@BWAPI@@U?$less@VUnitType@BWAPI@@@std@@V?$allocator@VUnitType@BWAPI@@@4@@std@@XZ 0042b840 f   BWAPI:UpgradeType.obj
 0001:0002a850       ?allUpgradeTypes@UpgradeTypes@BWAPI@@YAABV?$set@VUpgradeType@BWAPI@@U?$less@VUpgradeType@BWAPI@@@std@@V?$allocator@VUpgradeType@BWAPI@@@4@@std@@XZ 0042b850 f   BWAPI:UpgradeType.obj
 0001:0002a860       ?set@UpgradeTypeInternal@BWAPI@@QAEXPBDHHHHHHVUnitType@2@VRace@2@1H111@Z 0042b860 f i BWAPI:UpgradeType.obj
 0001:0002a910       ?init@UpgradeTypes@BWAPI@@YAXXZ 0042b910 f   BWAPI:UpgradeType.obj
 0001:0002cd40       ??1UpgradeTypeInternal@BWAPI@@QAE@XZ 0042dd40 f i BWAPI:UpgradeType.obj
 0001:0002cd90       ??0?$_Tree@V?$_Tmap_traits@V?$basic_string@DU?$char_traits@D@std@@V?$allocator@D@2@@std@@VGameType@BWAPI@@U?$less@V?$basic_string@DU?$char_traits@D@std@@V?$allocator@D@2@@std@@@2@V?$allocator@U?$pair@$$CBV?$basic_string@DU?$char_traits@D@std@@V?$allocator@D@2@@std@@VGameType@BWAPI@@@std@@@2@$0A@@std@@@std@@QAE@ABU?$less@V?$basic_string@DU?$char_traits@D@std@@V?$allocator@D@2@@std@@@1@ABV?$allocator@U?$pair@$$CBV?$basic_string@DU?$char_traits@D@std@@V?$allocator@D@2@@std@@VGameType@BWAPI@@@std@@@1@@Z 0042dd90 f i BWAPI:GameType.obj
 0001:0002cd90       ??0?$_Tree@V?$_Tmap_traits@V?$basic_string@DU?$char_traits@D@std@@V?$allocator@D@2@@std@@VDamageType@BWAPI@@U?$less@V?$basic_string@DU?$char_traits@D@std@@V?$allocator@D@2@@std@@@2@V?$allocator@U?$pair@$$CBV?$basic_string@DU?$char_traits@D@std@@V?$allocator@D@2@@std@@VDamageType@BWAPI@@@std@@@2@$0A@@std@@@std@@QAE@ABU?$less@V?$basic_string@DU?$char_traits@D@std@@V?$allocator@D@2@@std@@@1@ABV?$allocator@U?$pair@$$CBV?$basic_string@DU?$char_traits@D@std@@V?$allocator@D@2@@std@@VDamageType@BWAPI@@@std@@@1@@Z 0042dd90 f i BWAPI:DamageType.obj
 0001:0002cd90       ??0?$_Tree@V?$_Tmap_traits@V?$basic_string@DU?$char_traits@D@std@@V?$allocator@D@2@@std@@VUpgradeType@BWAPI@@U?$less@V?$basic_string@DU?$char_traits@D@std@@V?$allocator@D@2@@std@@@2@V?$allocator@U?$pair@$$CBV?$basic_string@DU?$char_traits@D@std@@V?$allocator@D@2@@std@@VUpgradeType@BWAPI@@@std@@@2@$0A@@std@@@std@@QAE@ABU?$less@V?$basic_string@DU?$char_traits@D@std@@V?$allocator@D@2@@std@@@1@ABV?$allocator@U?$pair@$$CBV?$basic_string@DU?$char_traits@D@std@@V?$allocator@D@2@@std@@VUpgradeType@BWAPI@@@std@@@1@@Z 0042dd90 f i BWAPI:UpgradeType.obj
 0001:0002cd90       ??0?$_Tree@V?$_Tmap_traits@V?$basic_string@DU?$char_traits@D@std@@V?$allocator@D@2@@std@@VWeaponType@BWAPI@@U?$less@V?$basic_string@DU?$char_traits@D@std@@V?$allocator@D@2@@std@@@2@V?$allocator@U?$pair@$$CBV?$basic_string@DU?$char_traits@D@std@@V?$allocator@D@2@@std@@VWeaponType@BWAPI@@@std@@@2@$0A@@std@@@std@@QAE@ABU?$less@V?$basic_string@DU?$char_traits@D@std@@V?$allocator@D@2@@std@@@1@ABV?$allocator@U?$pair@$$CBV?$basic_string@DU?$char_traits@D@std@@V?$allocator@D@2@@std@@VWeaponType@BWAPI@@@std@@@1@@Z 0042dd90 f i BWAPI:WeaponType.obj
 0001:0002cd90       ??0?$_Tree@V?$_Tmap_traits@V?$basic_string@DU?$char_traits@D@std@@V?$allocator@D@2@@std@@VOrder@BWAPI@@U?$less@V?$basic_string@DU?$char_traits@D@std@@V?$allocator@D@2@@std@@@2@V?$allocator@U?$pair@$$CBV?$basic_string@DU?$char_traits@D@std@@V?$allocator@D@2@@std@@VOrder@BWAPI@@@std@@@2@$0A@@std@@@std@@QAE@ABU?$less@V?$basic_string@DU?$char_traits@D@std@@V?$allocator@D@2@@std@@@1@ABV?$allocator@U?$pair@$$CBV?$basic_string@DU?$char_traits@D@std@@V?$allocator@D@2@@std@@VOrder@BWAPI@@@std@@@1@@Z 0042dd90 f i BWAPI:Order.obj
 0001:0002cd90       ??0?$_Tree@V?$_Tmap_traits@V?$basic_string@DU?$char_traits@D@std@@V?$allocator@D@2@@std@@VRace@BWAPI@@U?$less@V?$basic_string@DU?$char_traits@D@std@@V?$allocator@D@2@@std@@@2@V?$allocator@U?$pair@$$CBV?$basic_string@DU?$char_traits@D@std@@V?$allocator@D@2@@std@@VRace@BWAPI@@@std@@@2@$0A@@std@@@std@@QAE@ABU?$less@V?$basic_string@DU?$char_traits@D@std@@V?$allocator@D@2@@std@@@1@ABV?$allocator@U?$pair@$$CBV?$basic_string@DU?$char_traits@D@std@@V?$allocator@D@2@@std@@VRace@BWAPI@@@std@@@1@@Z 0042dd90 f i BWAPI:Race.obj
 0001:0002cd90       ??0?$_Tree@V?$_Tmap_traits@V?$basic_string@DU?$char_traits@D@std@@V?$allocator@D@2@@std@@VError@BWAPI@@U?$less@V?$basic_string@DU?$char_traits@D@std@@V?$allocator@D@2@@std@@@2@V?$allocator@U?$pair@$$CBV?$basic_string@DU?$char_traits@D@std@@V?$allocator@D@2@@std@@VError@BWAPI@@@std@@@2@$0A@@std@@@std@@QAE@ABU?$less@V?$basic_string@DU?$char_traits@D@std@@V?$allocator@D@2@@std@@@1@ABV?$allocator@U?$pair@$$CBV?$basic_string@DU?$char_traits@D@std@@V?$allocator@D@2@@std@@VError@BWAPI@@@std@@@1@@Z 0042dd90 f i BWAPI:Error.obj
 0001:0002cd90       ??0?$_Tree@V?$_Tmap_traits@V?$basic_string@DU?$char_traits@D@std@@V?$allocator@D@2@@std@@VUnitType@BWAPI@@U?$less@V?$basic_string@DU?$char_traits@D@std@@V?$allocator@D@2@@std@@@2@V?$allocator@U?$pair@$$CBV?$basic_string@DU?$char_traits@D@std@@V?$allocator@D@2@@std@@VUnitType@BWAPI@@@std@@@2@$0A@@std@@@std@@QAE@ABU?$less@V?$basic_string@DU?$char_traits@D@std@@V?$allocator@D@2@@std@@@1@ABV?$allocator@U?$pair@$$CBV?$basic_string@DU?$char_traits@D@std@@V?$allocator@D@2@@std@@VUnitType@BWAPI@@@std@@@1@@Z 0042dd90 f i BWAPI:UnitType.obj
 0001:0002cd90       ??0?$_Tree@V?$_Tmap_traits@V?$basic_string@DU?$char_traits@D@std@@V?$allocator@D@2@@std@@VUnitCommandType@BWAPI@@U?$less@V?$basic_string@DU?$char_traits@D@std@@V?$allocator@D@2@@std@@@2@V?$allocator@U?$pair@$$CBV?$basic_string@DU?$char_traits@D@std@@V?$allocator@D@2@@std@@VUnitCommandType@BWAPI@@@std@@@2@$0A@@std@@@std@@QAE@ABU?$less@V?$basic_string@DU?$char_traits@D@std@@V?$allocator@D@2@@std@@@1@ABV?$allocator@U?$pair@$$CBV?$basic_string@DU?$char_traits@D@std@@V?$allocator@D@2@@std@@VUnitCommandType@BWAPI@@@std@@@1@@Z 0042dd90 f i BWAPI:UnitCommandType.obj
 0001:0002cd90       ??0?$_Tree@V?$_Tmap_traits@V?$basic_string@DU?$char_traits@D@std@@V?$allocator@D@2@@std@@VBulletType@BWAPI@@U?$less@V?$basic_string@DU?$char_traits@D@std@@V?$allocator@D@2@@std@@@2@V?$allocator@U?$pair@$$CBV?$basic_string@DU?$char_traits@D@std@@V?$allocator@D@2@@std@@VBulletType@BWAPI@@@std@@@2@$0A@@std@@@std@@QAE@ABU?$less@V?$basic_string@DU?$char_traits@D@std@@V?$allocator@D@2@@std@@@1@ABV?$allocator@U?$pair@$$CBV?$basic_string@DU?$char_traits@D@std@@V?$allocator@D@2@@std@@VBulletType@BWAPI@@@std@@@1@@Z 0042dd90 f i BWAPI:BulletType.obj
 0001:0002cd90       ??0?$_Tree@V?$_Tmap_traits@V?$basic_string@DU?$char_traits@D@std@@V?$allocator@D@2@@std@@VExplosionType@BWAPI@@U?$less@V?$basic_string@DU?$char_traits@D@std@@V?$allocator@D@2@@std@@@2@V?$allocator@U?$pair@$$CBV?$basic_string@DU?$char_traits@D@std@@V?$allocator@D@2@@std@@VExplosionType@BWAPI@@@std@@@2@$0A@@std@@@std@@QAE@ABU?$less@V?$basic_string@DU?$char_traits@D@std@@V?$allocator@D@2@@std@@@1@ABV?$allocator@U?$pair@$$CBV?$basic_string@DU?$char_traits@D@std@@V?$allocator@D@2@@std@@VExplosionType@BWAPI@@@std@@@1@@Z 0042dd90 f i BWAPI:ExplosionType.obj
 0001:0002cd90       ??0?$_Tree@V?$_Tmap_traits@V?$basic_string@DU?$char_traits@D@std@@V?$allocator@D@2@@std@@VUnitSizeType@BWAPI@@U?$less@V?$basic_string@DU?$char_traits@D@std@@V?$allocator@D@2@@std@@@2@V?$allocator@U?$pair@$$CBV?$basic_string@DU?$char_traits@D@std@@V?$allocator@D@2@@std@@VUnitSizeType@BWAPI@@@std@@@2@$0A@@std@@@std@@QAE@ABU?$less@V?$basic_string@DU?$char_traits@D@std@@V?$allocator@D@2@@std@@@1@ABV?$allocator@U?$pair@$$CBV?$basic_string@DU?$char_traits@D@std@@V?$allocator@D@2@@std@@VUnitSizeType@BWAPI@@@std@@@1@@Z 0042dd90 f i BWAPI:UnitSizeType.obj
 0001:0002cd90       ??0?$_Tree@V?$_Tmap_traits@V?$basic_string@DU?$char_traits@D@std@@V?$allocator@D@2@@std@@VTechType@BWAPI@@U?$less@V?$basic_string@DU?$char_traits@D@std@@V?$allocator@D@2@@std@@@2@V?$allocator@U?$pair@$$CBV?$basic_string@DU?$char_traits@D@std@@V?$allocator@D@2@@std@@VTechType@BWAPI@@@std@@@2@$0A@@std@@@std@@QAE@ABU?$less@V?$basic_string@DU?$char_traits@D@std@@V?$allocator@D@2@@std@@@1@ABV?$allocator@U?$pair@$$CBV?$basic_string@DU?$char_traits@D@std@@V?$allocator@D@2@@std@@VTechType@BWAPI@@@std@@@1@@Z 0042dd90 f i BWAPI:TechType.obj
 0001:0002cd90       ??0?$_Tree@V?$_Tmap_traits@V?$basic_string@DU?$char_traits@D@std@@V?$allocator@D@2@@std@@VPlayerType@BWAPI@@U?$less@V?$basic_string@DU?$char_traits@D@std@@V?$allocator@D@2@@std@@@2@V?$allocator@U?$pair@$$CBV?$basic_string@DU?$char_traits@D@std@@V?$allocator@D@2@@std@@VPlayerType@BWAPI@@@std@@@2@$0A@@std@@@std@@QAE@ABU?$less@V?$basic_string@DU?$char_traits@D@std@@V?$allocator@D@2@@std@@@1@ABV?$allocator@U?$pair@$$CBV?$basic_string@DU?$char_traits@D@std@@V?$allocator@D@2@@std@@VPlayerType@BWAPI@@@std@@@1@@Z 0042dd90 f i BWAPI:PlayerType.obj
 0001:0002ce10       ??0UpgradeTypeInternal@BWAPI@@QAE@XZ 0042de10 f i BWAPI:UpgradeType.obj
 0001:0002cea0       ??0RaceInternal@BWAPI@@QAE@XZ 0042dea0 f i BWAPI:Race.obj
 0001:0002cf10       ??0Race@BWAPI@@QAE@XZ      0042df10 f   BWAPI:Race.obj
 0001:0002cf20       ?init@Races@BWAPI@@YAXXZ   0042df20 f   BWAPI:Race.obj
 0001:0002d3b0       ??1?$pair@V?$basic_string@DU?$char_traits@D@std@@V?$allocator@D@2@@std@@VGameType@BWAPI@@@std@@QAE@XZ 0042e3b0 f i BWAPI:GameType.obj
 0001:0002d3b0       ??1?$pair@$$CBV?$basic_string@DU?$char_traits@D@std@@V?$allocator@D@2@@std@@VExplosionType@BWAPI@@@std@@QAE@XZ 0042e3b0 f i BWAPI:ExplosionType.obj
 0001:0002d3b0       ??1?$pair@$$CBV?$basic_string@DU?$char_traits@D@std@@V?$allocator@D@2@@std@@VGameType@BWAPI@@@std@@QAE@XZ 0042e3b0 f i BWAPI:GameType.obj
 0001:0002d3b0       ??1?$pair@$$CBV?$basic_string@DU?$char_traits@D@std@@V?$allocator@D@2@@std@@VRace@BWAPI@@@std@@QAE@XZ 0042e3b0 f i BWAPI:Race.obj
 0001:0002d3b0       ??1?$pair@$$CBV?$basic_string@DU?$char_traits@D@std@@V?$allocator@D@2@@std@@VWeaponType@BWAPI@@@std@@QAE@XZ 0042e3b0 f i BWAPI:WeaponType.obj
 0001:0002d3b0       ??1?$pair@V?$basic_string@DU?$char_traits@D@std@@V?$allocator@D@2@@std@@VWeaponType@BWAPI@@@std@@QAE@XZ 0042e3b0 f i BWAPI:WeaponType.obj
 0001:0002d3b0       ??1?$pair@$$CBV?$basic_string@DU?$char_traits@D@std@@V?$allocator@D@2@@std@@VPlayerType@BWAPI@@@std@@QAE@XZ 0042e3b0 f i BWAPI:PlayerType.obj
 0001:0002d3b0       ??1?$pair@V?$basic_string@DU?$char_traits@D@std@@V?$allocator@D@2@@std@@VUnitType@BWAPI@@@std@@QAE@XZ 0042e3b0 f i BWAPI:UnitType.obj
 0001:0002d3b0       ??1WeaponTypeInternal@BWAPI@@QAE@XZ 0042e3b0 f i BWAPI:WeaponType.obj
 0001:0002d3b0       ??1?$pair@V?$basic_string@DU?$char_traits@D@std@@V?$allocator@D@2@@std@@VUnitSizeType@BWAPI@@@std@@QAE@XZ 0042e3b0 f i BWAPI:UnitSizeType.obj
 0001:0002d3b0       ??1RaceInternal@BWAPI@@QAE@XZ 0042e3b0 f i BWAPI:Race.obj
 0001:0002d3b0       ??1?$pair@$$CBV?$basic_string@DU?$char_traits@D@std@@V?$allocator@D@2@@std@@VDamageType@BWAPI@@@std@@QAE@XZ 0042e3b0 f i BWAPI:DamageType.obj
 0001:0002d3b0       ??1?$pair@V?$basic_string@DU?$char_traits@D@std@@V?$allocator@D@2@@std@@VRace@BWAPI@@@std@@QAE@XZ 0042e3b0 f i BWAPI:Race.obj
 0001:0002d3b0       ??1?$pair@V?$basic_string@DU?$char_traits@D@std@@V?$allocator@D@2@@std@@VBulletType@BWAPI@@@std@@QAE@XZ 0042e3b0 f i BWAPI:BulletType.obj
 0001:0002d3b0       ??1?$pair@$$CBV?$basic_string@DU?$char_traits@D@std@@V?$allocator@D@2@@std@@VTechType@BWAPI@@@std@@QAE@XZ 0042e3b0 f i BWAPI:TechType.obj
 0001:0002d3b0       ??1?$pair@$$CBV?$basic_string@DU?$char_traits@D@std@@V?$allocator@D@2@@std@@VError@BWAPI@@@std@@QAE@XZ 0042e3b0 f i BWAPI:Error.obj
 0001:0002d3b0       ??1?$pair@$$CBV?$basic_string@DU?$char_traits@D@std@@V?$allocator@D@2@@std@@VUnitSizeType@BWAPI@@@std@@QAE@XZ 0042e3b0 f i BWAPI:UnitSizeType.obj
 0001:0002d3b0       ??1?$pair@V?$basic_string@DU?$char_traits@D@std@@V?$allocator@D@2@@std@@VUnitCommandType@BWAPI@@@std@@QAE@XZ 0042e3b0 f i BWAPI:UnitCommandType.obj
 0001:0002d3b0       ??1?$pair@V?$basic_string@DU?$char_traits@D@std@@V?$allocator@D@2@@std@@VError@BWAPI@@@std@@QAE@XZ 0042e3b0 f i BWAPI:Error.obj
 0001:0002d3b0       ??1?$pair@$$CBV?$basic_string@DU?$char_traits@D@std@@V?$allocator@D@2@@std@@VOrder@BWAPI@@@std@@QAE@XZ 0042e3b0 f i BWAPI:Order.obj
 0001:0002d3b0       ??1?$pair@$$CBV?$basic_string@DU?$char_traits@D@std@@V?$allocator@D@2@@std@@VUnitType@BWAPI@@@std@@QAE@XZ 0042e3b0 f i BWAPI:UnitType.obj
 0001:0002d3b0       ??1?$pair@V?$basic_string@DU?$char_traits@D@std@@V?$allocator@D@2@@std@@VDamageType@BWAPI@@@std@@QAE@XZ 0042e3b0 f i BWAPI:DamageType.obj
 0001:0002d3b0       ??1?$pair@V?$basic_string@DU?$char_traits@D@std@@V?$allocator@D@2@@std@@VTechType@BWAPI@@@std@@QAE@XZ 0042e3b0 f i BWAPI:TechType.obj
 0001:0002d3b0       ??1?$pair@$$CBV?$basic_string@DU?$char_traits@D@std@@V?$allocator@D@2@@std@@VUnitCommandType@BWAPI@@@std@@QAE@XZ 0042e3b0 f i BWAPI:UnitCommandType.obj
 0001:0002d3b0       ??1?$pair@V?$basic_string@DU?$char_traits@D@std@@V?$allocator@D@2@@std@@VOrder@BWAPI@@@std@@QAE@XZ 0042e3b0 f i BWAPI:Order.obj
 0001:0002d3b0       ??1?$pair@V?$basic_string@DU?$char_traits@D@std@@V?$allocator@D@2@@std@@VUpgradeType@BWAPI@@@std@@QAE@XZ 0042e3b0 f i BWAPI:UpgradeType.obj
 0001:0002d3b0       ??1?$pair@$$CBV?$basic_string@DU?$char_traits@D@std@@V?$allocator@D@2@@std@@VUpgradeType@BWAPI@@@std@@QAE@XZ 0042e3b0 f i BWAPI:UpgradeType.obj
 0001:0002d3b0       ??1?$pair@$$CBV?$basic_string@DU?$char_traits@D@std@@V?$allocator@D@2@@std@@VBulletType@BWAPI@@@std@@QAE@XZ 0042e3b0 f i BWAPI:BulletType.obj
 0001:0002d3b0       ??1?$pair@V?$basic_string@DU?$char_traits@D@std@@V?$allocator@D@2@@std@@VExplosionType@BWAPI@@@std@@QAE@XZ 0042e3b0 f i BWAPI:ExplosionType.obj
 0001:0002d3b0       ??1?$pair@V?$basic_string@DU?$char_traits@D@std@@V?$allocator@D@2@@std@@VPlayerType@BWAPI@@@std@@QAE@XZ 0042e3b0 f i BWAPI:PlayerType.obj
 0001:0002d3c0       ??0UnitSizeType@BWAPI@@QAE@XZ 0042e3c0 f   BWAPI:UnitSizeType.obj
 0001:0002d3d0       ?_Erase@?$_Tree@V?$_Tset_traits@VBulletType@BWAPI@@U?$less@VBulletType@BWAPI@@@std@@V?$allocator@VBulletType@BWAPI@@@4@$0A@@std@@@std@@IAEXPAU_Node@?$_Tree_nod@V?$_Tset_traits@VBulletType@BWAPI@@U?$less@VBulletType@BWAPI@@@std@@V?$allocator@VBulletType@BWAPI@@@4@$0A@@std@@@2@@Z 0042e3d0 f i BWAPI:BulletType.obj
 0001:0002d3d0       ?_Erase@?$_Tree@V?$_Tset_traits@VError@BWAPI@@U?$less@VError@BWAPI@@@std@@V?$allocator@VError@BWAPI@@@4@$0A@@std@@@std@@IAEXPAU_Node@?$_Tree_nod@V?$_Tset_traits@VError@BWAPI@@U?$less@VError@BWAPI@@@std@@V?$allocator@VError@BWAPI@@@4@$0A@@std@@@2@@Z 0042e3d0 f i BWAPI:Error.obj
 0001:0002d3d0       ?_Erase@?$_Tree@V?$_Tset_traits@VGameType@BWAPI@@U?$less@VGameType@BWAPI@@@std@@V?$allocator@VGameType@BWAPI@@@4@$0A@@std@@@std@@IAEXPAU_Node@?$_Tree_nod@V?$_Tset_traits@VGameType@BWAPI@@U?$less@VGameType@BWAPI@@@std@@V?$allocator@VGameType@BWAPI@@@4@$0A@@std@@@2@@Z 0042e3d0 f i BWAPI:GameType.obj
 0001:0002d3d0       ?_Erase@?$_Tree@V?$_Tset_traits@VUnitCommandType@BWAPI@@U?$less@VUnitCommandType@BWAPI@@@std@@V?$allocator@VUnitCommandType@BWAPI@@@4@$0A@@std@@@std@@IAEXPAU_Node@?$_Tree_nod@V?$_Tset_traits@VUnitCommandType@BWAPI@@U?$less@VUnitCommandType@BWAPI@@@std@@V?$allocator@VUnitCommandType@BWAPI@@@4@$0A@@std@@@2@@Z 0042e3d0 f i BWAPI:UnitCommandType.obj
 0001:0002d3d0       ?_Erase@?$_Tree@V?$_Tset_traits@VPlayerType@BWAPI@@U?$less@VPlayerType@BWAPI@@@std@@V?$allocator@VPlayerType@BWAPI@@@4@$0A@@std@@@std@@IAEXPAU_Node@?$_Tree_nod@V?$_Tset_traits@VPlayerType@BWAPI@@U?$less@VPlayerType@BWAPI@@@std@@V?$allocator@VPlayerType@BWAPI@@@4@$0A@@std@@@2@@Z 0042e3d0 f i BWAPI:PlayerType.obj
 0001:0002d3d0       ?_Erase@?$_Tree@V?$_Tset_traits@VUpgradeType@BWAPI@@U?$less@VUpgradeType@BWAPI@@@std@@V?$allocator@VUpgradeType@BWAPI@@@4@$0A@@std@@@std@@IAEXPAU_Node@?$_Tree_nod@V?$_Tset_traits@VUpgradeType@BWAPI@@U?$less@VUpgradeType@BWAPI@@@std@@V?$allocator@VUpgradeType@BWAPI@@@4@$0A@@std@@@2@@Z 0042e3d0 f i BWAPI:UnitType.obj
 0001:0002d3d0       ?_Erase@?$_Tree@V?$_Tset_traits@VRace@BWAPI@@U?$less@VRace@BWAPI@@@std@@V?$allocator@VRace@BWAPI@@@4@$0A@@std@@@std@@IAEXPAU_Node@?$_Tree_nod@V?$_Tset_traits@VRace@BWAPI@@U?$less@VRace@BWAPI@@@std@@V?$allocator@VRace@BWAPI@@@4@$0A@@std@@@2@@Z 0042e3d0 f i BWAPI:Race.obj
 0001:0002d3d0       ?_Erase@?$_Tree@V?$_Tset_traits@VUnitType@BWAPI@@U?$less@VUnitType@BWAPI@@@std@@V?$allocator@VUnitType@BWAPI@@@4@$0A@@std@@@std@@IAEXPAU_Node@?$_Tree_nod@V?$_Tset_traits@VUnitType@BWAPI@@U?$less@VUnitType@BWAPI@@@std@@V?$allocator@VUnitType@BWAPI@@@4@$0A@@std@@@2@@Z 0042e3d0 f i BWAPI:UnitType.obj
 0001:0002d3d0       ?_Erase@?$_Tree@V?$_Tset_traits@VTechType@BWAPI@@U?$less@VTechType@BWAPI@@@std@@V?$allocator@VTechType@BWAPI@@@4@$0A@@std@@@std@@IAEXPAU_Node@?$_Tree_nod@V?$_Tset_traits@VTechType@BWAPI@@U?$less@VTechType@BWAPI@@@std@@V?$allocator@VTechType@BWAPI@@@4@$0A@@std@@@2@@Z 0042e3d0 f i BWAPI:UnitType.obj
 0001:0002d3d0       ?_Erase@?$_Tree@V?$_Tset_traits@VWeaponType@BWAPI@@U?$less@VWeaponType@BWAPI@@@std@@V?$allocator@VWeaponType@BWAPI@@@4@$0A@@std@@@std@@IAEXPAU_Node@?$_Tree_nod@V?$_Tset_traits@VWeaponType@BWAPI@@U?$less@VWeaponType@BWAPI@@@std@@V?$allocator@VWeaponType@BWAPI@@@4@$0A@@std@@@2@@Z 0042e3d0 f i BWAPI:WeaponType.obj
 0001:0002d3d0       ?_Erase@?$_Tree@V?$_Tset_traits@VDamageType@BWAPI@@U?$less@VDamageType@BWAPI@@@std@@V?$allocator@VDamageType@BWAPI@@@4@$0A@@std@@@std@@IAEXPAU_Node@?$_Tree_nod@V?$_Tset_traits@VDamageType@BWAPI@@U?$less@VDamageType@BWAPI@@@std@@V?$allocator@VDamageType@BWAPI@@@4@$0A@@std@@@2@@Z 0042e3d0 f i BWAPI:DamageType.obj
 0001:0002d3d0       ?_Erase@?$_Tree@V?$_Tset_traits@VExplosionType@BWAPI@@U?$less@VExplosionType@BWAPI@@@std@@V?$allocator@VExplosionType@BWAPI@@@4@$0A@@std@@@std@@IAEXPAU_Node@?$_Tree_nod@V?$_Tset_traits@VExplosionType@BWAPI@@U?$less@VExplosionType@BWAPI@@@std@@V?$allocator@VExplosionType@BWAPI@@@4@$0A@@std@@@2@@Z 0042e3d0 f i BWAPI:ExplosionType.obj
 0001:0002d3d0       ?_Erase@?$_Tree@V?$_Tset_traits@VOrder@BWAPI@@U?$less@VOrder@BWAPI@@@std@@V?$allocator@VOrder@BWAPI@@@4@$0A@@std@@@std@@IAEXPAU_Node@?$_Tree_nod@V?$_Tset_traits@VOrder@BWAPI@@U?$less@VOrder@BWAPI@@@std@@V?$allocator@VOrder@BWAPI@@@4@$0A@@std@@@2@@Z 0042e3d0 f i BWAPI:Order.obj
 0001:0002d3d0       ?_Erase@?$_Tree@V?$_Tset_traits@VUnitSizeType@BWAPI@@U?$less@VUnitSizeType@BWAPI@@@std@@V?$allocator@VUnitSizeType@BWAPI@@@4@$0A@@std@@@std@@IAEXPAU_Node@?$_Tree_nod@V?$_Tset_traits@VUnitSizeType@BWAPI@@U?$less@VUnitSizeType@BWAPI@@@std@@V?$allocator@VUnitSizeType@BWAPI@@@4@$0A@@std@@@2@@Z 0042e3d0 f i BWAPI:UnitSizeType.obj
 0001:0002d410       ?init@UnitSizeTypes@BWAPI@@YAXXZ 0042e410 f   BWAPI:UnitSizeType.obj
 0001:0002d6f0       ??0ExplosionType@BWAPI@@QAE@XZ 0042e6f0 f   BWAPI:ExplosionType.obj
 0001:0002d700       ?_Max@?$_Tree@V?$_Tset_traits@VUnitSizeType@BWAPI@@U?$less@VUnitSizeType@BWAPI@@@std@@V?$allocator@VUnitSizeType@BWAPI@@@4@$0A@@std@@@std@@KAPAU_Node@?$_Tree_nod@V?$_Tset_traits@VUnitSizeType@BWAPI@@U?$less@VUnitSizeType@BWAPI@@@std@@V?$allocator@VUnitSizeType@BWAPI@@@4@$0A@@std@@@2@PAU342@@Z 0042e700 f i BWAPI:UnitSizeType.obj
 0001:0002d700       ?_Max@?$_Tree@V?$_Tset_traits@VUnitCommandType@BWAPI@@U?$less@VUnitCommandType@BWAPI@@@std@@V?$allocator@VUnitCommandType@BWAPI@@@4@$0A@@std@@@std@@KAPAU_Node@?$_Tree_nod@V?$_Tset_traits@VUnitCommandType@BWAPI@@U?$less@VUnitCommandType@BWAPI@@@std@@V?$allocator@VUnitCommandType@BWAPI@@@4@$0A@@std@@@2@PAU342@@Z 0042e700 f i BWAPI:UnitCommandType.obj
 0001:0002d700       ?_Max@?$_Tree@V?$_Tset_traits@VWeaponType@BWAPI@@U?$less@VWeaponType@BWAPI@@@std@@V?$allocator@VWeaponType@BWAPI@@@4@$0A@@std@@@std@@KAPAU_Node@?$_Tree_nod@V?$_Tset_traits@VWeaponType@BWAPI@@U?$less@VWeaponType@BWAPI@@@std@@V?$allocator@VWeaponType@BWAPI@@@4@$0A@@std@@@2@PAU342@@Z 0042e700 f i BWAPI:WeaponType.obj
 0001:0002d700       ?_Max@?$_Tree@V?$_Tset_traits@VOrder@BWAPI@@U?$less@VOrder@BWAPI@@@std@@V?$allocator@VOrder@BWAPI@@@4@$0A@@std@@@std@@KAPAU_Node@?$_Tree_nod@V?$_Tset_traits@VOrder@BWAPI@@U?$less@VOrder@BWAPI@@@std@@V?$allocator@VOrder@BWAPI@@@4@$0A@@std@@@2@PAU342@@Z 0042e700 f i BWAPI:Order.obj
 0001:0002d700       ?_Max@?$_Tree@V?$_Tset_traits@VError@BWAPI@@U?$less@VError@BWAPI@@@std@@V?$allocator@VError@BWAPI@@@4@$0A@@std@@@std@@KAPAU_Node@?$_Tree_nod@V?$_Tset_traits@VError@BWAPI@@U?$less@VError@BWAPI@@@std@@V?$allocator@VError@BWAPI@@@4@$0A@@std@@@2@PAU342@@Z 0042e700 f i BWAPI:Error.obj
 0001:0002d700       ?_Max@?$_Tree@V?$_Tset_traits@VBulletType@BWAPI@@U?$less@VBulletType@BWAPI@@@std@@V?$allocator@VBulletType@BWAPI@@@4@$0A@@std@@@std@@KAPAU_Node@?$_Tree_nod@V?$_Tset_traits@VBulletType@BWAPI@@U?$less@VBulletType@BWAPI@@@std@@V?$allocator@VBulletType@BWAPI@@@4@$0A@@std@@@2@PAU342@@Z 0042e700 f i BWAPI:BulletType.obj
 0001:0002d700       ?_Max@?$_Tree@V?$_Tset_traits@VExplosionType@BWAPI@@U?$less@VExplosionType@BWAPI@@@std@@V?$allocator@VExplosionType@BWAPI@@@4@$0A@@std@@@std@@KAPAU_Node@?$_Tree_nod@V?$_Tset_traits@VExplosionType@BWAPI@@U?$less@VExplosionType@BWAPI@@@std@@V?$allocator@VExplosionType@BWAPI@@@4@$0A@@std@@@2@PAU342@@Z 0042e700 f i BWAPI:ExplosionType.obj
 0001:0002d700       ?_Max@?$_Tree@V?$_Tset_traits@VDamageType@BWAPI@@U?$less@VDamageType@BWAPI@@@std@@V?$allocator@VDamageType@BWAPI@@@4@$0A@@std@@@std@@KAPAU_Node@?$_Tree_nod@V?$_Tset_traits@VDamageType@BWAPI@@U?$less@VDamageType@BWAPI@@@std@@V?$allocator@VDamageType@BWAPI@@@4@$0A@@std@@@2@PAU342@@Z 0042e700 f i BWAPI:DamageType.obj
 0001:0002d700       ?_Max@?$_Tree@V?$_Tset_traits@VTechType@BWAPI@@U?$less@VTechType@BWAPI@@@std@@V?$allocator@VTechType@BWAPI@@@4@$0A@@std@@@std@@KAPAU_Node@?$_Tree_nod@V?$_Tset_traits@VTechType@BWAPI@@U?$less@VTechType@BWAPI@@@std@@V?$allocator@VTechType@BWAPI@@@4@$0A@@std@@@2@PAU342@@Z 0042e700 f i BWAPI:UnitType.obj
 0001:0002d700       ?_Max@?$_Tree@V?$_Tset_traits@VUpgradeType@BWAPI@@U?$less@VUpgradeType@BWAPI@@@std@@V?$allocator@VUpgradeType@BWAPI@@@4@$0A@@std@@@std@@KAPAU_Node@?$_Tree_nod@V?$_Tset_traits@VUpgradeType@BWAPI@@U?$less@VUpgradeType@BWAPI@@@std@@V?$allocator@VUpgradeType@BWAPI@@@4@$0A@@std@@@2@PAU342@@Z 0042e700 f i BWAPI:UnitType.obj
 0001:0002d700       ?_Max@?$_Tree@V?$_Tset_traits@VGameType@BWAPI@@U?$less@VGameType@BWAPI@@@std@@V?$allocator@VGameType@BWAPI@@@4@$0A@@std@@@std@@KAPAU_Node@?$_Tree_nod@V?$_Tset_traits@VGameType@BWAPI@@U?$less@VGameType@BWAPI@@@std@@V?$allocator@VGameType@BWAPI@@@4@$0A@@std@@@2@PAU342@@Z 0042e700 f i BWAPI:GameType.obj
 0001:0002d700       ?_Max@?$_Tree@V?$_Tset_traits@VUnitType@BWAPI@@U?$less@VUnitType@BWAPI@@@std@@V?$allocator@VUnitType@BWAPI@@@4@$0A@@std@@@std@@KAPAU_Node@?$_Tree_nod@V?$_Tset_traits@VUnitType@BWAPI@@U?$less@VUnitType@BWAPI@@@std@@V?$allocator@VUnitType@BWAPI@@@4@$0A@@std@@@2@PAU342@@Z 0042e700 f i BWAPI:UnitType.obj
 0001:0002d700       ?_Max@?$_Tree@V?$_Tset_traits@VRace@BWAPI@@U?$less@VRace@BWAPI@@@std@@V?$allocator@VRace@BWAPI@@@4@$0A@@std@@@std@@KAPAU_Node@?$_Tree_nod@V?$_Tset_traits@VRace@BWAPI@@U?$less@VRace@BWAPI@@@std@@V?$allocator@VRace@BWAPI@@@4@$0A@@std@@@2@PAU342@@Z 0042e700 f i BWAPI:Race.obj
 0001:0002d700       ?_Max@?$_Tree@V?$_Tset_traits@VPlayerType@BWAPI@@U?$less@VPlayerType@BWAPI@@@std@@V?$allocator@VPlayerType@BWAPI@@@4@$0A@@std@@@std@@KAPAU_Node@?$_Tree_nod@V?$_Tset_traits@VPlayerType@BWAPI@@U?$less@VPlayerType@BWAPI@@@std@@V?$allocator@VPlayerType@BWAPI@@@4@$0A@@std@@@2@PAU342@@Z 0042e700 f i BWAPI:PlayerType.obj
 0001:0002d720       ?init@ExplosionTypes@BWAPI@@YAXXZ 0042e720 f   BWAPI:ExplosionType.obj
 0001:0002de40       ??0DamageType@BWAPI@@QAE@XZ 0042ee40 f   BWAPI:DamageType.obj
 0001:0002de50       ?erase@?$_Tree@V?$_Tset_traits@VRace@BWAPI@@U?$less@VRace@BWAPI@@@std@@V?$allocator@VRace@BWAPI@@@4@$0A@@std@@@std@@QAE?AViterator@12@Vconst_iterator@12@@Z 0042ee50 f i BWAPI:Race.obj
 0001:0002de50       ?erase@?$_Tree@V?$_Tset_traits@VUnitSizeType@BWAPI@@U?$less@VUnitSizeType@BWAPI@@@std@@V?$allocator@VUnitSizeType@BWAPI@@@4@$0A@@std@@@std@@QAE?AViterator@12@Vconst_iterator@12@@Z 0042ee50 f i BWAPI:UnitSizeType.obj
 0001:0002de50       ?erase@?$_Tree@V?$_Tset_traits@VUnitType@BWAPI@@U?$less@VUnitType@BWAPI@@@std@@V?$allocator@VUnitType@BWAPI@@@4@$0A@@std@@@std@@QAE?AViterator@12@Vconst_iterator@12@@Z 0042ee50 f i BWAPI:UnitType.obj
 0001:0002de50       ?erase@?$_Tree@V?$_Tset_traits@VDamageType@BWAPI@@U?$less@VDamageType@BWAPI@@@std@@V?$allocator@VDamageType@BWAPI@@@4@$0A@@std@@@std@@QAE?AViterator@12@Vconst_iterator@12@@Z 0042ee50 f i BWAPI:DamageType.obj
 0001:0002de50       ?erase@?$_Tree@V?$_Tset_traits@VUnitCommandType@BWAPI@@U?$less@VUnitCommandType@BWAPI@@@std@@V?$allocator@VUnitCommandType@BWAPI@@@4@$0A@@std@@@std@@QAE?AViterator@12@Vconst_iterator@12@@Z 0042ee50 f i BWAPI:UnitCommandType.obj
 0001:0002de50       ?erase@?$_Tree@V?$_Tset_traits@VUpgradeType@BWAPI@@U?$less@VUpgradeType@BWAPI@@@std@@V?$allocator@VUpgradeType@BWAPI@@@4@$0A@@std@@@std@@QAE?AViterator@12@Vconst_iterator@12@@Z 0042ee50 f i BWAPI:UnitType.obj
 0001:0002de50       ?erase@?$_Tree@V?$_Tset_traits@VWeaponType@BWAPI@@U?$less@VWeaponType@BWAPI@@@std@@V?$allocator@VWeaponType@BWAPI@@@4@$0A@@std@@@std@@QAE?AViterator@12@Vconst_iterator@12@@Z 0042ee50 f i BWAPI:WeaponType.obj
 0001:0002de50       ?erase@?$_Tree@V?$_Tset_traits@VError@BWAPI@@U?$less@VError@BWAPI@@@std@@V?$allocator@VError@BWAPI@@@4@$0A@@std@@@std@@QAE?AViterator@12@Vconst_iterator@12@@Z 0042ee50 f i BWAPI:Error.obj
 0001:0002de50       ?erase@?$_Tree@V?$_Tset_traits@VTechType@BWAPI@@U?$less@VTechType@BWAPI@@@std@@V?$allocator@VTechType@BWAPI@@@4@$0A@@std@@@std@@QAE?AViterator@12@Vconst_iterator@12@@Z 0042ee50 f i BWAPI:UnitType.obj
 0001:0002de50       ?erase@?$_Tree@V?$_Tset_traits@VGameType@BWAPI@@U?$less@VGameType@BWAPI@@@std@@V?$allocator@VGameType@BWAPI@@@4@$0A@@std@@@std@@QAE?AViterator@12@Vconst_iterator@12@@Z 0042ee50 f i BWAPI:GameType.obj
 0001:0002de50       ?erase@?$_Tree@V?$_Tset_traits@VExplosionType@BWAPI@@U?$less@VExplosionType@BWAPI@@@std@@V?$allocator@VExplosionType@BWAPI@@@4@$0A@@std@@@std@@QAE?AViterator@12@Vconst_iterator@12@@Z 0042ee50 f i BWAPI:ExplosionType.obj
 0001:0002de50       ?erase@?$_Tree@V?$_Tset_traits@VBulletType@BWAPI@@U?$less@VBulletType@BWAPI@@@std@@V?$allocator@VBulletType@BWAPI@@@4@$0A@@std@@@std@@QAE?AViterator@12@Vconst_iterator@12@@Z 0042ee50 f i BWAPI:BulletType.obj
 0001:0002de50       ?erase@?$_Tree@V?$_Tset_traits@VPlayerType@BWAPI@@U?$less@VPlayerType@BWAPI@@@std@@V?$allocator@VPlayerType@BWAPI@@@4@$0A@@std@@@std@@QAE?AViterator@12@Vconst_iterator@12@@Z 0042ee50 f i BWAPI:PlayerType.obj
 0001:0002de50       ?erase@?$_Tree@V?$_Tset_traits@VOrder@BWAPI@@U?$less@VOrder@BWAPI@@@std@@V?$allocator@VOrder@BWAPI@@@4@$0A@@std@@@std@@QAE?AViterator@12@Vconst_iterator@12@@Z 0042ee50 f i BWAPI:Order.obj
 0001:0002e120       ?erase@?$_Tree@V?$_Tset_traits@VTechType@BWAPI@@U?$less@VTechType@BWAPI@@@std@@V?$allocator@VTechType@BWAPI@@@4@$0A@@std@@@std@@QAE?AViterator@12@Vconst_iterator@12@0@Z 0042f120 f i BWAPI:UnitType.obj
 0001:0002e120       ?erase@?$_Tree@V?$_Tset_traits@VWeaponType@BWAPI@@U?$less@VWeaponType@BWAPI@@@std@@V?$allocator@VWeaponType@BWAPI@@@4@$0A@@std@@@std@@QAE?AViterator@12@Vconst_iterator@12@0@Z 0042f120 f i BWAPI:WeaponType.obj
 0001:0002e120       ?erase@?$_Tree@V?$_Tset_traits@VRace@BWAPI@@U?$less@VRace@BWAPI@@@std@@V?$allocator@VRace@BWAPI@@@4@$0A@@std@@@std@@QAE?AViterator@12@Vconst_iterator@12@0@Z 0042f120 f i BWAPI:Race.obj
 0001:0002e120       ?erase@?$_Tree@V?$_Tset_traits@VError@BWAPI@@U?$less@VError@BWAPI@@@std@@V?$allocator@VError@BWAPI@@@4@$0A@@std@@@std@@QAE?AViterator@12@Vconst_iterator@12@0@Z 0042f120 f i BWAPI:Error.obj
 0001:0002e120       ?erase@?$_Tree@V?$_Tset_traits@VDamageType@BWAPI@@U?$less@VDamageType@BWAPI@@@std@@V?$allocator@VDamageType@BWAPI@@@4@$0A@@std@@@std@@QAE?AViterator@12@Vconst_iterator@12@0@Z 0042f120 f i BWAPI:DamageType.obj
 0001:0002e120       ?erase@?$_Tree@V?$_Tset_traits@VGameType@BWAPI@@U?$less@VGameType@BWAPI@@@std@@V?$allocator@VGameType@BWAPI@@@4@$0A@@std@@@std@@QAE?AViterator@12@Vconst_iterator@12@0@Z 0042f120 f i BWAPI:GameType.obj
 0001:0002e120       ?erase@?$_Tree@V?$_Tset_traits@VUnitCommandType@BWAPI@@U?$less@VUnitCommandType@BWAPI@@@std@@V?$allocator@VUnitCommandType@BWAPI@@@4@$0A@@std@@@std@@QAE?AViterator@12@Vconst_iterator@12@0@Z 0042f120 f i BWAPI:UnitCommandType.obj
 0001:0002e120       ?erase@?$_Tree@V?$_Tset_traits@VOrder@BWAPI@@U?$less@VOrder@BWAPI@@@std@@V?$allocator@VOrder@BWAPI@@@4@$0A@@std@@@std@@QAE?AViterator@12@Vconst_iterator@12@0@Z 0042f120 f i BWAPI:Order.obj
 0001:0002e120       ?erase@?$_Tree@V?$_Tset_traits@VUnitType@BWAPI@@U?$less@VUnitType@BWAPI@@@std@@V?$allocator@VUnitType@BWAPI@@@4@$0A@@std@@@std@@QAE?AViterator@12@Vconst_iterator@12@0@Z 0042f120 f i BWAPI:UnitType.obj
 0001:0002e120       ?erase@?$_Tree@V?$_Tset_traits@VExplosionType@BWAPI@@U?$less@VExplosionType@BWAPI@@@std@@V?$allocator@VExplosionType@BWAPI@@@4@$0A@@std@@@std@@QAE?AViterator@12@Vconst_iterator@12@0@Z 0042f120 f i BWAPI:ExplosionType.obj
 0001:0002e120       ?erase@?$_Tree@V?$_Tset_traits@VUnitSizeType@BWAPI@@U?$less@VUnitSizeType@BWAPI@@@std@@V?$allocator@VUnitSizeType@BWAPI@@@4@$0A@@std@@@std@@QAE?AViterator@12@Vconst_iterator@12@0@Z 0042f120 f i BWAPI:UnitSizeType.obj
 0001:0002e120       ?erase@?$_Tree@V?$_Tset_traits@VBulletType@BWAPI@@U?$less@VBulletType@BWAPI@@@std@@V?$allocator@VBulletType@BWAPI@@@4@$0A@@std@@@std@@QAE?AViterator@12@Vconst_iterator@12@0@Z 0042f120 f i BWAPI:BulletType.obj
 0001:0002e120       ?erase@?$_Tree@V?$_Tset_traits@VUpgradeType@BWAPI@@U?$less@VUpgradeType@BWAPI@@@std@@V?$allocator@VUpgradeType@BWAPI@@@4@$0A@@std@@@std@@QAE?AViterator@12@Vconst_iterator@12@0@Z 0042f120 f i BWAPI:UnitType.obj
 0001:0002e120       ?erase@?$_Tree@V?$_Tset_traits@VPlayerType@BWAPI@@U?$less@VPlayerType@BWAPI@@@std@@V?$allocator@VPlayerType@BWAPI@@@4@$0A@@std@@@std@@QAE?AViterator@12@Vconst_iterator@12@0@Z 0042f120 f i BWAPI:PlayerType.obj
 0001:0002e200       ?init@DamageTypes@BWAPI@@YAXXZ 0042f200 f   BWAPI:DamageType.obj
 0001:0002e520       ??1?$_Tree@V?$_Tset_traits@VUnitType@BWAPI@@U?$less@VUnitType@BWAPI@@@std@@V?$allocator@VUnitType@BWAPI@@@4@$0A@@std@@@std@@QAE@XZ 0042f520 f i BWAPI:UnitType.obj
 0001:0002e520       ??1?$_Tree@V?$_Tset_traits@VPlayerType@BWAPI@@U?$less@VPlayerType@BWAPI@@@std@@V?$allocator@VPlayerType@BWAPI@@@4@$0A@@std@@@std@@QAE@XZ 0042f520 f i BWAPI:PlayerType.obj
 0001:0002e520       ??1?$_Tree@V?$_Tset_traits@VError@BWAPI@@U?$less@VError@BWAPI@@@std@@V?$allocator@VError@BWAPI@@@4@$0A@@std@@@std@@QAE@XZ 0042f520 f i BWAPI:Error.obj
 0001:0002e520       ??1?$_Tree@V?$_Tset_traits@VBulletType@BWAPI@@U?$less@VBulletType@BWAPI@@@std@@V?$allocator@VBulletType@BWAPI@@@4@$0A@@std@@@std@@QAE@XZ 0042f520 f i BWAPI:BulletType.obj
 0001:0002e520       ??1?$_Tree@V?$_Tset_traits@VUpgradeType@BWAPI@@U?$less@VUpgradeType@BWAPI@@@std@@V?$allocator@VUpgradeType@BWAPI@@@4@$0A@@std@@@std@@QAE@XZ 0042f520 f i BWAPI:UnitType.obj
 0001:0002e520       ??1?$_Tree@V?$_Tset_traits@VWeaponType@BWAPI@@U?$less@VWeaponType@BWAPI@@@std@@V?$allocator@VWeaponType@BWAPI@@@4@$0A@@std@@@std@@QAE@XZ 0042f520 f i BWAPI:WeaponType.obj
 0001:0002e520       ??1?$_Tree@V?$_Tset_traits@VUnitSizeType@BWAPI@@U?$less@VUnitSizeType@BWAPI@@@std@@V?$allocator@VUnitSizeType@BWAPI@@@4@$0A@@std@@@std@@QAE@XZ 0042f520 f i BWAPI:UnitSizeType.obj
 0001:0002e520       ??1?$_Tree@V?$_Tset_traits@VRace@BWAPI@@U?$less@VRace@BWAPI@@@std@@V?$allocator@VRace@BWAPI@@@4@$0A@@std@@@std@@QAE@XZ 0042f520 f i BWAPI:Race.obj
 0001:0002e520       ??1?$_Tree@V?$_Tset_traits@VDamageType@BWAPI@@U?$less@VDamageType@BWAPI@@@std@@V?$allocator@VDamageType@BWAPI@@@4@$0A@@std@@@std@@QAE@XZ 0042f520 f i BWAPI:DamageType.obj
 0001:0002e520       ??1?$_Tree@V?$_Tset_traits@VUnitCommandType@BWAPI@@U?$less@VUnitCommandType@BWAPI@@@std@@V?$allocator@VUnitCommandType@BWAPI@@@4@$0A@@std@@@std@@QAE@XZ 0042f520 f i BWAPI:UnitCommandType.obj
 0001:0002e520       ??1?$_Tree@V?$_Tset_traits@VExplosionType@BWAPI@@U?$less@VExplosionType@BWAPI@@@std@@V?$allocator@VExplosionType@BWAPI@@@4@$0A@@std@@@std@@QAE@XZ 0042f520 f i BWAPI:ExplosionType.obj
 0001:0002e520       ??1?$_Tree@V?$_Tset_traits@VTechType@BWAPI@@U?$less@VTechType@BWAPI@@@std@@V?$allocator@VTechType@BWAPI@@@4@$0A@@std@@@std@@QAE@XZ 0042f520 f i BWAPI:UnitType.obj
 0001:0002e520       ??1?$_Tree@V?$_Tset_traits@VOrder@BWAPI@@U?$less@VOrder@BWAPI@@@std@@V?$allocator@VOrder@BWAPI@@@4@$0A@@std@@@std@@QAE@XZ 0042f520 f i BWAPI:Order.obj
 0001:0002e520       ??1?$_Tree@V?$_Tset_traits@VGameType@BWAPI@@U?$less@VGameType@BWAPI@@@std@@V?$allocator@VGameType@BWAPI@@@4@$0A@@std@@@std@@QAE@XZ 0042f520 f i BWAPI:GameType.obj
 0001:0002e590       ?init@GameTypes@BWAPI@@YAXXZ 0042f590 f   BWAPI:GameType.obj
 0001:0002eab0       ?init@Colors@BWAPI@@YAXXZ  0042fab0 f   BWAPI:Color.obj
 0001:0002eac0       ?toString@Error@BWAPI@@QBE?AV?$basic_string@DU?$char_traits@D@std@@V?$allocator@D@2@@std@@XZ 0042fac0 f   BWAPI:Error.obj
 0001:0002eb00       ?_Inc@const_iterator@?$_Tree@V?$_Tset_traits@VUpgradeType@BWAPI@@U?$less@VUpgradeType@BWAPI@@@std@@V?$allocator@VUpgradeType@BWAPI@@@4@$0A@@std@@@std@@QAEXXZ 0042fb00 f i BWAPI:UnitType.obj
 0001:0002eb00       ?_Inc@const_iterator@?$_Tree@V?$_Tset_traits@VBulletType@BWAPI@@U?$less@VBulletType@BWAPI@@@std@@V?$allocator@VBulletType@BWAPI@@@4@$0A@@std@@@std@@QAEXXZ 0042fb00 f i BWAPI:BulletType.obj
 0001:0002eb00       ?_Inc@const_iterator@?$_Tree@V?$_Tset_traits@VDamageType@BWAPI@@U?$less@VDamageType@BWAPI@@@std@@V?$allocator@VDamageType@BWAPI@@@4@$0A@@std@@@std@@QAEXXZ 0042fb00 f i BWAPI:DamageType.obj
 0001:0002eb00       ?_Inc@const_iterator@?$_Tree@V?$_Tset_traits@VOrder@BWAPI@@U?$less@VOrder@BWAPI@@@std@@V?$allocator@VOrder@BWAPI@@@4@$0A@@std@@@std@@QAEXXZ 0042fb00 f i BWAPI:Order.obj
 0001:0002eb00       ?_Inc@const_iterator@?$_Tree@V?$_Tset_traits@VRace@BWAPI@@U?$less@VRace@BWAPI@@@std@@V?$allocator@VRace@BWAPI@@@4@$0A@@std@@@std@@QAEXXZ 0042fb00 f i BWAPI:Race.obj
 0001:0002eb00       ?_Inc@const_iterator@?$_Tree@V?$_Tset_traits@VError@BWAPI@@U?$less@VError@BWAPI@@@std@@V?$allocator@VError@BWAPI@@@4@$0A@@std@@@std@@QAEXXZ 0042fb00 f i BWAPI:Error.obj
 0001:0002eb00       ?_Inc@const_iterator@?$_Tree@V?$_Tset_traits@VGameType@BWAPI@@U?$less@VGameType@BWAPI@@@std@@V?$allocator@VGameType@BWAPI@@@4@$0A@@std@@@std@@QAEXXZ 0042fb00 f i BWAPI:GameType.obj
 0001:0002eb00       ?_Inc@const_iterator@?$_Tree@V?$_Tset_traits@VPlayerType@BWAPI@@U?$less@VPlayerType@BWAPI@@@std@@V?$allocator@VPlayerType@BWAPI@@@4@$0A@@std@@@std@@QAEXXZ 0042fb00 f i BWAPI:PlayerType.obj
 0001:0002eb00       ?_Inc@const_iterator@?$_Tree@V?$_Tset_traits@VUnitType@BWAPI@@U?$less@VUnitType@BWAPI@@@std@@V?$allocator@VUnitType@BWAPI@@@4@$0A@@std@@@std@@QAEXXZ 0042fb00 f i BWAPI:UnitType.obj
 0001:0002eb00       ?_Inc@const_iterator@?$_Tree@V?$_Tset_traits@VExplosionType@BWAPI@@U?$less@VExplosionType@BWAPI@@@std@@V?$allocator@VExplosionType@BWAPI@@@4@$0A@@std@@@std@@QAEXXZ 0042fb00 f i BWAPI:ExplosionType.obj
 0001:0002eb00       ?_Inc@const_iterator@?$_Tree@V?$_Tset_traits@VTechType@BWAPI@@U?$less@VTechType@BWAPI@@@std@@V?$allocator@VTechType@BWAPI@@@4@$0A@@std@@@std@@QAEXXZ 0042fb00 f i BWAPI:UnitType.obj
 0001:0002eb00       ?_Inc@const_iterator@?$_Tree@V?$_Tset_traits@VWeaponType@BWAPI@@U?$less@VWeaponType@BWAPI@@@std@@V?$allocator@VWeaponType@BWAPI@@@4@$0A@@std@@@std@@QAEXXZ 0042fb00 f i BWAPI:WeaponType.obj
 0001:0002eb00       ?_Inc@const_iterator@?$_Tree@V?$_Tset_traits@VUnitCommandType@BWAPI@@U?$less@VUnitCommandType@BWAPI@@@std@@V?$allocator@VUnitCommandType@BWAPI@@@4@$0A@@std@@@std@@QAEXXZ 0042fb00 f i BWAPI:UnitCommandType.obj
 0001:0002eb00       ?_Inc@const_iterator@?$_Tree@V?$_Tset_traits@VUnitSizeType@BWAPI@@U?$less@VUnitSizeType@BWAPI@@@std@@V?$allocator@VUnitSizeType@BWAPI@@@4@$0A@@std@@@std@@QAEXXZ 0042fb00 f i BWAPI:UnitSizeType.obj
 0001:0002eb70       ?_Lrotate@?$_Tree@V?$_Tmap_traits@V?$basic_string@DU?$char_traits@D@std@@V?$allocator@D@2@@std@@VOrder@BWAPI@@U?$less@V?$basic_string@DU?$char_traits@D@std@@V?$allocator@D@2@@std@@@2@V?$allocator@U?$pair@$$CBV?$basic_string@DU?$char_traits@D@std@@V?$allocator@D@2@@std@@VOrder@BWAPI@@@std@@@2@$0A@@std@@@std@@IAEXPAU_Node@?$_Tree_nod@V?$_Tmap_traits@V?$basic_string@DU?$char_traits@D@std@@V?$allocator@D@2@@std@@VOrder@BWAPI@@U?$less@V?$basic_string@DU?$char_traits@D@std@@V?$allocator@D@2@@std@@@2@V?$allocator@U?$pair@$$CBV?$basic_string@DU?$char_traits@D@std@@V?$allocator@D@2@@std@@VOrder@BWAPI@@@std@@@2@$0A@@std@@@2@@Z 0042fb70 f i BWAPI:Order.obj
 0001:0002eb70       ?_Lrotate@?$_Tree@V?$_Tmap_traits@V?$basic_string@DU?$char_traits@D@std@@V?$allocator@D@2@@std@@VUnitSizeType@BWAPI@@U?$less@V?$basic_string@DU?$char_traits@D@std@@V?$allocator@D@2@@std@@@2@V?$allocator@U?$pair@$$CBV?$basic_string@DU?$char_traits@D@std@@V?$allocator@D@2@@std@@VUnitSizeType@BWAPI@@@std@@@2@$0A@@std@@@std@@IAEXPAU_Node@?$_Tree_nod@V?$_Tmap_traits@V?$basic_string@DU?$char_traits@D@std@@V?$allocator@D@2@@std@@VUnitSizeType@BWAPI@@U?$less@V?$basic_string@DU?$char_traits@D@std@@V?$allocator@D@2@@std@@@2@V?$allocator@U?$pair@$$CBV?$basic_string@DU?$char_traits@D@std@@V?$allocator@D@2@@std@@VUnitSizeType@BWAPI@@@std@@@2@$0A@@std@@@2@@Z 0042fb70 f i BWAPI:UnitSizeType.obj
 0001:0002eb70       ?_Lrotate@?$_Tree@V?$_Tmap_traits@V?$basic_string@DU?$char_traits@D@std@@V?$allocator@D@2@@std@@VGameType@BWAPI@@U?$less@V?$basic_string@DU?$char_traits@D@std@@V?$allocator@D@2@@std@@@2@V?$allocator@U?$pair@$$CBV?$basic_string@DU?$char_traits@D@std@@V?$allocator@D@2@@std@@VGameType@BWAPI@@@std@@@2@$0A@@std@@@std@@IAEXPAU_Node@?$_Tree_nod@V?$_Tmap_traits@V?$basic_string@DU?$char_traits@D@std@@V?$allocator@D@2@@std@@VGameType@BWAPI@@U?$less@V?$basic_string@DU?$char_traits@D@std@@V?$allocator@D@2@@std@@@2@V?$allocator@U?$pair@$$CBV?$basic_string@DU?$char_traits@D@std@@V?$allocator@D@2@@std@@VGameType@BWAPI@@@std@@@2@$0A@@std@@@2@@Z 0042fb70 f i BWAPI:GameType.obj
 0001:0002eb70       ?_Lrotate@?$_Tree@V?$_Tmap_traits@V?$basic_string@DU?$char_traits@D@std@@V?$allocator@D@2@@std@@VPlayerType@BWAPI@@U?$less@V?$basic_string@DU?$char_traits@D@std@@V?$allocator@D@2@@std@@@2@V?$allocator@U?$pair@$$CBV?$basic_string@DU?$char_traits@D@std@@V?$allocator@D@2@@std@@VPlayerType@BWAPI@@@std@@@2@$0A@@std@@@std@@IAEXPAU_Node@?$_Tree_nod@V?$_Tmap_traits@V?$basic_string@DU?$char_traits@D@std@@V?$allocator@D@2@@std@@VPlayerType@BWAPI@@U?$less@V?$basic_string@DU?$char_traits@D@std@@V?$allocator@D@2@@std@@@2@V?$allocator@U?$pair@$$CBV?$basic_string@DU?$char_traits@D@std@@V?$allocator@D@2@@std@@VPlayerType@BWAPI@@@std@@@2@$0A@@std@@@2@@Z 0042fb70 f i BWAPI:PlayerType.obj
 0001:0002eb70       ?_Lrotate@?$_Tree@V?$_Tmap_traits@V?$basic_string@DU?$char_traits@D@std@@V?$allocator@D@2@@std@@VUnitCommandType@BWAPI@@U?$less@V?$basic_string@DU?$char_traits@D@std@@V?$allocator@D@2@@std@@@2@V?$allocator@U?$pair@$$CBV?$basic_string@DU?$char_traits@D@std@@V?$allocator@D@2@@std@@VUnitCommandType@BWAPI@@@std@@@2@$0A@@std@@@std@@IAEXPAU_Node@?$_Tree_nod@V?$_Tmap_traits@V?$basic_string@DU?$char_traits@D@std@@V?$allocator@D@2@@std@@VUnitCommandType@BWAPI@@U?$less@V?$basic_string@DU?$char_traits@D@std@@V?$allocator@D@2@@std@@@2@V?$allocator@U?$pair@$$CBV?$basic_string@DU?$char_traits@D@std@@V?$allocator@D@2@@std@@VUnitCommandType@BWAPI@@@std@@@2@$0A@@std@@@2@@Z 0042fb70 f i BWAPI:UnitCommandType.obj
 0001:0002eb70       ?_Lrotate@?$_Tree@V?$_Tmap_traits@V?$basic_string@DU?$char_traits@D@std@@V?$allocator@D@2@@std@@VUnitType@BWAPI@@U?$less@V?$basic_string@DU?$char_traits@D@std@@V?$allocator@D@2@@std@@@2@V?$allocator@U?$pair@$$CBV?$basic_string@DU?$char_traits@D@std@@V?$allocator@D@2@@std@@VUnitType@BWAPI@@@std@@@2@$0A@@std@@@std@@IAEXPAU_Node@?$_Tree_nod@V?$_Tmap_traits@V?$basic_string@DU?$char_traits@D@std@@V?$allocator@D@2@@std@@VUnitType@BWAPI@@U?$less@V?$basic_string@DU?$char_traits@D@std@@V?$allocator@D@2@@std@@@2@V?$allocator@U?$pair@$$CBV?$basic_string@DU?$char_traits@D@std@@V?$allocator@D@2@@std@@VUnitType@BWAPI@@@std@@@2@$0A@@std@@@2@@Z 0042fb70 f i BWAPI:UnitType.obj
 0001:0002eb70       ?_Lrotate@?$_Tree@V?$_Tmap_traits@V?$basic_string@DU?$char_traits@D@std@@V?$allocator@D@2@@std@@VUpgradeType@BWAPI@@U?$less@V?$basic_string@DU?$char_traits@D@std@@V?$allocator@D@2@@std@@@2@V?$allocator@U?$pair@$$CBV?$basic_string@DU?$char_traits@D@std@@V?$allocator@D@2@@std@@VUpgradeType@BWAPI@@@std@@@2@$0A@@std@@@std@@IAEXPAU_Node@?$_Tree_nod@V?$_Tmap_traits@V?$basic_string@DU?$char_traits@D@std@@V?$allocator@D@2@@std@@VUpgradeType@BWAPI@@U?$less@V?$basic_string@DU?$char_traits@D@std@@V?$allocator@D@2@@std@@@2@V?$allocator@U?$pair@$$CBV?$basic_string@DU?$char_traits@D@std@@V?$allocator@D@2@@std@@VUpgradeType@BWAPI@@@std@@@2@$0A@@std@@@2@@Z 0042fb70 f i BWAPI:UpgradeType.obj
 0001:0002eb70       ?_Lrotate@?$_Tree@V?$_Tmap_traits@V?$basic_string@DU?$char_traits@D@std@@V?$allocator@D@2@@std@@VTechType@BWAPI@@U?$less@V?$basic_string@DU?$char_traits@D@std@@V?$allocator@D@2@@std@@@2@V?$allocator@U?$pair@$$CBV?$basic_string@DU?$char_traits@D@std@@V?$allocator@D@2@@std@@VTechType@BWAPI@@@std@@@2@$0A@@std@@@std@@IAEXPAU_Node@?$_Tree_nod@V?$_Tmap_traits@V?$basic_string@DU?$char_traits@D@std@@V?$allocator@D@2@@std@@VTechType@BWAPI@@U?$less@V?$basic_string@DU?$char_traits@D@std@@V?$allocator@D@2@@std@@@2@V?$allocator@U?$pair@$$CBV?$basic_string@DU?$char_traits@D@std@@V?$allocator@D@2@@std@@VTechType@BWAPI@@@std@@@2@$0A@@std@@@2@@Z 0042fb70 f i BWAPI:TechType.obj
 0001:0002eb70       ?_Lrotate@?$_Tree@V?$_Tmap_traits@V?$basic_string@DU?$char_traits@D@std@@V?$allocator@D@2@@std@@VRace@BWAPI@@U?$less@V?$basic_string@DU?$char_traits@D@std@@V?$allocator@D@2@@std@@@2@V?$allocator@U?$pair@$$CBV?$basic_string@DU?$char_traits@D@std@@V?$allocator@D@2@@std@@VRace@BWAPI@@@std@@@2@$0A@@std@@@std@@IAEXPAU_Node@?$_Tree_nod@V?$_Tmap_traits@V?$basic_string@DU?$char_traits@D@std@@V?$allocator@D@2@@std@@VRace@BWAPI@@U?$less@V?$basic_string@DU?$char_traits@D@std@@V?$allocator@D@2@@std@@@2@V?$allocator@U?$pair@$$CBV?$basic_string@DU?$char_traits@D@std@@V?$allocator@D@2@@std@@VRace@BWAPI@@@std@@@2@$0A@@std@@@2@@Z 0042fb70 f i BWAPI:Race.obj
 0001:0002eb70       ?_Lrotate@?$_Tree@V?$_Tmap_traits@V?$basic_string@DU?$char_traits@D@std@@V?$allocator@D@2@@std@@VBulletType@BWAPI@@U?$less@V?$basic_string@DU?$char_traits@D@std@@V?$allocator@D@2@@std@@@2@V?$allocator@U?$pair@$$CBV?$basic_string@DU?$char_traits@D@std@@V?$allocator@D@2@@std@@VBulletType@BWAPI@@@std@@@2@$0A@@std@@@std@@IAEXPAU_Node@?$_Tree_nod@V?$_Tmap_traits@V?$basic_string@DU?$char_traits@D@std@@V?$allocator@D@2@@std@@VBulletType@BWAPI@@U?$less@V?$basic_string@DU?$char_traits@D@std@@V?$allocator@D@2@@std@@@2@V?$allocator@U?$pair@$$CBV?$basic_string@DU?$char_traits@D@std@@V?$allocator@D@2@@std@@VBulletType@BWAPI@@@std@@@2@$0A@@std@@@2@@Z 0042fb70 f i BWAPI:BulletType.obj
 0001:0002eb70       ?_Lrotate@?$_Tree@V?$_Tmap_traits@V?$basic_string@DU?$char_traits@D@std@@V?$allocator@D@2@@std@@VExplosionType@BWAPI@@U?$less@V?$basic_string@DU?$char_traits@D@std@@V?$allocator@D@2@@std@@@2@V?$allocator@U?$pair@$$CBV?$basic_string@DU?$char_traits@D@std@@V?$allocator@D@2@@std@@VExplosionType@BWAPI@@@std@@@2@$0A@@std@@@std@@IAEXPAU_Node@?$_Tree_nod@V?$_Tmap_traits@V?$basic_string@DU?$char_traits@D@std@@V?$allocator@D@2@@std@@VExplosionType@BWAPI@@U?$less@V?$basic_string@DU?$char_traits@D@std@@V?$allocator@D@2@@std@@@2@V?$allocator@U?$pair@$$CBV?$basic_string@DU?$char_traits@D@std@@V?$allocator@D@2@@std@@VExplosionType@BWAPI@@@std@@@2@$0A@@std@@@2@@Z 0042fb70 f i BWAPI:ExplosionType.obj
 0001:0002eb70       ?_Lrotate@?$_Tree@V?$_Tmap_traits@V?$basic_string@DU?$char_traits@D@std@@V?$allocator@D@2@@std@@VError@BWAPI@@U?$less@V?$basic_string@DU?$char_traits@D@std@@V?$allocator@D@2@@std@@@2@V?$allocator@U?$pair@$$CBV?$basic_string@DU?$char_traits@D@std@@V?$allocator@D@2@@std@@VError@BWAPI@@@std@@@2@$0A@@std@@@std@@IAEXPAU_Node@?$_Tree_nod@V?$_Tmap_traits@V?$basic_string@DU?$char_traits@D@std@@V?$allocator@D@2@@std@@VError@BWAPI@@U?$less@V?$basic_string@DU?$char_traits@D@std@@V?$allocator@D@2@@std@@@2@V?$allocator@U?$pair@$$CBV?$basic_string@DU?$char_traits@D@std@@V?$allocator@D@2@@std@@VError@BWAPI@@@std@@@2@$0A@@std@@@2@@Z 0042fb70 f i BWAPI:Error.obj
 0001:0002eb70       ?_Lrotate@?$_Tree@V?$_Tmap_traits@V?$basic_string@DU?$char_traits@D@std@@V?$allocator@D@2@@std@@VDamageType@BWAPI@@U?$less@V?$basic_string@DU?$char_traits@D@std@@V?$allocator@D@2@@std@@@2@V?$allocator@U?$pair@$$CBV?$basic_string@DU?$char_traits@D@std@@V?$allocator@D@2@@std@@VDamageType@BWAPI@@@std@@@2@$0A@@std@@@std@@IAEXPAU_Node@?$_Tree_nod@V?$_Tmap_traits@V?$basic_string@DU?$char_traits@D@std@@V?$allocator@D@2@@std@@VDamageType@BWAPI@@U?$less@V?$basic_string@DU?$char_traits@D@std@@V?$allocator@D@2@@std@@@2@V?$allocator@U?$pair@$$CBV?$basic_string@DU?$char_traits@D@std@@V?$allocator@D@2@@std@@VDamageType@BWAPI@@@std@@@2@$0A@@std@@@2@@Z 0042fb70 f i BWAPI:DamageType.obj
 0001:0002eb70       ?_Lrotate@?$_Tree@V?$_Tmap_traits@V?$basic_string@DU?$char_traits@D@std@@V?$allocator@D@2@@std@@VWeaponType@BWAPI@@U?$less@V?$basic_string@DU?$char_traits@D@std@@V?$allocator@D@2@@std@@@2@V?$allocator@U?$pair@$$CBV?$basic_string@DU?$char_traits@D@std@@V?$allocator@D@2@@std@@VWeaponType@BWAPI@@@std@@@2@$0A@@std@@@std@@IAEXPAU_Node@?$_Tree_nod@V?$_Tmap_traits@V?$basic_string@DU?$char_traits@D@std@@V?$allocator@D@2@@std@@VWeaponType@BWAPI@@U?$less@V?$basic_string@DU?$char_traits@D@std@@V?$allocator@D@2@@std@@@2@V?$allocator@U?$pair@$$CBV?$basic_string@DU?$char_traits@D@std@@V?$allocator@D@2@@std@@VWeaponType@BWAPI@@@std@@@2@$0A@@std@@@2@@Z 0042fb70 f i BWAPI:WeaponType.obj
 0001:0002ebc0       ?_Insert@?$_Tree@V?$_Tset_traits@VGameType@BWAPI@@U?$less@VGameType@BWAPI@@@std@@V?$allocator@VGameType@BWAPI@@@4@$0A@@std@@@std@@IAE?AViterator@12@_NPAU_Node@?$_Tree_nod@V?$_Tset_traits@VGameType@BWAPI@@U?$less@VGameType@BWAPI@@@std@@V?$allocator@VGameType@BWAPI@@@4@$0A@@std@@@2@ABVGameType@BWAPI@@@Z 0042fbc0 f i BWAPI:GameType.obj
 0001:0002ebc0       ?_Insert@?$_Tree@V?$_Tset_traits@VPlayerType@BWAPI@@U?$less@VPlayerType@BWAPI@@@std@@V?$allocator@VPlayerType@BWAPI@@@4@$0A@@std@@@std@@IAE?AViterator@12@_NPAU_Node@?$_Tree_nod@V?$_Tset_traits@VPlayerType@BWAPI@@U?$less@VPlayerType@BWAPI@@@std@@V?$allocator@VPlayerType@BWAPI@@@4@$0A@@std@@@2@ABVPlayerType@BWAPI@@@Z 0042fbc0 f i BWAPI:PlayerType.obj
 0001:0002ebc0       ?_Insert@?$_Tree@V?$_Tset_traits@VUnitType@BWAPI@@U?$less@VUnitType@BWAPI@@@std@@V?$allocator@VUnitType@BWAPI@@@4@$0A@@std@@@std@@IAE?AViterator@12@_NPAU_Node@?$_Tree_nod@V?$_Tset_traits@VUnitType@BWAPI@@U?$less@VUnitType@BWAPI@@@std@@V?$allocator@VUnitType@BWAPI@@@4@$0A@@std@@@2@ABVUnitType@BWAPI@@@Z 0042fbc0 f i BWAPI:UnitType.obj
 0001:0002ebc0       ?_Insert@?$_Tree@V?$_Tset_traits@VError@BWAPI@@U?$less@VError@BWAPI@@@std@@V?$allocator@VError@BWAPI@@@4@$0A@@std@@@std@@IAE?AViterator@12@_NPAU_Node@?$_Tree_nod@V?$_Tset_traits@VError@BWAPI@@U?$less@VError@BWAPI@@@std@@V?$allocator@VError@BWAPI@@@4@$0A@@std@@@2@ABVError@BWAPI@@@Z 0042fbc0 f i BWAPI:Error.obj
 0001:0002ebc0       ?_Insert@?$_Tree@V?$_Tset_traits@VWeaponType@BWAPI@@U?$less@VWeaponType@BWAPI@@@std@@V?$allocator@VWeaponType@BWAPI@@@4@$0A@@std@@@std@@IAE?AViterator@12@_NPAU_Node@?$_Tree_nod@V?$_Tset_traits@VWeaponType@BWAPI@@U?$less@VWeaponType@BWAPI@@@std@@V?$allocator@VWeaponType@BWAPI@@@4@$0A@@std@@@2@ABVWeaponType@BWAPI@@@Z 0042fbc0 f i BWAPI:WeaponType.obj
 0001:0002ebc0       ?_Insert@?$_Tree@V?$_Tset_traits@VUnitCommandType@BWAPI@@U?$less@VUnitCommandType@BWAPI@@@std@@V?$allocator@VUnitCommandType@BWAPI@@@4@$0A@@std@@@std@@IAE?AViterator@12@_NPAU_Node@?$_Tree_nod@V?$_Tset_traits@VUnitCommandType@BWAPI@@U?$less@VUnitCommandType@BWAPI@@@std@@V?$allocator@VUnitCommandType@BWAPI@@@4@$0A@@std@@@2@ABVUnitCommandType@BWAPI@@@Z 0042fbc0 f i BWAPI:UnitCommandType.obj
 0001:0002ebc0       ?_Insert@?$_Tree@V?$_Tset_traits@VUnitSizeType@BWAPI@@U?$less@VUnitSizeType@BWAPI@@@std@@V?$allocator@VUnitSizeType@BWAPI@@@4@$0A@@std@@@std@@IAE?AViterator@12@_NPAU_Node@?$_Tree_nod@V?$_Tset_traits@VUnitSizeType@BWAPI@@U?$less@VUnitSizeType@BWAPI@@@std@@V?$allocator@VUnitSizeType@BWAPI@@@4@$0A@@std@@@2@ABVUnitSizeType@BWAPI@@@Z 0042fbc0 f i BWAPI:UnitSizeType.obj
 0001:0002ebc0       ?_Insert@?$_Tree@V?$_Tset_traits@VOrder@BWAPI@@U?$less@VOrder@BWAPI@@@std@@V?$allocator@VOrder@BWAPI@@@4@$0A@@std@@@std@@IAE?AViterator@12@_NPAU_Node@?$_Tree_nod@V?$_Tset_traits@VOrder@BWAPI@@U?$less@VOrder@BWAPI@@@std@@V?$allocator@VOrder@BWAPI@@@4@$0A@@std@@@2@ABVOrder@BWAPI@@@Z 0042fbc0 f i BWAPI:Order.obj
 0001:0002ebc0       ?_Insert@?$_Tree@V?$_Tset_traits@VExplosionType@BWAPI@@U?$less@VExplosionType@BWAPI@@@std@@V?$allocator@VExplosionType@BWAPI@@@4@$0A@@std@@@std@@IAE?AViterator@12@_NPAU_Node@?$_Tree_nod@V?$_Tset_traits@VExplosionType@BWAPI@@U?$less@VExplosionType@BWAPI@@@std@@V?$allocator@VExplosionType@BWAPI@@@4@$0A@@std@@@2@ABVExplosionType@BWAPI@@@Z 0042fbc0 f i BWAPI:ExplosionType.obj
 0001:0002ebc0       ?_Insert@?$_Tree@V?$_Tset_traits@VTechType@BWAPI@@U?$less@VTechType@BWAPI@@@std@@V?$allocator@VTechType@BWAPI@@@4@$0A@@std@@@std@@IAE?AViterator@12@_NPAU_Node@?$_Tree_nod@V?$_Tset_traits@VTechType@BWAPI@@U?$less@VTechType@BWAPI@@@std@@V?$allocator@VTechType@BWAPI@@@4@$0A@@std@@@2@ABVTechType@BWAPI@@@Z 0042fbc0 f i BWAPI:UnitType.obj
 0001:0002ebc0       ?_Insert@?$_Tree@V?$_Tset_traits@VBulletType@BWAPI@@U?$less@VBulletType@BWAPI@@@std@@V?$allocator@VBulletType@BWAPI@@@4@$0A@@std@@@std@@IAE?AViterator@12@_NPAU_Node@?$_Tree_nod@V?$_Tset_traits@VBulletType@BWAPI@@U?$less@VBulletType@BWAPI@@@std@@V?$allocator@VBulletType@BWAPI@@@4@$0A@@std@@@2@ABVBulletType@BWAPI@@@Z 0042fbc0 f i BWAPI:BulletType.obj
 0001:0002ebc0       ?_Insert@?$_Tree@V?$_Tset_traits@VUpgradeType@BWAPI@@U?$less@VUpgradeType@BWAPI@@@std@@V?$allocator@VUpgradeType@BWAPI@@@4@$0A@@std@@@std@@IAE?AViterator@12@_NPAU_Node@?$_Tree_nod@V?$_Tset_traits@VUpgradeType@BWAPI@@U?$less@VUpgradeType@BWAPI@@@std@@V?$allocator@VUpgradeType@BWAPI@@@4@$0A@@std@@@2@ABVUpgradeType@BWAPI@@@Z 0042fbc0 f i BWAPI:UnitType.obj
 0001:0002ebc0       ?_Insert@?$_Tree@V?$_Tset_traits@VRace@BWAPI@@U?$less@VRace@BWAPI@@@std@@V?$allocator@VRace@BWAPI@@@4@$0A@@std@@@std@@IAE?AViterator@12@_NPAU_Node@?$_Tree_nod@V?$_Tset_traits@VRace@BWAPI@@U?$less@VRace@BWAPI@@@std@@V?$allocator@VRace@BWAPI@@@4@$0A@@std@@@2@ABVRace@BWAPI@@@Z 0042fbc0 f i BWAPI:Race.obj
 0001:0002ebc0       ?_Insert@?$_Tree@V?$_Tset_traits@VDamageType@BWAPI@@U?$less@VDamageType@BWAPI@@@std@@V?$allocator@VDamageType@BWAPI@@@4@$0A@@std@@@std@@IAE?AViterator@12@_NPAU_Node@?$_Tree_nod@V?$_Tset_traits@VDamageType@BWAPI@@U?$less@VDamageType@BWAPI@@@std@@V?$allocator@VDamageType@BWAPI@@@4@$0A@@std@@@2@ABVDamageType@BWAPI@@@Z 0042fbc0 f i BWAPI:DamageType.obj
 0001:0002edc0       ?insert@?$_Tree@V?$_Tset_traits@VTechType@BWAPI@@U?$less@VTechType@BWAPI@@@std@@V?$allocator@VTechType@BWAPI@@@4@$0A@@std@@@std@@QAE?AU?$pair@Viterator@?$_Tree@V?$_Tset_traits@VTechType@BWAPI@@U?$less@VTechType@BWAPI@@@std@@V?$allocator@VTechType@BWAPI@@@4@$0A@@std@@@std@@_N@2@ABVTechType@BWAPI@@@Z 0042fdc0 f i BWAPI:UnitType.obj
 0001:0002edc0       ?insert@?$_Tree@V?$_Tset_traits@VUpgradeType@BWAPI@@U?$less@VUpgradeType@BWAPI@@@std@@V?$allocator@VUpgradeType@BWAPI@@@4@$0A@@std@@@std@@QAE?AU?$pair@Viterator@?$_Tree@V?$_Tset_traits@VUpgradeType@BWAPI@@U?$less@VUpgradeType@BWAPI@@@std@@V?$allocator@VUpgradeType@BWAPI@@@4@$0A@@std@@@std@@_N@2@ABVUpgradeType@BWAPI@@@Z 0042fdc0 f i BWAPI:UnitType.obj
 0001:0002edc0       ?insert@?$_Tree@V?$_Tset_traits@VExplosionType@BWAPI@@U?$less@VExplosionType@BWAPI@@@std@@V?$allocator@VExplosionType@BWAPI@@@4@$0A@@std@@@std@@QAE?AU?$pair@Viterator@?$_Tree@V?$_Tset_traits@VExplosionType@BWAPI@@U?$less@VExplosionType@BWAPI@@@std@@V?$allocator@VExplosionType@BWAPI@@@4@$0A@@std@@@std@@_N@2@ABVExplosionType@BWAPI@@@Z 0042fdc0 f i BWAPI:ExplosionType.obj
 0001:0002edc0       ?insert@?$_Tree@V?$_Tset_traits@VWeaponType@BWAPI@@U?$less@VWeaponType@BWAPI@@@std@@V?$allocator@VWeaponType@BWAPI@@@4@$0A@@std@@@std@@QAE?AU?$pair@Viterator@?$_Tree@V?$_Tset_traits@VWeaponType@BWAPI@@U?$less@VWeaponType@BWAPI@@@std@@V?$allocator@VWeaponType@BWAPI@@@4@$0A@@std@@@std@@_N@2@ABVWeaponType@BWAPI@@@Z 0042fdc0 f i BWAPI:WeaponType.obj
 0001:0002edc0       ?insert@?$_Tree@V?$_Tset_traits@VDamageType@BWAPI@@U?$less@VDamageType@BWAPI@@@std@@V?$allocator@VDamageType@BWAPI@@@4@$0A@@std@@@std@@QAE?AU?$pair@Viterator@?$_Tree@V?$_Tset_traits@VDamageType@BWAPI@@U?$less@VDamageType@BWAPI@@@std@@V?$allocator@VDamageType@BWAPI@@@4@$0A@@std@@@std@@_N@2@ABVDamageType@BWAPI@@@Z 0042fdc0 f i BWAPI:DamageType.obj
 0001:0002edc0       ?insert@?$_Tree@V?$_Tset_traits@VOrder@BWAPI@@U?$less@VOrder@BWAPI@@@std@@V?$allocator@VOrder@BWAPI@@@4@$0A@@std@@@std@@QAE?AU?$pair@Viterator@?$_Tree@V?$_Tset_traits@VOrder@BWAPI@@U?$less@VOrder@BWAPI@@@std@@V?$allocator@VOrder@BWAPI@@@4@$0A@@std@@@std@@_N@2@ABVOrder@BWAPI@@@Z 0042fdc0 f i BWAPI:Order.obj
 0001:0002edc0       ?insert@?$_Tree@V?$_Tset_traits@VUnitCommandType@BWAPI@@U?$less@VUnitCommandType@BWAPI@@@std@@V?$allocator@VUnitCommandType@BWAPI@@@4@$0A@@std@@@std@@QAE?AU?$pair@Viterator@?$_Tree@V?$_Tset_traits@VUnitCommandType@BWAPI@@U?$less@VUnitCommandType@BWAPI@@@std@@V?$allocator@VUnitCommandType@BWAPI@@@4@$0A@@std@@@std@@_N@2@ABVUnitCommandType@BWAPI@@@Z 0042fdc0 f i BWAPI:UnitCommandType.obj
 0001:0002edc0       ?insert@?$_Tree@V?$_Tset_traits@VGameType@BWAPI@@U?$less@VGameType@BWAPI@@@std@@V?$allocator@VGameType@BWAPI@@@4@$0A@@std@@@std@@QAE?AU?$pair@Viterator@?$_Tree@V?$_Tset_traits@VGameType@BWAPI@@U?$less@VGameType@BWAPI@@@std@@V?$allocator@VGameType@BWAPI@@@4@$0A@@std@@@std@@_N@2@ABVGameType@BWAPI@@@Z 0042fdc0 f i BWAPI:GameType.obj
 0001:0002edc0       ?insert@?$_Tree@V?$_Tset_traits@VUnitType@BWAPI@@U?$less@VUnitType@BWAPI@@@std@@V?$allocator@VUnitType@BWAPI@@@4@$0A@@std@@@std@@QAE?AU?$pair@Viterator@?$_Tree@V?$_Tset_traits@VUnitType@BWAPI@@U?$less@VUnitType@BWAPI@@@std@@V?$allocator@VUnitType@BWAPI@@@4@$0A@@std@@@std@@_N@2@ABVUnitType@BWAPI@@@Z 0042fdc0 f i BWAPI:UnitType.obj
 0001:0002edc0       ?insert@?$_Tree@V?$_Tset_traits@VError@BWAPI@@U?$less@VError@BWAPI@@@std@@V?$allocator@VError@BWAPI@@@4@$0A@@std@@@std@@QAE?AU?$pair@Viterator@?$_Tree@V?$_Tset_traits@VError@BWAPI@@U?$less@VError@BWAPI@@@std@@V?$allocator@VError@BWAPI@@@4@$0A@@std@@@std@@_N@2@ABVError@BWAPI@@@Z 0042fdc0 f i BWAPI:Error.obj
 0001:0002edc0       ?insert@?$_Tree@V?$_Tset_traits@VBulletType@BWAPI@@U?$less@VBulletType@BWAPI@@@std@@V?$allocator@VBulletType@BWAPI@@@4@$0A@@std@@@std@@QAE?AU?$pair@Viterator@?$_Tree@V?$_Tset_traits@VBulletType@BWAPI@@U?$less@VBulletType@BWAPI@@@std@@V?$allocator@VBulletType@BWAPI@@@4@$0A@@std@@@std@@_N@2@ABVBulletType@BWAPI@@@Z 0042fdc0 f i BWAPI:BulletType.obj
 0001:0002edc0       ?insert@?$_Tree@V?$_Tset_traits@VUnitSizeType@BWAPI@@U?$less@VUnitSizeType@BWAPI@@@std@@V?$allocator@VUnitSizeType@BWAPI@@@4@$0A@@std@@@std@@QAE?AU?$pair@Viterator@?$_Tree@V?$_Tset_traits@VUnitSizeType@BWAPI@@U?$less@VUnitSizeType@BWAPI@@@std@@V?$allocator@VUnitSizeType@BWAPI@@@4@$0A@@std@@@std@@_N@2@ABVUnitSizeType@BWAPI@@@Z 0042fdc0 f i BWAPI:UnitSizeType.obj
 0001:0002edc0       ?insert@?$_Tree@V?$_Tset_traits@VRace@BWAPI@@U?$less@VRace@BWAPI@@@std@@V?$allocator@VRace@BWAPI@@@4@$0A@@std@@@std@@QAE?AU?$pair@Viterator@?$_Tree@V?$_Tset_traits@VRace@BWAPI@@U?$less@VRace@BWAPI@@@std@@V?$allocator@VRace@BWAPI@@@4@$0A@@std@@@std@@_N@2@ABVRace@BWAPI@@@Z 0042fdc0 f i BWAPI:Race.obj
 0001:0002edc0       ?insert@?$_Tree@V?$_Tset_traits@VPlayerType@BWAPI@@U?$less@VPlayerType@BWAPI@@@std@@V?$allocator@VPlayerType@BWAPI@@@4@$0A@@std@@@std@@QAE?AU?$pair@Viterator@?$_Tree@V?$_Tset_traits@VPlayerType@BWAPI@@U?$less@VPlayerType@BWAPI@@@std@@V?$allocator@VPlayerType@BWAPI@@@4@$0A@@std@@@std@@_N@2@ABVPlayerType@BWAPI@@@Z 0042fdc0 f i BWAPI:PlayerType.obj
 0001:0002eee0       ?init@Errors@BWAPI@@YAXXZ  0042fee0 f   BWAPI:Error.obj
 0001:0002f690       ?_Min@?$_Tree@V?$_Tset_traits@VGameType@BWAPI@@U?$less@VGameType@BWAPI@@@std@@V?$allocator@VGameType@BWAPI@@@4@$0A@@std@@@std@@KAPAU_Node@?$_Tree_nod@V?$_Tset_traits@VGameType@BWAPI@@U?$less@VGameType@BWAPI@@@std@@V?$allocator@VGameType@BWAPI@@@4@$0A@@std@@@2@PAU342@@Z 00430690 f i BWAPI:GameType.obj
 0001:0002f690       ?_Min@?$_Tree@V?$_Tset_traits@VError@BWAPI@@U?$less@VError@BWAPI@@@std@@V?$allocator@VError@BWAPI@@@4@$0A@@std@@@std@@KAPAU_Node@?$_Tree_nod@V?$_Tset_traits@VError@BWAPI@@U?$less@VError@BWAPI@@@std@@V?$allocator@VError@BWAPI@@@4@$0A@@std@@@2@PAU342@@Z 00430690 f i BWAPI:Error.obj
 0001:0002f690       ?_Min@?$_Tree@V?$_Tset_traits@VUpgradeType@BWAPI@@U?$less@VUpgradeType@BWAPI@@@std@@V?$allocator@VUpgradeType@BWAPI@@@4@$0A@@std@@@std@@KAPAU_Node@?$_Tree_nod@V?$_Tset_traits@VUpgradeType@BWAPI@@U?$less@VUpgradeType@BWAPI@@@std@@V?$allocator@VUpgradeType@BWAPI@@@4@$0A@@std@@@2@PAU342@@Z 00430690 f i BWAPI:UnitType.obj
 0001:0002f690       ?_Min@?$_Tree@V?$_Tset_traits@VExplosionType@BWAPI@@U?$less@VExplosionType@BWAPI@@@std@@V?$allocator@VExplosionType@BWAPI@@@4@$0A@@std@@@std@@KAPAU_Node@?$_Tree_nod@V?$_Tset_traits@VExplosionType@BWAPI@@U?$less@VExplosionType@BWAPI@@@std@@V?$allocator@VExplosionType@BWAPI@@@4@$0A@@std@@@2@PAU342@@Z 00430690 f i BWAPI:ExplosionType.obj
 0001:0002f690       ?_Min@?$_Tree@V?$_Tset_traits@VDamageType@BWAPI@@U?$less@VDamageType@BWAPI@@@std@@V?$allocator@VDamageType@BWAPI@@@4@$0A@@std@@@std@@KAPAU_Node@?$_Tree_nod@V?$_Tset_traits@VDamageType@BWAPI@@U?$less@VDamageType@BWAPI@@@std@@V?$allocator@VDamageType@BWAPI@@@4@$0A@@std@@@2@PAU342@@Z 00430690 f i BWAPI:DamageType.obj
 0001:0002f690       ?_Min@?$_Tree@V?$_Tset_traits@VUnitSizeType@BWAPI@@U?$less@VUnitSizeType@BWAPI@@@std@@V?$allocator@VUnitSizeType@BWAPI@@@4@$0A@@std@@@std@@KAPAU_Node@?$_Tree_nod@V?$_Tset_traits@VUnitSizeType@BWAPI@@U?$less@VUnitSizeType@BWAPI@@@std@@V?$allocator@VUnitSizeType@BWAPI@@@4@$0A@@std@@@2@PAU342@@Z 00430690 f i BWAPI:UnitSizeType.obj
 0001:0002f690       ?_Min@?$_Tree@V?$_Tset_traits@VPlayerType@BWAPI@@U?$less@VPlayerType@BWAPI@@@std@@V?$allocator@VPlayerType@BWAPI@@@4@$0A@@std@@@std@@KAPAU_Node@?$_Tree_nod@V?$_Tset_traits@VPlayerType@BWAPI@@U?$less@VPlayerType@BWAPI@@@std@@V?$allocator@VPlayerType@BWAPI@@@4@$0A@@std@@@2@PAU342@@Z 00430690 f i BWAPI:PlayerType.obj
 0001:0002f690       ?_Min@?$_Tree@V?$_Tset_traits@VRace@BWAPI@@U?$less@VRace@BWAPI@@@std@@V?$allocator@VRace@BWAPI@@@4@$0A@@std@@@std@@KAPAU_Node@?$_Tree_nod@V?$_Tset_traits@VRace@BWAPI@@U?$less@VRace@BWAPI@@@std@@V?$allocator@VRace@BWAPI@@@4@$0A@@std@@@2@PAU342@@Z 00430690 f i BWAPI:Race.obj
 0001:0002f690       ?_Min@?$_Tree@V?$_Tset_traits@VWeaponType@BWAPI@@U?$less@VWeaponType@BWAPI@@@std@@V?$allocator@VWeaponType@BWAPI@@@4@$0A@@std@@@std@@KAPAU_Node@?$_Tree_nod@V?$_Tset_traits@VWeaponType@BWAPI@@U?$less@VWeaponType@BWAPI@@@std@@V?$allocator@VWeaponType@BWAPI@@@4@$0A@@std@@@2@PAU342@@Z 00430690 f i BWAPI:WeaponType.obj
 0001:0002f690       ?_Min@?$_Tree@V?$_Tset_traits@VUnitCommandType@BWAPI@@U?$less@VUnitCommandType@BWAPI@@@std@@V?$allocator@VUnitCommandType@BWAPI@@@4@$0A@@std@@@std@@KAPAU_Node@?$_Tree_nod@V?$_Tset_traits@VUnitCommandType@BWAPI@@U?$less@VUnitCommandType@BWAPI@@@std@@V?$allocator@VUnitCommandType@BWAPI@@@4@$0A@@std@@@2@PAU342@@Z 00430690 f i BWAPI:UnitCommandType.obj
 0001:0002f690       ?_Min@?$_Tree@V?$_Tset_traits@VTechType@BWAPI@@U?$less@VTechType@BWAPI@@@std@@V?$allocator@VTechType@BWAPI@@@4@$0A@@std@@@std@@KAPAU_Node@?$_Tree_nod@V?$_Tset_traits@VTechType@BWAPI@@U?$less@VTechType@BWAPI@@@std@@V?$allocator@VTechType@BWAPI@@@4@$0A@@std@@@2@PAU342@@Z 00430690 f i BWAPI:UnitType.obj
 0001:0002f690       ?_Min@?$_Tree@V?$_Tset_traits@VBulletType@BWAPI@@U?$less@VBulletType@BWAPI@@@std@@V?$allocator@VBulletType@BWAPI@@@4@$0A@@std@@@std@@KAPAU_Node@?$_Tree_nod@V?$_Tset_traits@VBulletType@BWAPI@@U?$less@VBulletType@BWAPI@@@std@@V?$allocator@VBulletType@BWAPI@@@4@$0A@@std@@@2@PAU342@@Z 00430690 f i BWAPI:BulletType.obj
 0001:0002f690       ?_Min@?$_Tree@V?$_Tset_traits@VUnitType@BWAPI@@U?$less@VUnitType@BWAPI@@@std@@V?$allocator@VUnitType@BWAPI@@@4@$0A@@std@@@std@@KAPAU_Node@?$_Tree_nod@V?$_Tset_traits@VUnitType@BWAPI@@U?$less@VUnitType@BWAPI@@@std@@V?$allocator@VUnitType@BWAPI@@@4@$0A@@std@@@2@PAU342@@Z 00430690 f i BWAPI:UnitType.obj
 0001:0002f690       ?_Min@?$_Tree@V?$_Tset_traits@VOrder@BWAPI@@U?$less@VOrder@BWAPI@@@std@@V?$allocator@VOrder@BWAPI@@@4@$0A@@std@@@std@@KAPAU_Node@?$_Tree_nod@V?$_Tset_traits@VOrder@BWAPI@@U?$less@VOrder@BWAPI@@@std@@V?$allocator@VOrder@BWAPI@@@4@$0A@@std@@@2@PAU342@@Z 00430690 f i BWAPI:Order.obj
 0001:0002f6b0       ?_Lrotate@?$_Tree@V?$_Tset_traits@VOrder@BWAPI@@U?$less@VOrder@BWAPI@@@std@@V?$allocator@VOrder@BWAPI@@@4@$0A@@std@@@std@@IAEXPAU_Node@?$_Tree_nod@V?$_Tset_traits@VOrder@BWAPI@@U?$less@VOrder@BWAPI@@@std@@V?$allocator@VOrder@BWAPI@@@4@$0A@@std@@@2@@Z 004306b0 f i BWAPI:Order.obj
 0001:0002f6b0       ?_Lrotate@?$_Tree@V?$_Tset_traits@VPlayerType@BWAPI@@U?$less@VPlayerType@BWAPI@@@std@@V?$allocator@VPlayerType@BWAPI@@@4@$0A@@std@@@std@@IAEXPAU_Node@?$_Tree_nod@V?$_Tset_traits@VPlayerType@BWAPI@@U?$less@VPlayerType@BWAPI@@@std@@V?$allocator@VPlayerType@BWAPI@@@4@$0A@@std@@@2@@Z 004306b0 f i BWAPI:PlayerType.obj
 0001:0002f6b0       ?_Lrotate@?$_Tree@V?$_Tset_traits@VRace@BWAPI@@U?$less@VRace@BWAPI@@@std@@V?$allocator@VRace@BWAPI@@@4@$0A@@std@@@std@@IAEXPAU_Node@?$_Tree_nod@V?$_Tset_traits@VRace@BWAPI@@U?$less@VRace@BWAPI@@@std@@V?$allocator@VRace@BWAPI@@@4@$0A@@std@@@2@@Z 004306b0 f i BWAPI:Race.obj
 0001:0002f6b0       ?_Lrotate@?$_Tree@V?$_Tset_traits@VUnitType@BWAPI@@U?$less@VUnitType@BWAPI@@@std@@V?$allocator@VUnitType@BWAPI@@@4@$0A@@std@@@std@@IAEXPAU_Node@?$_Tree_nod@V?$_Tset_traits@VUnitType@BWAPI@@U?$less@VUnitType@BWAPI@@@std@@V?$allocator@VUnitType@BWAPI@@@4@$0A@@std@@@2@@Z 004306b0 f i BWAPI:UnitType.obj
 0001:0002f6b0       ?_Lrotate@?$_Tree@V?$_Tset_traits@VWeaponType@BWAPI@@U?$less@VWeaponType@BWAPI@@@std@@V?$allocator@VWeaponType@BWAPI@@@4@$0A@@std@@@std@@IAEXPAU_Node@?$_Tree_nod@V?$_Tset_traits@VWeaponType@BWAPI@@U?$less@VWeaponType@BWAPI@@@std@@V?$allocator@VWeaponType@BWAPI@@@4@$0A@@std@@@2@@Z 004306b0 f i BWAPI:WeaponType.obj
 0001:0002f6b0       ?_Lrotate@?$_Tree@V?$_Tset_traits@VExplosionType@BWAPI@@U?$less@VExplosionType@BWAPI@@@std@@V?$allocator@VExplosionType@BWAPI@@@4@$0A@@std@@@std@@IAEXPAU_Node@?$_Tree_nod@V?$_Tset_traits@VExplosionType@BWAPI@@U?$less@VExplosionType@BWAPI@@@std@@V?$allocator@VExplosionType@BWAPI@@@4@$0A@@std@@@2@@Z 004306b0 f i BWAPI:ExplosionType.obj
 0001:0002f6b0       ?_Lrotate@?$_Tree@V?$_Tset_traits@VUnitSizeType@BWAPI@@U?$less@VUnitSizeType@BWAPI@@@std@@V?$allocator@VUnitSizeType@BWAPI@@@4@$0A@@std@@@std@@IAEXPAU_Node@?$_Tree_nod@V?$_Tset_traits@VUnitSizeType@BWAPI@@U?$less@VUnitSizeType@BWAPI@@@std@@V?$allocator@VUnitSizeType@BWAPI@@@4@$0A@@std@@@2@@Z 004306b0 f i BWAPI:UnitSizeType.obj
 0001:0002f6b0       ?_Lrotate@?$_Tree@V?$_Tset_traits@VUnitCommandType@BWAPI@@U?$less@VUnitCommandType@BWAPI@@@std@@V?$allocator@VUnitCommandType@BWAPI@@@4@$0A@@std@@@std@@IAEXPAU_Node@?$_Tree_nod@V?$_Tset_traits@VUnitCommandType@BWAPI@@U?$less@VUnitCommandType@BWAPI@@@std@@V?$allocator@VUnitCommandType@BWAPI@@@4@$0A@@std@@@2@@Z 004306b0 f i BWAPI:UnitCommandType.obj
 0001:0002f6b0       ?_Lrotate@?$_Tree@V?$_Tset_traits@VDamageType@BWAPI@@U?$less@VDamageType@BWAPI@@@std@@V?$allocator@VDamageType@BWAPI@@@4@$0A@@std@@@std@@IAEXPAU_Node@?$_Tree_nod@V?$_Tset_traits@VDamageType@BWAPI@@U?$less@VDamageType@BWAPI@@@std@@V?$allocator@VDamageType@BWAPI@@@4@$0A@@std@@@2@@Z 004306b0 f i BWAPI:DamageType.obj
 0001:0002f6b0       ?_Lrotate@?$_Tree@V?$_Tset_traits@VError@BWAPI@@U?$less@VError@BWAPI@@@std@@V?$allocator@VError@BWAPI@@@4@$0A@@std@@@std@@IAEXPAU_Node@?$_Tree_nod@V?$_Tset_traits@VError@BWAPI@@U?$less@VError@BWAPI@@@std@@V?$allocator@VError@BWAPI@@@4@$0A@@std@@@2@@Z 004306b0 f i BWAPI:Error.obj
 0001:0002f6b0       ?_Lrotate@?$_Tree@V?$_Tset_traits@VGameType@BWAPI@@U?$less@VGameType@BWAPI@@@std@@V?$allocator@VGameType@BWAPI@@@4@$0A@@std@@@std@@IAEXPAU_Node@?$_Tree_nod@V?$_Tset_traits@VGameType@BWAPI@@U?$less@VGameType@BWAPI@@@std@@V?$allocator@VGameType@BWAPI@@@4@$0A@@std@@@2@@Z 004306b0 f i BWAPI:GameType.obj
 0001:0002f6b0       ?_Lrotate@?$_Tree@V?$_Tset_traits@VTechType@BWAPI@@U?$less@VTechType@BWAPI@@@std@@V?$allocator@VTechType@BWAPI@@@4@$0A@@std@@@std@@IAEXPAU_Node@?$_Tree_nod@V?$_Tset_traits@VTechType@BWAPI@@U?$less@VTechType@BWAPI@@@std@@V?$allocator@VTechType@BWAPI@@@4@$0A@@std@@@2@@Z 004306b0 f i BWAPI:UnitType.obj
 0001:0002f6b0       ?_Lrotate@?$_Tree@V?$_Tset_traits@VUpgradeType@BWAPI@@U?$less@VUpgradeType@BWAPI@@@std@@V?$allocator@VUpgradeType@BWAPI@@@4@$0A@@std@@@std@@IAEXPAU_Node@?$_Tree_nod@V?$_Tset_traits@VUpgradeType@BWAPI@@U?$less@VUpgradeType@BWAPI@@@std@@V?$allocator@VUpgradeType@BWAPI@@@4@$0A@@std@@@2@@Z 004306b0 f i BWAPI:UnitType.obj
 0001:0002f6b0       ?_Lrotate@?$_Tree@V?$_Tset_traits@VBulletType@BWAPI@@U?$less@VBulletType@BWAPI@@@std@@V?$allocator@VBulletType@BWAPI@@@4@$0A@@std@@@std@@IAEXPAU_Node@?$_Tree_nod@V?$_Tset_traits@VBulletType@BWAPI@@U?$less@VBulletType@BWAPI@@@std@@V?$allocator@VBulletType@BWAPI@@@4@$0A@@std@@@2@@Z 004306b0 f i BWAPI:BulletType.obj
 0001:0002f700       ?_Dec@const_iterator@?$_Tree@V?$_Tmap_traits@V?$basic_string@DU?$char_traits@D@std@@V?$allocator@D@2@@std@@VRace@BWAPI@@U?$less@V?$basic_string@DU?$char_traits@D@std@@V?$allocator@D@2@@std@@@2@V?$allocator@U?$pair@$$CBV?$basic_string@DU?$char_traits@D@std@@V?$allocator@D@2@@std@@VRace@BWAPI@@@std@@@2@$0A@@std@@@std@@QAEXXZ 00430700 f i BWAPI:Race.obj
 0001:0002f700       ?_Dec@const_iterator@?$_Tree@V?$_Tmap_traits@V?$basic_string@DU?$char_traits@D@std@@V?$allocator@D@2@@std@@VExplosionType@BWAPI@@U?$less@V?$basic_string@DU?$char_traits@D@std@@V?$allocator@D@2@@std@@@2@V?$allocator@U?$pair@$$CBV?$basic_string@DU?$char_traits@D@std@@V?$allocator@D@2@@std@@VExplosionType@BWAPI@@@std@@@2@$0A@@std@@@std@@QAEXXZ 00430700 f i BWAPI:ExplosionType.obj
 0001:0002f700       ?_Dec@const_iterator@?$_Tree@V?$_Tmap_traits@V?$basic_string@DU?$char_traits@D@std@@V?$allocator@D@2@@std@@VGameType@BWAPI@@U?$less@V?$basic_string@DU?$char_traits@D@std@@V?$allocator@D@2@@std@@@2@V?$allocator@U?$pair@$$CBV?$basic_string@DU?$char_traits@D@std@@V?$allocator@D@2@@std@@VGameType@BWAPI@@@std@@@2@$0A@@std@@@std@@QAEXXZ 00430700 f i BWAPI:GameType.obj
 0001:0002f700       ?_Dec@const_iterator@?$_Tree@V?$_Tmap_traits@V?$basic_string@DU?$char_traits@D@std@@V?$allocator@D@2@@std@@VUpgradeType@BWAPI@@U?$less@V?$basic_string@DU?$char_traits@D@std@@V?$allocator@D@2@@std@@@2@V?$allocator@U?$pair@$$CBV?$basic_string@DU?$char_traits@D@std@@V?$allocator@D@2@@std@@VUpgradeType@BWAPI@@@std@@@2@$0A@@std@@@std@@QAEXXZ 00430700 f i BWAPI:UpgradeType.obj
 0001:0002f700       ?_Dec@const_iterator@?$_Tree@V?$_Tmap_traits@V?$basic_string@DU?$char_traits@D@std@@V?$allocator@D@2@@std@@VWeaponType@BWAPI@@U?$less@V?$basic_string@DU?$char_traits@D@std@@V?$allocator@D@2@@std@@@2@V?$allocator@U?$pair@$$CBV?$basic_string@DU?$char_traits@D@std@@V?$allocator@D@2@@std@@VWeaponType@BWAPI@@@std@@@2@$0A@@std@@@std@@QAEXXZ 00430700 f i BWAPI:WeaponType.obj
 0001:0002f700       ?_Dec@const_iterator@?$_Tree@V?$_Tmap_traits@V?$basic_string@DU?$char_traits@D@std@@V?$allocator@D@2@@std@@VPlayerType@BWAPI@@U?$less@V?$basic_string@DU?$char_traits@D@std@@V?$allocator@D@2@@std@@@2@V?$allocator@U?$pair@$$CBV?$basic_string@DU?$char_traits@D@std@@V?$allocator@D@2@@std@@VPlayerType@BWAPI@@@std@@@2@$0A@@std@@@std@@QAEXXZ 00430700 f i BWAPI:PlayerType.obj
 0001:0002f700       ?_Dec@const_iterator@?$_Tree@V?$_Tmap_traits@V?$basic_string@DU?$char_traits@D@std@@V?$allocator@D@2@@std@@VUnitCommandType@BWAPI@@U?$less@V?$basic_string@DU?$char_traits@D@std@@V?$allocator@D@2@@std@@@2@V?$allocator@U?$pair@$$CBV?$basic_string@DU?$char_traits@D@std@@V?$allocator@D@2@@std@@VUnitCommandType@BWAPI@@@std@@@2@$0A@@std@@@std@@QAEXXZ 00430700 f i BWAPI:UnitCommandType.obj
 0001:0002f700       ?_Dec@const_iterator@?$_Tree@V?$_Tmap_traits@V?$basic_string@DU?$char_traits@D@std@@V?$allocator@D@2@@std@@VUnitType@BWAPI@@U?$less@V?$basic_string@DU?$char_traits@D@std@@V?$allocator@D@2@@std@@@2@V?$allocator@U?$pair@$$CBV?$basic_string@DU?$char_traits@D@std@@V?$allocator@D@2@@std@@VUnitType@BWAPI@@@std@@@2@$0A@@std@@@std@@QAEXXZ 00430700 f i BWAPI:UnitType.obj
 0001:0002f700       ?_Dec@const_iterator@?$_Tree@V?$_Tmap_traits@V?$basic_string@DU?$char_traits@D@std@@V?$allocator@D@2@@std@@VBulletType@BWAPI@@U?$less@V?$basic_string@DU?$char_traits@D@std@@V?$allocator@D@2@@std@@@2@V?$allocator@U?$pair@$$CBV?$basic_string@DU?$char_traits@D@std@@V?$allocator@D@2@@std@@VBulletType@BWAPI@@@std@@@2@$0A@@std@@@std@@QAEXXZ 00430700 f i BWAPI:BulletType.obj
 0001:0002f700       ?_Dec@const_iterator@?$_Tree@V?$_Tmap_traits@V?$basic_string@DU?$char_traits@D@std@@V?$allocator@D@2@@std@@VTechType@BWAPI@@U?$less@V?$basic_string@DU?$char_traits@D@std@@V?$allocator@D@2@@std@@@2@V?$allocator@U?$pair@$$CBV?$basic_string@DU?$char_traits@D@std@@V?$allocator@D@2@@std@@VTechType@BWAPI@@@std@@@2@$0A@@std@@@std@@QAEXXZ 00430700 f i BWAPI:TechType.obj
 0001:0002f700       ?_Dec@const_iterator@?$_Tree@V?$_Tmap_traits@V?$basic_string@DU?$char_traits@D@std@@V?$allocator@D@2@@std@@VOrder@BWAPI@@U?$less@V?$basic_string@DU?$char_traits@D@std@@V?$allocator@D@2@@std@@@2@V?$allocator@U?$pair@$$CBV?$basic_string@DU?$char_traits@D@std@@V?$allocator@D@2@@std@@VOrder@BWAPI@@@std@@@2@$0A@@std@@@std@@QAEXXZ 00430700 f i BWAPI:Order.obj
 0001:0002f700       ?_Dec@const_iterator@?$_Tree@V?$_Tmap_traits@V?$basic_string@DU?$char_traits@D@std@@V?$allocator@D@2@@std@@VUnitSizeType@BWAPI@@U?$less@V?$basic_string@DU?$char_traits@D@std@@V?$allocator@D@2@@std@@@2@V?$allocator@U?$pair@$$CBV?$basic_string@DU?$char_traits@D@std@@V?$allocator@D@2@@std@@VUnitSizeType@BWAPI@@@std@@@2@$0A@@std@@@std@@QAEXXZ 00430700 f i BWAPI:UnitSizeType.obj
 0001:0002f700       ?_Dec@const_iterator@?$_Tree@V?$_Tmap_traits@V?$basic_string@DU?$char_traits@D@std@@V?$allocator@D@2@@std@@VError@BWAPI@@U?$less@V?$basic_string@DU?$char_traits@D@std@@V?$allocator@D@2@@std@@@2@V?$allocator@U?$pair@$$CBV?$basic_string@DU?$char_traits@D@std@@V?$allocator@D@2@@std@@VError@BWAPI@@@std@@@2@$0A@@std@@@std@@QAEXXZ 00430700 f i BWAPI:Error.obj
 0001:0002f700       ?_Dec@const_iterator@?$_Tree@V?$_Tmap_traits@V?$basic_string@DU?$char_traits@D@std@@V?$allocator@D@2@@std@@VDamageType@BWAPI@@U?$less@V?$basic_string@DU?$char_traits@D@std@@V?$allocator@D@2@@std@@@2@V?$allocator@U?$pair@$$CBV?$basic_string@DU?$char_traits@D@std@@V?$allocator@D@2@@std@@VDamageType@BWAPI@@@std@@@2@$0A@@std@@@std@@QAEXXZ 00430700 f i BWAPI:DamageType.obj
 0001:0002f790       ?init@BulletTypes@BWAPI@@YAXXZ 00430790 f   BWAPI:BulletType.obj
 0001:00030140       ?_Max@?$_Tree@V?$_Tmap_traits@V?$basic_string@DU?$char_traits@D@std@@V?$allocator@D@2@@std@@VGameType@BWAPI@@U?$less@V?$basic_string@DU?$char_traits@D@std@@V?$allocator@D@2@@std@@@2@V?$allocator@U?$pair@$$CBV?$basic_string@DU?$char_traits@D@std@@V?$allocator@D@2@@std@@VGameType@BWAPI@@@std@@@2@$0A@@std@@@std@@KAPAU_Node@?$_Tree_nod@V?$_Tmap_traits@V?$basic_string@DU?$char_traits@D@std@@V?$allocator@D@2@@std@@VGameType@BWAPI@@U?$less@V?$basic_string@DU?$char_traits@D@std@@V?$allocator@D@2@@std@@@2@V?$allocator@U?$pair@$$CBV?$basic_string@DU?$char_traits@D@std@@V?$allocator@D@2@@std@@VGameType@BWAPI@@@std@@@2@$0A@@std@@@2@PAU342@@Z 00431140 f i BWAPI:GameType.obj
 0001:00030140       ?_Max@?$_Tree@V?$_Tmap_traits@V?$basic_string@DU?$char_traits@D@std@@V?$allocator@D@2@@std@@VUnitSizeType@BWAPI@@U?$less@V?$basic_string@DU?$char_traits@D@std@@V?$allocator@D@2@@std@@@2@V?$allocator@U?$pair@$$CBV?$basic_string@DU?$char_traits@D@std@@V?$allocator@D@2@@std@@VUnitSizeType@BWAPI@@@std@@@2@$0A@@std@@@std@@KAPAU_Node@?$_Tree_nod@V?$_Tmap_traits@V?$basic_string@DU?$char_traits@D@std@@V?$allocator@D@2@@std@@VUnitSizeType@BWAPI@@U?$less@V?$basic_string@DU?$char_traits@D@std@@V?$allocator@D@2@@std@@@2@V?$allocator@U?$pair@$$CBV?$basic_string@DU?$char_traits@D@std@@V?$allocator@D@2@@std@@VUnitSizeType@BWAPI@@@std@@@2@$0A@@std@@@2@PAU342@@Z 00431140 f i BWAPI:UnitSizeType.obj
 0001:00030140       ?_Max@?$_Tree@V?$_Tmap_traits@V?$basic_string@DU?$char_traits@D@std@@V?$allocator@D@2@@std@@VDamageType@BWAPI@@U?$less@V?$basic_string@DU?$char_traits@D@std@@V?$allocator@D@2@@std@@@2@V?$allocator@U?$pair@$$CBV?$basic_string@DU?$char_traits@D@std@@V?$allocator@D@2@@std@@VDamageType@BWAPI@@@std@@@2@$0A@@std@@@std@@KAPAU_Node@?$_Tree_nod@V?$_Tmap_traits@V?$basic_string@DU?$char_traits@D@std@@V?$allocator@D@2@@std@@VDamageType@BWAPI@@U?$less@V?$basic_string@DU?$char_traits@D@std@@V?$allocator@D@2@@std@@@2@V?$allocator@U?$pair@$$CBV?$basic_string@DU?$char_traits@D@std@@V?$allocator@D@2@@std@@VDamageType@BWAPI@@@std@@@2@$0A@@std@@@2@PAU342@@Z 00431140 f i BWAPI:DamageType.obj
 0001:00030140       ?_Max@?$_Tree@V?$_Tmap_traits@V?$basic_string@DU?$char_traits@D@std@@V?$allocator@D@2@@std@@VUnitType@BWAPI@@U?$less@V?$basic_string@DU?$char_traits@D@std@@V?$allocator@D@2@@std@@@2@V?$allocator@U?$pair@$$CBV?$basic_string@DU?$char_traits@D@std@@V?$allocator@D@2@@std@@VUnitType@BWAPI@@@std@@@2@$0A@@std@@@std@@KAPAU_Node@?$_Tree_nod@V?$_Tmap_traits@V?$basic_string@DU?$char_traits@D@std@@V?$allocator@D@2@@std@@VUnitType@BWAPI@@U?$less@V?$basic_string@DU?$char_traits@D@std@@V?$allocator@D@2@@std@@@2@V?$allocator@U?$pair@$$CBV?$basic_string@DU?$char_traits@D@std@@V?$allocator@D@2@@std@@VUnitType@BWAPI@@@std@@@2@$0A@@std@@@2@PAU342@@Z 00431140 f i BWAPI:UnitType.obj
 0001:00030140       ?_Max@?$_Tree@V?$_Tmap_traits@V?$basic_string@DU?$char_traits@D@std@@V?$allocator@D@2@@std@@VRace@BWAPI@@U?$less@V?$basic_string@DU?$char_traits@D@std@@V?$allocator@D@2@@std@@@2@V?$allocator@U?$pair@$$CBV?$basic_string@DU?$char_traits@D@std@@V?$allocator@D@2@@std@@VRace@BWAPI@@@std@@@2@$0A@@std@@@std@@KAPAU_Node@?$_Tree_nod@V?$_Tmap_traits@V?$basic_string@DU?$char_traits@D@std@@V?$allocator@D@2@@std@@VRace@BWAPI@@U?$less@V?$basic_string@DU?$char_traits@D@std@@V?$allocator@D@2@@std@@@2@V?$allocator@U?$pair@$$CBV?$basic_string@DU?$char_traits@D@std@@V?$allocator@D@2@@std@@VRace@BWAPI@@@std@@@2@$0A@@std@@@2@PAU342@@Z 00431140 f i BWAPI:Race.obj
 0001:00030140       ?_Max@?$_Tree@V?$_Tmap_traits@V?$basic_string@DU?$char_traits@D@std@@V?$allocator@D@2@@std@@VTechType@BWAPI@@U?$less@V?$basic_string@DU?$char_traits@D@std@@V?$allocator@D@2@@std@@@2@V?$allocator@U?$pair@$$CBV?$basic_string@DU?$char_traits@D@std@@V?$allocator@D@2@@std@@VTechType@BWAPI@@@std@@@2@$0A@@std@@@std@@KAPAU_Node@?$_Tree_nod@V?$_Tmap_traits@V?$basic_string@DU?$char_traits@D@std@@V?$allocator@D@2@@std@@VTechType@BWAPI@@U?$less@V?$basic_string@DU?$char_traits@D@std@@V?$allocator@D@2@@std@@@2@V?$allocator@U?$pair@$$CBV?$basic_string@DU?$char_traits@D@std@@V?$allocator@D@2@@std@@VTechType@BWAPI@@@std@@@2@$0A@@std@@@2@PAU342@@Z 00431140 f i BWAPI:TechType.obj
 0001:00030140       ?_Max@?$_Tree@V?$_Tmap_traits@V?$basic_string@DU?$char_traits@D@std@@V?$allocator@D@2@@std@@VBulletType@BWAPI@@U?$less@V?$basic_string@DU?$char_traits@D@std@@V?$allocator@D@2@@std@@@2@V?$allocator@U?$pair@$$CBV?$basic_string@DU?$char_traits@D@std@@V?$allocator@D@2@@std@@VBulletType@BWAPI@@@std@@@2@$0A@@std@@@std@@KAPAU_Node@?$_Tree_nod@V?$_Tmap_traits@V?$basic_string@DU?$char_traits@D@std@@V?$allocator@D@2@@std@@VBulletType@BWAPI@@U?$less@V?$basic_string@DU?$char_traits@D@std@@V?$allocator@D@2@@std@@@2@V?$allocator@U?$pair@$$CBV?$basic_string@DU?$char_traits@D@std@@V?$allocator@D@2@@std@@VBulletType@BWAPI@@@std@@@2@$0A@@std@@@2@PAU342@@Z 00431140 f i BWAPI:BulletType.obj
 0001:00030140       ?_Max@?$_Tree@V?$_Tmap_traits@V?$basic_string@DU?$char_traits@D@std@@V?$allocator@D@2@@std@@VError@BWAPI@@U?$less@V?$basic_string@DU?$char_traits@D@std@@V?$allocator@D@2@@std@@@2@V?$allocator@U?$pair@$$CBV?$basic_string@DU?$char_traits@D@std@@V?$allocator@D@2@@std@@VError@BWAPI@@@std@@@2@$0A@@std@@@std@@KAPAU_Node@?$_Tree_nod@V?$_Tmap_traits@V?$basic_string@DU?$char_traits@D@std@@V?$allocator@D@2@@std@@VError@BWAPI@@U?$less@V?$basic_string@DU?$char_traits@D@std@@V?$allocator@D@2@@std@@@2@V?$allocator@U?$pair@$$CBV?$basic_string@DU?$char_traits@D@std@@V?$allocator@D@2@@std@@VError@BWAPI@@@std@@@2@$0A@@std@@@2@PAU342@@Z 00431140 f i BWAPI:Error.obj
 0001:00030140       ?_Max@?$_Tree@V?$_Tmap_traits@V?$basic_string@DU?$char_traits@D@std@@V?$allocator@D@2@@std@@VPlayerType@BWAPI@@U?$less@V?$basic_string@DU?$char_traits@D@std@@V?$allocator@D@2@@std@@@2@V?$allocator@U?$pair@$$CBV?$basic_string@DU?$char_traits@D@std@@V?$allocator@D@2@@std@@VPlayerType@BWAPI@@@std@@@2@$0A@@std@@@std@@KAPAU_Node@?$_Tree_nod@V?$_Tmap_traits@V?$basic_string@DU?$char_traits@D@std@@V?$allocator@D@2@@std@@VPlayerType@BWAPI@@U?$less@V?$basic_string@DU?$char_traits@D@std@@V?$allocator@D@2@@std@@@2@V?$allocator@U?$pair@$$CBV?$basic_string@DU?$char_traits@D@std@@V?$allocator@D@2@@std@@VPlayerType@BWAPI@@@std@@@2@$0A@@std@@@2@PAU342@@Z 00431140 f i BWAPI:PlayerType.obj
 0001:00030140       ?_Max@?$_Tree@V?$_Tmap_traits@V?$basic_string@DU?$char_traits@D@std@@V?$allocator@D@2@@std@@VUnitCommandType@BWAPI@@U?$less@V?$basic_string@DU?$char_traits@D@std@@V?$allocator@D@2@@std@@@2@V?$allocator@U?$pair@$$CBV?$basic_string@DU?$char_traits@D@std@@V?$allocator@D@2@@std@@VUnitCommandType@BWAPI@@@std@@@2@$0A@@std@@@std@@KAPAU_Node@?$_Tree_nod@V?$_Tmap_traits@V?$basic_string@DU?$char_traits@D@std@@V?$allocator@D@2@@std@@VUnitCommandType@BWAPI@@U?$less@V?$basic_string@DU?$char_traits@D@std@@V?$allocator@D@2@@std@@@2@V?$allocator@U?$pair@$$CBV?$basic_string@DU?$char_traits@D@std@@V?$allocator@D@2@@std@@VUnitCommandType@BWAPI@@@std@@@2@$0A@@std@@@2@PAU342@@Z 00431140 f i BWAPI:UnitCommandType.obj
 0001:00030140       ?_Max@?$_Tree@V?$_Tmap_traits@V?$basic_string@DU?$char_traits@D@std@@V?$allocator@D@2@@std@@VWeaponType@BWAPI@@U?$less@V?$basic_string@DU?$char_traits@D@std@@V?$allocator@D@2@@std@@@2@V?$allocator@U?$pair@$$CBV?$basic_string@DU?$char_traits@D@std@@V?$allocator@D@2@@std@@VWeaponType@BWAPI@@@std@@@2@$0A@@std@@@std@@KAPAU_Node@?$_Tree_nod@V?$_Tmap_traits@V?$basic_string@DU?$char_traits@D@std@@V?$allocator@D@2@@std@@VWeaponType@BWAPI@@U?$less@V?$basic_string@DU?$char_traits@D@std@@V?$allocator@D@2@@std@@@2@V?$allocator@U?$pair@$$CBV?$basic_string@DU?$char_traits@D@std@@V?$allocator@D@2@@std@@VWeaponType@BWAPI@@@std@@@2@$0A@@std@@@2@PAU342@@Z 00431140 f i BWAPI:WeaponType.obj
 0001:00030140       ?_Max@?$_Tree@V?$_Tmap_traits@V?$basic_string@DU?$char_traits@D@std@@V?$allocator@D@2@@std@@VUpgradeType@BWAPI@@U?$less@V?$basic_string@DU?$char_traits@D@std@@V?$allocator@D@2@@std@@@2@V?$allocator@U?$pair@$$CBV?$basic_string@DU?$char_traits@D@std@@V?$allocator@D@2@@std@@VUpgradeType@BWAPI@@@std@@@2@$0A@@std@@@std@@KAPAU_Node@?$_Tree_nod@V?$_Tmap_traits@V?$basic_string@DU?$char_traits@D@std@@V?$allocator@D@2@@std@@VUpgradeType@BWAPI@@U?$less@V?$basic_string@DU?$char_traits@D@std@@V?$allocator@D@2@@std@@@2@V?$allocator@U?$pair@$$CBV?$basic_string@DU?$char_traits@D@std@@V?$allocator@D@2@@std@@VUpgradeType@BWAPI@@@std@@@2@$0A@@std@@@2@PAU342@@Z 00431140 f i BWAPI:UpgradeType.obj
 0001:00030140       ?_Max@?$_Tree@V?$_Tmap_traits@V?$basic_string@DU?$char_traits@D@std@@V?$allocator@D@2@@std@@VExplosionType@BWAPI@@U?$less@V?$basic_string@DU?$char_traits@D@std@@V?$allocator@D@2@@std@@@2@V?$allocator@U?$pair@$$CBV?$basic_string@DU?$char_traits@D@std@@V?$allocator@D@2@@std@@VExplosionType@BWAPI@@@std@@@2@$0A@@std@@@std@@KAPAU_Node@?$_Tree_nod@V?$_Tmap_traits@V?$basic_string@DU?$char_traits@D@std@@V?$allocator@D@2@@std@@VExplosionType@BWAPI@@U?$less@V?$basic_string@DU?$char_traits@D@std@@V?$allocator@D@2@@std@@@2@V?$allocator@U?$pair@$$CBV?$basic_string@DU?$char_traits@D@std@@V?$allocator@D@2@@std@@VExplosionType@BWAPI@@@std@@@2@$0A@@std@@@2@PAU342@@Z 00431140 f i BWAPI:ExplosionType.obj
 0001:00030140       ?_Max@?$_Tree@V?$_Tmap_traits@V?$basic_string@DU?$char_traits@D@std@@V?$allocator@D@2@@std@@VOrder@BWAPI@@U?$less@V?$basic_string@DU?$char_traits@D@std@@V?$allocator@D@2@@std@@@2@V?$allocator@U?$pair@$$CBV?$basic_string@DU?$char_traits@D@std@@V?$allocator@D@2@@std@@VOrder@BWAPI@@@std@@@2@$0A@@std@@@std@@KAPAU_Node@?$_Tree_nod@V?$_Tmap_traits@V?$basic_string@DU?$char_traits@D@std@@V?$allocator@D@2@@std@@VOrder@BWAPI@@U?$less@V?$basic_string@DU?$char_traits@D@std@@V?$allocator@D@2@@std@@@2@V?$allocator@U?$pair@$$CBV?$basic_string@DU?$char_traits@D@std@@V?$allocator@D@2@@std@@VOrder@BWAPI@@@std@@@2@$0A@@std@@@2@PAU342@@Z 00431140 f i BWAPI:Order.obj
 0001:00030160       ?_Min@?$_Tree@V?$_Tmap_traits@V?$basic_string@DU?$char_traits@D@std@@V?$allocator@D@2@@std@@VDamageType@BWAPI@@U?$less@V?$basic_string@DU?$char_traits@D@std@@V?$allocator@D@2@@std@@@2@V?$allocator@U?$pair@$$CBV?$basic_string@DU?$char_traits@D@std@@V?$allocator@D@2@@std@@VDamageType@BWAPI@@@std@@@2@$0A@@std@@@std@@KAPAU_Node@?$_Tree_nod@V?$_Tmap_traits@V?$basic_string@DU?$char_traits@D@std@@V?$allocator@D@2@@std@@VDamageType@BWAPI@@U?$less@V?$basic_string@DU?$char_traits@D@std@@V?$allocator@D@2@@std@@@2@V?$allocator@U?$pair@$$CBV?$basic_string@DU?$char_traits@D@std@@V?$allocator@D@2@@std@@VDamageType@BWAPI@@@std@@@2@$0A@@std@@@2@PAU342@@Z 00431160 f i BWAPI:DamageType.obj
 0001:00030160       ?_Min@?$_Tree@V?$_Tmap_traits@V?$basic_string@DU?$char_traits@D@std@@V?$allocator@D@2@@std@@VBulletType@BWAPI@@U?$less@V?$basic_string@DU?$char_traits@D@std@@V?$allocator@D@2@@std@@@2@V?$allocator@U?$pair@$$CBV?$basic_string@DU?$char_traits@D@std@@V?$allocator@D@2@@std@@VBulletType@BWAPI@@@std@@@2@$0A@@std@@@std@@KAPAU_Node@?$_Tree_nod@V?$_Tmap_traits@V?$basic_string@DU?$char_traits@D@std@@V?$allocator@D@2@@std@@VBulletType@BWAPI@@U?$less@V?$basic_string@DU?$char_traits@D@std@@V?$allocator@D@2@@std@@@2@V?$allocator@U?$pair@$$CBV?$basic_string@DU?$char_traits@D@std@@V?$allocator@D@2@@std@@VBulletType@BWAPI@@@std@@@2@$0A@@std@@@2@PAU342@@Z 00431160 f i BWAPI:BulletType.obj
 0001:00030160       ?_Min@?$_Tree@V?$_Tmap_traits@V?$basic_string@DU?$char_traits@D@std@@V?$allocator@D@2@@std@@VUnitSizeType@BWAPI@@U?$less@V?$basic_string@DU?$char_traits@D@std@@V?$allocator@D@2@@std@@@2@V?$allocator@U?$pair@$$CBV?$basic_string@DU?$char_traits@D@std@@V?$allocator@D@2@@std@@VUnitSizeType@BWAPI@@@std@@@2@$0A@@std@@@std@@KAPAU_Node@?$_Tree_nod@V?$_Tmap_traits@V?$basic_string@DU?$char_traits@D@std@@V?$allocator@D@2@@std@@VUnitSizeType@BWAPI@@U?$less@V?$basic_string@DU?$char_traits@D@std@@V?$allocator@D@2@@std@@@2@V?$allocator@U?$pair@$$CBV?$basic_string@DU?$char_traits@D@std@@V?$allocator@D@2@@std@@VUnitSizeType@BWAPI@@@std@@@2@$0A@@std@@@2@PAU342@@Z 00431160 f i BWAPI:UnitSizeType.obj
 0001:00030160       ?_Min@?$_Tree@V?$_Tmap_traits@V?$basic_string@DU?$char_traits@D@std@@V?$allocator@D@2@@std@@VPlayerType@BWAPI@@U?$less@V?$basic_string@DU?$char_traits@D@std@@V?$allocator@D@2@@std@@@2@V?$allocator@U?$pair@$$CBV?$basic_string@DU?$char_traits@D@std@@V?$allocator@D@2@@std@@VPlayerType@BWAPI@@@std@@@2@$0A@@std@@@std@@KAPAU_Node@?$_Tree_nod@V?$_Tmap_traits@V?$basic_string@DU?$char_traits@D@std@@V?$allocator@D@2@@std@@VPlayerType@BWAPI@@U?$less@V?$basic_string@DU?$char_traits@D@std@@V?$allocator@D@2@@std@@@2@V?$allocator@U?$pair@$$CBV?$basic_string@DU?$char_traits@D@std@@V?$allocator@D@2@@std@@VPlayerType@BWAPI@@@std@@@2@$0A@@std@@@2@PAU342@@Z 00431160 f i BWAPI:PlayerType.obj
 0001:00030160       ?_Min@?$_Tree@V?$_Tmap_traits@V?$basic_string@DU?$char_traits@D@std@@V?$allocator@D@2@@std@@VError@BWAPI@@U?$less@V?$basic_string@DU?$char_traits@D@std@@V?$allocator@D@2@@std@@@2@V?$allocator@U?$pair@$$CBV?$basic_string@DU?$char_traits@D@std@@V?$allocator@D@2@@std@@VError@BWAPI@@@std@@@2@$0A@@std@@@std@@KAPAU_Node@?$_Tree_nod@V?$_Tmap_traits@V?$basic_string@DU?$char_traits@D@std@@V?$allocator@D@2@@std@@VError@BWAPI@@U?$less@V?$basic_string@DU?$char_traits@D@std@@V?$allocator@D@2@@std@@@2@V?$allocator@U?$pair@$$CBV?$basic_string@DU?$char_traits@D@std@@V?$allocator@D@2@@std@@VError@BWAPI@@@std@@@2@$0A@@std@@@2@PAU342@@Z 00431160 f i BWAPI:Error.obj
 0001:00030160       ?_Min@?$_Tree@V?$_Tmap_traits@V?$basic_string@DU?$char_traits@D@std@@V?$allocator@D@2@@std@@VUnitType@BWAPI@@U?$less@V?$basic_string@DU?$char_traits@D@std@@V?$allocator@D@2@@std@@@2@V?$allocator@U?$pair@$$CBV?$basic_string@DU?$char_traits@D@std@@V?$allocator@D@2@@std@@VUnitType@BWAPI@@@std@@@2@$0A@@std@@@std@@KAPAU_Node@?$_Tree_nod@V?$_Tmap_traits@V?$basic_string@DU?$char_traits@D@std@@V?$allocator@D@2@@std@@VUnitType@BWAPI@@U?$less@V?$basic_string@DU?$char_traits@D@std@@V?$allocator@D@2@@std@@@2@V?$allocator@U?$pair@$$CBV?$basic_string@DU?$char_traits@D@std@@V?$allocator@D@2@@std@@VUnitType@BWAPI@@@std@@@2@$0A@@std@@@2@PAU342@@Z 00431160 f i BWAPI:UnitType.obj
 0001:00030160       ?_Min@?$_Tree@V?$_Tmap_traits@V?$basic_string@DU?$char_traits@D@std@@V?$allocator@D@2@@std@@VUpgradeType@BWAPI@@U?$less@V?$basic_string@DU?$char_traits@D@std@@V?$allocator@D@2@@std@@@2@V?$allocator@U?$pair@$$CBV?$basic_string@DU?$char_traits@D@std@@V?$allocator@D@2@@std@@VUpgradeType@BWAPI@@@std@@@2@$0A@@std@@@std@@KAPAU_Node@?$_Tree_nod@V?$_Tmap_traits@V?$basic_string@DU?$char_traits@D@std@@V?$allocator@D@2@@std@@VUpgradeType@BWAPI@@U?$less@V?$basic_string@DU?$char_traits@D@std@@V?$allocator@D@2@@std@@@2@V?$allocator@U?$pair@$$CBV?$basic_string@DU?$char_traits@D@std@@V?$allocator@D@2@@std@@VUpgradeType@BWAPI@@@std@@@2@$0A@@std@@@2@PAU342@@Z 00431160 f i BWAPI:UpgradeType.obj
 0001:00030160       ?_Min@?$_Tree@V?$_Tmap_traits@V?$basic_string@DU?$char_traits@D@std@@V?$allocator@D@2@@std@@VOrder@BWAPI@@U?$less@V?$basic_string@DU?$char_traits@D@std@@V?$allocator@D@2@@std@@@2@V?$allocator@U?$pair@$$CBV?$basic_string@DU?$char_traits@D@std@@V?$allocator@D@2@@std@@VOrder@BWAPI@@@std@@@2@$0A@@std@@@std@@KAPAU_Node@?$_Tree_nod@V?$_Tmap_traits@V?$basic_string@DU?$char_traits@D@std@@V?$allocator@D@2@@std@@VOrder@BWAPI@@U?$less@V?$basic_string@DU?$char_traits@D@std@@V?$allocator@D@2@@std@@@2@V?$allocator@U?$pair@$$CBV?$basic_string@DU?$char_traits@D@std@@V?$allocator@D@2@@std@@VOrder@BWAPI@@@std@@@2@$0A@@std@@@2@PAU342@@Z 00431160 f i BWAPI:Order.obj
 0001:00030160       ?_Min@?$_Tree@V?$_Tmap_traits@V?$basic_string@DU?$char_traits@D@std@@V?$allocator@D@2@@std@@VGameType@BWAPI@@U?$less@V?$basic_string@DU?$char_traits@D@std@@V?$allocator@D@2@@std@@@2@V?$allocator@U?$pair@$$CBV?$basic_string@DU?$char_traits@D@std@@V?$allocator@D@2@@std@@VGameType@BWAPI@@@std@@@2@$0A@@std@@@std@@KAPAU_Node@?$_Tree_nod@V?$_Tmap_traits@V?$basic_string@DU?$char_traits@D@std@@V?$allocator@D@2@@std@@VGameType@BWAPI@@U?$less@V?$basic_string@DU?$char_traits@D@std@@V?$allocator@D@2@@std@@@2@V?$allocator@U?$pair@$$CBV?$basic_string@DU?$char_traits@D@std@@V?$allocator@D@2@@std@@VGameType@BWAPI@@@std@@@2@$0A@@std@@@2@PAU342@@Z 00431160 f i BWAPI:GameType.obj
 0001:00030160       ?_Min@?$_Tree@V?$_Tmap_traits@V?$basic_string@DU?$char_traits@D@std@@V?$allocator@D@2@@std@@VRace@BWAPI@@U?$less@V?$basic_string@DU?$char_traits@D@std@@V?$allocator@D@2@@std@@@2@V?$allocator@U?$pair@$$CBV?$basic_string@DU?$char_traits@D@std@@V?$allocator@D@2@@std@@VRace@BWAPI@@@std@@@2@$0A@@std@@@std@@KAPAU_Node@?$_Tree_nod@V?$_Tmap_traits@V?$basic_string@DU?$char_traits@D@std@@V?$allocator@D@2@@std@@VRace@BWAPI@@U?$less@V?$basic_string@DU?$char_traits@D@std@@V?$allocator@D@2@@std@@@2@V?$allocator@U?$pair@$$CBV?$basic_string@DU?$char_traits@D@std@@V?$allocator@D@2@@std@@VRace@BWAPI@@@std@@@2@$0A@@std@@@2@PAU342@@Z 00431160 f i BWAPI:Race.obj
 0001:00030160       ?_Min@?$_Tree@V?$_Tmap_traits@V?$basic_string@DU?$char_traits@D@std@@V?$allocator@D@2@@std@@VUnitCommandType@BWAPI@@U?$less@V?$basic_string@DU?$char_traits@D@std@@V?$allocator@D@2@@std@@@2@V?$allocator@U?$pair@$$CBV?$basic_string@DU?$char_traits@D@std@@V?$allocator@D@2@@std@@VUnitCommandType@BWAPI@@@std@@@2@$0A@@std@@@std@@KAPAU_Node@?$_Tree_nod@V?$_Tmap_traits@V?$basic_string@DU?$char_traits@D@std@@V?$allocator@D@2@@std@@VUnitCommandType@BWAPI@@U?$less@V?$basic_string@DU?$char_traits@D@std@@V?$allocator@D@2@@std@@@2@V?$allocator@U?$pair@$$CBV?$basic_string@DU?$char_traits@D@std@@V?$allocator@D@2@@std@@VUnitCommandType@BWAPI@@@std@@@2@$0A@@std@@@2@PAU342@@Z 00431160 f i BWAPI:UnitCommandType.obj
 0001:00030160       ?_Min@?$_Tree@V?$_Tmap_traits@V?$basic_string@DU?$char_traits@D@std@@V?$allocator@D@2@@std@@VTechType@BWAPI@@U?$less@V?$basic_string@DU?$char_traits@D@std@@V?$allocator@D@2@@std@@@2@V?$allocator@U?$pair@$$CBV?$basic_string@DU?$char_traits@D@std@@V?$allocator@D@2@@std@@VTechType@BWAPI@@@std@@@2@$0A@@std@@@std@@KAPAU_Node@?$_Tree_nod@V?$_Tmap_traits@V?$basic_string@DU?$char_traits@D@std@@V?$allocator@D@2@@std@@VTechType@BWAPI@@U?$less@V?$basic_string@DU?$char_traits@D@std@@V?$allocator@D@2@@std@@@2@V?$allocator@U?$pair@$$CBV?$basic_string@DU?$char_traits@D@std@@V?$allocator@D@2@@std@@VTechType@BWAPI@@@std@@@2@$0A@@std@@@2@PAU342@@Z 00431160 f i BWAPI:TechType.obj
 0001:00030160       ?_Min@?$_Tree@V?$_Tmap_traits@V?$basic_string@DU?$char_traits@D@std@@V?$allocator@D@2@@std@@VExplosionType@BWAPI@@U?$less@V?$basic_string@DU?$char_traits@D@std@@V?$allocator@D@2@@std@@@2@V?$allocator@U?$pair@$$CBV?$basic_string@DU?$char_traits@D@std@@V?$allocator@D@2@@std@@VExplosionType@BWAPI@@@std@@@2@$0A@@std@@@std@@KAPAU_Node@?$_Tree_nod@V?$_Tmap_traits@V?$basic_string@DU?$char_traits@D@std@@V?$allocator@D@2@@std@@VExplosionType@BWAPI@@U?$less@V?$basic_string@DU?$char_traits@D@std@@V?$allocator@D@2@@std@@@2@V?$allocator@U?$pair@$$CBV?$basic_string@DU?$char_traits@D@std@@V?$allocator@D@2@@std@@VExplosionType@BWAPI@@@std@@@2@$0A@@std@@@2@PAU342@@Z 00431160 f i BWAPI:ExplosionType.obj
 0001:00030160       ?_Min@?$_Tree@V?$_Tmap_traits@V?$basic_string@DU?$char_traits@D@std@@V?$allocator@D@2@@std@@VWeaponType@BWAPI@@U?$less@V?$basic_string@DU?$char_traits@D@std@@V?$allocator@D@2@@std@@@2@V?$allocator@U?$pair@$$CBV?$basic_string@DU?$char_traits@D@std@@V?$allocator@D@2@@std@@VWeaponType@BWAPI@@@std@@@2@$0A@@std@@@std@@KAPAU_Node@?$_Tree_nod@V?$_Tmap_traits@V?$basic_string@DU?$char_traits@D@std@@V?$allocator@D@2@@std@@VWeaponType@BWAPI@@U?$less@V?$basic_string@DU?$char_traits@D@std@@V?$allocator@D@2@@std@@@2@V?$allocator@U?$pair@$$CBV?$basic_string@DU?$char_traits@D@std@@V?$allocator@D@2@@std@@VWeaponType@BWAPI@@@std@@@2@$0A@@std@@@2@PAU342@@Z 00431160 f i BWAPI:WeaponType.obj
 0001:00030180       ?_Rrotate@?$_Tree@V?$_Tset_traits@VWeaponType@BWAPI@@U?$less@VWeaponType@BWAPI@@@std@@V?$allocator@VWeaponType@BWAPI@@@4@$0A@@std@@@std@@IAEXPAU_Node@?$_Tree_nod@V?$_Tset_traits@VWeaponType@BWAPI@@U?$less@VWeaponType@BWAPI@@@std@@V?$allocator@VWeaponType@BWAPI@@@4@$0A@@std@@@2@@Z 00431180 f i BWAPI:WeaponType.obj
 0001:00030180       ?_Rrotate@?$_Tree@V?$_Tset_traits@VExplosionType@BWAPI@@U?$less@VExplosionType@BWAPI@@@std@@V?$allocator@VExplosionType@BWAPI@@@4@$0A@@std@@@std@@IAEXPAU_Node@?$_Tree_nod@V?$_Tset_traits@VExplosionType@BWAPI@@U?$less@VExplosionType@BWAPI@@@std@@V?$allocator@VExplosionType@BWAPI@@@4@$0A@@std@@@2@@Z 00431180 f i BWAPI:ExplosionType.obj
 0001:00030180       ?_Rrotate@?$_Tree@V?$_Tset_traits@VRace@BWAPI@@U?$less@VRace@BWAPI@@@std@@V?$allocator@VRace@BWAPI@@@4@$0A@@std@@@std@@IAEXPAU_Node@?$_Tree_nod@V?$_Tset_traits@VRace@BWAPI@@U?$less@VRace@BWAPI@@@std@@V?$allocator@VRace@BWAPI@@@4@$0A@@std@@@2@@Z 00431180 f i BWAPI:Race.obj
 0001:00030180       ?_Rrotate@?$_Tree@V?$_Tset_traits@VUpgradeType@BWAPI@@U?$less@VUpgradeType@BWAPI@@@std@@V?$allocator@VUpgradeType@BWAPI@@@4@$0A@@std@@@std@@IAEXPAU_Node@?$_Tree_nod@V?$_Tset_traits@VUpgradeType@BWAPI@@U?$less@VUpgradeType@BWAPI@@@std@@V?$allocator@VUpgradeType@BWAPI@@@4@$0A@@std@@@2@@Z 00431180 f i BWAPI:UnitType.obj
 0001:00030180       ?_Rrotate@?$_Tree@V?$_Tset_traits@VUnitCommandType@BWAPI@@U?$less@VUnitCommandType@BWAPI@@@std@@V?$allocator@VUnitCommandType@BWAPI@@@4@$0A@@std@@@std@@IAEXPAU_Node@?$_Tree_nod@V?$_Tset_traits@VUnitCommandType@BWAPI@@U?$less@VUnitCommandType@BWAPI@@@std@@V?$allocator@VUnitCommandType@BWAPI@@@4@$0A@@std@@@2@@Z 00431180 f i BWAPI:UnitCommandType.obj
 0001:00030180       ?_Rrotate@?$_Tree@V?$_Tset_traits@VGameType@BWAPI@@U?$less@VGameType@BWAPI@@@std@@V?$allocator@VGameType@BWAPI@@@4@$0A@@std@@@std@@IAEXPAU_Node@?$_Tree_nod@V?$_Tset_traits@VGameType@BWAPI@@U?$less@VGameType@BWAPI@@@std@@V?$allocator@VGameType@BWAPI@@@4@$0A@@std@@@2@@Z 00431180 f i BWAPI:GameType.obj
 0001:00030180       ?_Rrotate@?$_Tree@V?$_Tset_traits@VDamageType@BWAPI@@U?$less@VDamageType@BWAPI@@@std@@V?$allocator@VDamageType@BWAPI@@@4@$0A@@std@@@std@@IAEXPAU_Node@?$_Tree_nod@V?$_Tset_traits@VDamageType@BWAPI@@U?$less@VDamageType@BWAPI@@@std@@V?$allocator@VDamageType@BWAPI@@@4@$0A@@std@@@2@@Z 00431180 f i BWAPI:DamageType.obj
 0001:00030180       ?_Rrotate@?$_Tree@V?$_Tset_traits@VOrder@BWAPI@@U?$less@VOrder@BWAPI@@@std@@V?$allocator@VOrder@BWAPI@@@4@$0A@@std@@@std@@IAEXPAU_Node@?$_Tree_nod@V?$_Tset_traits@VOrder@BWAPI@@U?$less@VOrder@BWAPI@@@std@@V?$allocator@VOrder@BWAPI@@@4@$0A@@std@@@2@@Z 00431180 f i BWAPI:Order.obj
 0001:00030180       ?_Rrotate@?$_Tree@V?$_Tset_traits@VError@BWAPI@@U?$less@VError@BWAPI@@@std@@V?$allocator@VError@BWAPI@@@4@$0A@@std@@@std@@IAEXPAU_Node@?$_Tree_nod@V?$_Tset_traits@VError@BWAPI@@U?$less@VError@BWAPI@@@std@@V?$allocator@VError@BWAPI@@@4@$0A@@std@@@2@@Z 00431180 f i BWAPI:Error.obj
 0001:00030180       ?_Rrotate@?$_Tree@V?$_Tset_traits@VPlayerType@BWAPI@@U?$less@VPlayerType@BWAPI@@@std@@V?$allocator@VPlayerType@BWAPI@@@4@$0A@@std@@@std@@IAEXPAU_Node@?$_Tree_nod@V?$_Tset_traits@VPlayerType@BWAPI@@U?$less@VPlayerType@BWAPI@@@std@@V?$allocator@VPlayerType@BWAPI@@@4@$0A@@std@@@2@@Z 00431180 f i BWAPI:PlayerType.obj
 0001:00030180       ?_Rrotate@?$_Tree@V?$_Tset_traits@VBulletType@BWAPI@@U?$less@VBulletType@BWAPI@@@std@@V?$allocator@VBulletType@BWAPI@@@4@$0A@@std@@@std@@IAEXPAU_Node@?$_Tree_nod@V?$_Tset_traits@VBulletType@BWAPI@@U?$less@VBulletType@BWAPI@@@std@@V?$allocator@VBulletType@BWAPI@@@4@$0A@@std@@@2@@Z 00431180 f i BWAPI:BulletType.obj
 0001:00030180       ?_Rrotate@?$_Tree@V?$_Tset_traits@VUnitType@BWAPI@@U?$less@VUnitType@BWAPI@@@std@@V?$allocator@VUnitType@BWAPI@@@4@$0A@@std@@@std@@IAEXPAU_Node@?$_Tree_nod@V?$_Tset_traits@VUnitType@BWAPI@@U?$less@VUnitType@BWAPI@@@std@@V?$allocator@VUnitType@BWAPI@@@4@$0A@@std@@@2@@Z 00431180 f i BWAPI:UnitType.obj
 0001:00030180       ?_Rrotate@?$_Tree@V?$_Tset_traits@VTechType@BWAPI@@U?$less@VTechType@BWAPI@@@std@@V?$allocator@VTechType@BWAPI@@@4@$0A@@std@@@std@@IAEXPAU_Node@?$_Tree_nod@V?$_Tset_traits@VTechType@BWAPI@@U?$less@VTechType@BWAPI@@@std@@V?$allocator@VTechType@BWAPI@@@4@$0A@@std@@@2@@Z 00431180 f i BWAPI:UnitType.obj
 0001:00030180       ?_Rrotate@?$_Tree@V?$_Tset_traits@VUnitSizeType@BWAPI@@U?$less@VUnitSizeType@BWAPI@@@std@@V?$allocator@VUnitSizeType@BWAPI@@@4@$0A@@std@@@std@@IAEXPAU_Node@?$_Tree_nod@V?$_Tset_traits@VUnitSizeType@BWAPI@@U?$less@VUnitSizeType@BWAPI@@@std@@V?$allocator@VUnitSizeType@BWAPI@@@4@$0A@@std@@@2@@Z 00431180 f i BWAPI:UnitSizeType.obj
 0001:000301e0       ??$make_pair@V?$basic_string@DU?$char_traits@D@std@@V?$allocator@D@2@@std@@VBulletType@BWAPI@@@std@@YA?AU?$pair@V?$basic_string@DU?$char_traits@D@std@@V?$allocator@D@2@@std@@VBulletType@BWAPI@@@0@V?$basic_string@DU?$char_traits@D@std@@V?$allocator@D@2@@0@VBulletType@BWAPI@@@Z 004311e0 f i BWAPI:BulletType.obj
 0001:000301e0       ??$make_pair@V?$basic_string@DU?$char_traits@D@std@@V?$allocator@D@2@@std@@VDamageType@BWAPI@@@std@@YA?AU?$pair@V?$basic_string@DU?$char_traits@D@std@@V?$allocator@D@2@@std@@VDamageType@BWAPI@@@0@V?$basic_string@DU?$char_traits@D@std@@V?$allocator@D@2@@0@VDamageType@BWAPI@@@Z 004311e0 f i BWAPI:DamageType.obj
 0001:000301e0       ??$make_pair@V?$basic_string@DU?$char_traits@D@std@@V?$allocator@D@2@@std@@VUnitSizeType@BWAPI@@@std@@YA?AU?$pair@V?$basic_string@DU?$char_traits@D@std@@V?$allocator@D@2@@std@@VUnitSizeType@BWAPI@@@0@V?$basic_string@DU?$char_traits@D@std@@V?$allocator@D@2@@0@VUnitSizeType@BWAPI@@@Z 004311e0 f i BWAPI:UnitSizeType.obj
 0001:000301e0       ??$make_pair@V?$basic_string@DU?$char_traits@D@std@@V?$allocator@D@2@@std@@VOrder@BWAPI@@@std@@YA?AU?$pair@V?$basic_string@DU?$char_traits@D@std@@V?$allocator@D@2@@std@@VOrder@BWAPI@@@0@V?$basic_string@DU?$char_traits@D@std@@V?$allocator@D@2@@0@VOrder@BWAPI@@@Z 004311e0 f i BWAPI:Order.obj
 0001:000301e0       ??$make_pair@V?$basic_string@DU?$char_traits@D@std@@V?$allocator@D@2@@std@@VUnitCommandType@BWAPI@@@std@@YA?AU?$pair@V?$basic_string@DU?$char_traits@D@std@@V?$allocator@D@2@@std@@VUnitCommandType@BWAPI@@@0@V?$basic_string@DU?$char_traits@D@std@@V?$allocator@D@2@@0@VUnitCommandType@BWAPI@@@Z 004311e0 f i BWAPI:UnitCommandType.obj
 0001:000301e0       ??$make_pair@V?$basic_string@DU?$char_traits@D@std@@V?$allocator@D@2@@std@@VGameType@BWAPI@@@std@@YA?AU?$pair@V?$basic_string@DU?$char_traits@D@std@@V?$allocator@D@2@@std@@VGameType@BWAPI@@@0@V?$basic_string@DU?$char_traits@D@std@@V?$allocator@D@2@@0@VGameType@BWAPI@@@Z 004311e0 f i BWAPI:GameType.obj
 0001:000301e0       ??$make_pair@V?$basic_string@DU?$char_traits@D@std@@V?$allocator@D@2@@std@@VError@BWAPI@@@std@@YA?AU?$pair@V?$basic_string@DU?$char_traits@D@std@@V?$allocator@D@2@@std@@VError@BWAPI@@@0@V?$basic_string@DU?$char_traits@D@std@@V?$allocator@D@2@@0@VError@BWAPI@@@Z 004311e0 f i BWAPI:Error.obj
 0001:000301e0       ??$make_pair@V?$basic_string@DU?$char_traits@D@std@@V?$allocator@D@2@@std@@VWeaponType@BWAPI@@@std@@YA?AU?$pair@V?$basic_string@DU?$char_traits@D@std@@V?$allocator@D@2@@std@@VWeaponType@BWAPI@@@0@V?$basic_string@DU?$char_traits@D@std@@V?$allocator@D@2@@0@VWeaponType@BWAPI@@@Z 004311e0 f i BWAPI:WeaponType.obj
 0001:000301e0       ??$make_pair@V?$basic_string@DU?$char_traits@D@std@@V?$allocator@D@2@@std@@VExplosionType@BWAPI@@@std@@YA?AU?$pair@V?$basic_string@DU?$char_traits@D@std@@V?$allocator@D@2@@std@@VExplosionType@BWAPI@@@0@V?$basic_string@DU?$char_traits@D@std@@V?$allocator@D@2@@0@VExplosionType@BWAPI@@@Z 004311e0 f i BWAPI:ExplosionType.obj
 0001:000301e0       ??$make_pair@V?$basic_string@DU?$char_traits@D@std@@V?$allocator@D@2@@std@@VUpgradeType@BWAPI@@@std@@YA?AU?$pair@V?$basic_string@DU?$char_traits@D@std@@V?$allocator@D@2@@std@@VUpgradeType@BWAPI@@@0@V?$basic_string@DU?$char_traits@D@std@@V?$allocator@D@2@@0@VUpgradeType@BWAPI@@@Z 004311e0 f i BWAPI:UpgradeType.obj
 0001:000301e0       ??$make_pair@V?$basic_string@DU?$char_traits@D@std@@V?$allocator@D@2@@std@@VUnitType@BWAPI@@@std@@YA?AU?$pair@V?$basic_string@DU?$char_traits@D@std@@V?$allocator@D@2@@std@@VUnitType@BWAPI@@@0@V?$basic_string@DU?$char_traits@D@std@@V?$allocator@D@2@@0@VUnitType@BWAPI@@@Z 004311e0 f i BWAPI:UnitType.obj
 0001:000301e0       ??$make_pair@V?$basic_string@DU?$char_traits@D@std@@V?$allocator@D@2@@std@@VTechType@BWAPI@@@std@@YA?AU?$pair@V?$basic_string@DU?$char_traits@D@std@@V?$allocator@D@2@@std@@VTechType@BWAPI@@@0@V?$basic_string@DU?$char_traits@D@std@@V?$allocator@D@2@@0@VTechType@BWAPI@@@Z 004311e0 f i BWAPI:TechType.obj
 0001:000301e0       ??$make_pair@V?$basic_string@DU?$char_traits@D@std@@V?$allocator@D@2@@std@@VPlayerType@BWAPI@@@std@@YA?AU?$pair@V?$basic_string@DU?$char_traits@D@std@@V?$allocator@D@2@@std@@VPlayerType@BWAPI@@@0@V?$basic_string@DU?$char_traits@D@std@@V?$allocator@D@2@@0@VPlayerType@BWAPI@@@Z 004311e0 f i BWAPI:PlayerType.obj
 0001:000301e0       ??$make_pair@V?$basic_string@DU?$char_traits@D@std@@V?$allocator@D@2@@std@@VRace@BWAPI@@@std@@YA?AU?$pair@V?$basic_string@DU?$char_traits@D@std@@V?$allocator@D@2@@std@@VRace@BWAPI@@@0@V?$basic_string@DU?$char_traits@D@std@@V?$allocator@D@2@@0@VRace@BWAPI@@@Z 004311e0 f i BWAPI:Race.obj
 0001:00030250       ?_Buynode@?$_Tree@V?$_Tmap_traits@V?$basic_string@DU?$char_traits@D@std@@V?$allocator@D@2@@std@@VError@BWAPI@@U?$less@V?$basic_string@DU?$char_traits@D@std@@V?$allocator@D@2@@std@@@2@V?$allocator@U?$pair@$$CBV?$basic_string@DU?$char_traits@D@std@@V?$allocator@D@2@@std@@VError@BWAPI@@@std@@@2@$0A@@std@@@std@@IAEPAU_Node@?$_Tree_nod@V?$_Tmap_traits@V?$basic_string@DU?$char_traits@D@std@@V?$allocator@D@2@@std@@VError@BWAPI@@U?$less@V?$basic_string@DU?$char_traits@D@std@@V?$allocator@D@2@@std@@@2@V?$allocator@U?$pair@$$CBV?$basic_string@DU?$char_traits@D@std@@V?$allocator@D@2@@std@@VError@BWAPI@@@std@@@2@$0A@@std@@@2@PAU342@00ABU?$pair@$$CBV?$basic_string@DU?$char_traits@D@std@@V?$allocator@D@2@@std@@VError@BWAPI@@@2@D@Z 00431250 f i BWAPI:Error.obj
 0001:00030250       ?_Buynode@?$_Tree@V?$_Tmap_traits@V?$basic_string@DU?$char_traits@D@std@@V?$allocator@D@2@@std@@VUpgradeType@BWAPI@@U?$less@V?$basic_string@DU?$char_traits@D@std@@V?$allocator@D@2@@std@@@2@V?$allocator@U?$pair@$$CBV?$basic_string@DU?$char_traits@D@std@@V?$allocator@D@2@@std@@VUpgradeType@BWAPI@@@std@@@2@$0A@@std@@@std@@IAEPAU_Node@?$_Tree_nod@V?$_Tmap_traits@V?$basic_string@DU?$char_traits@D@std@@V?$allocator@D@2@@std@@VUpgradeType@BWAPI@@U?$less@V?$basic_string@DU?$char_traits@D@std@@V?$allocator@D@2@@std@@@2@V?$allocator@U?$pair@$$CBV?$basic_string@DU?$char_traits@D@std@@V?$allocator@D@2@@std@@VUpgradeType@BWAPI@@@std@@@2@$0A@@std@@@2@PAU342@00ABU?$pair@$$CBV?$basic_string@DU?$char_traits@D@std@@V?$allocator@D@2@@std@@VUpgradeType@BWAPI@@@2@D@Z 00431250 f i BWAPI:UpgradeType.obj
 0001:00030250       ?_Buynode@?$_Tree@V?$_Tmap_traits@V?$basic_string@DU?$char_traits@D@std@@V?$allocator@D@2@@std@@VDamageType@BWAPI@@U?$less@V?$basic_string@DU?$char_traits@D@std@@V?$allocator@D@2@@std@@@2@V?$allocator@U?$pair@$$CBV?$basic_string@DU?$char_traits@D@std@@V?$allocator@D@2@@std@@VDamageType@BWAPI@@@std@@@2@$0A@@std@@@std@@IAEPAU_Node@?$_Tree_nod@V?$_Tmap_traits@V?$basic_string@DU?$char_traits@D@std@@V?$allocator@D@2@@std@@VDamageType@BWAPI@@U?$less@V?$basic_string@DU?$char_traits@D@std@@V?$allocator@D@2@@std@@@2@V?$allocator@U?$pair@$$CBV?$basic_string@DU?$char_traits@D@std@@V?$allocator@D@2@@std@@VDamageType@BWAPI@@@std@@@2@$0A@@std@@@2@PAU342@00ABU?$pair@$$CBV?$basic_string@DU?$char_traits@D@std@@V?$allocator@D@2@@std@@VDamageType@BWAPI@@@2@D@Z 00431250 f i BWAPI:DamageType.obj
 0001:00030250       ?_Buynode@?$_Tree@V?$_Tmap_traits@V?$basic_string@DU?$char_traits@D@std@@V?$allocator@D@2@@std@@VWeaponType@BWAPI@@U?$less@V?$basic_string@DU?$char_traits@D@std@@V?$allocator@D@2@@std@@@2@V?$allocator@U?$pair@$$CBV?$basic_string@DU?$char_traits@D@std@@V?$allocator@D@2@@std@@VWeaponType@BWAPI@@@std@@@2@$0A@@std@@@std@@IAEPAU_Node@?$_Tree_nod@V?$_Tmap_traits@V?$basic_string@DU?$char_traits@D@std@@V?$allocator@D@2@@std@@VWeaponType@BWAPI@@U?$less@V?$basic_string@DU?$char_traits@D@std@@V?$allocator@D@2@@std@@@2@V?$allocator@U?$pair@$$CBV?$basic_string@DU?$char_traits@D@std@@V?$allocator@D@2@@std@@VWeaponType@BWAPI@@@std@@@2@$0A@@std@@@2@PAU342@00ABU?$pair@$$CBV?$basic_string@DU?$char_traits@D@std@@V?$allocator@D@2@@std@@VWeaponType@BWAPI@@@2@D@Z 00431250 f i BWAPI:WeaponType.obj
 0001:00030250       ?_Buynode@?$_Tree@V?$_Tmap_traits@V?$basic_string@DU?$char_traits@D@std@@V?$allocator@D@2@@std@@VUnitType@BWAPI@@U?$less@V?$basic_string@DU?$char_traits@D@std@@V?$allocator@D@2@@std@@@2@V?$allocator@U?$pair@$$CBV?$basic_string@DU?$char_traits@D@std@@V?$allocator@D@2@@std@@VUnitType@BWAPI@@@std@@@2@$0A@@std@@@std@@IAEPAU_Node@?$_Tree_nod@V?$_Tmap_traits@V?$basic_string@DU?$char_traits@D@std@@V?$allocator@D@2@@std@@VUnitType@BWAPI@@U?$less@V?$basic_string@DU?$char_traits@D@std@@V?$allocator@D@2@@std@@@2@V?$allocator@U?$pair@$$CBV?$basic_string@DU?$char_traits@D@std@@V?$allocator@D@2@@std@@VUnitType@BWAPI@@@std@@@2@$0A@@std@@@2@PAU342@00ABU?$pair@$$CBV?$basic_string@DU?$char_traits@D@std@@V?$allocator@D@2@@std@@VUnitType@BWAPI@@@2@D@Z 00431250 f i BWAPI:UnitType.obj
 0001:00030250       ?_Buynode@?$_Tree@V?$_Tmap_traits@V?$basic_string@DU?$char_traits@D@std@@V?$allocator@D@2@@std@@VPlayerType@BWAPI@@U?$less@V?$basic_string@DU?$char_traits@D@std@@V?$allocator@D@2@@std@@@2@V?$allocator@U?$pair@$$CBV?$basic_string@DU?$char_traits@D@std@@V?$allocator@D@2@@std@@VPlayerType@BWAPI@@@std@@@2@$0A@@std@@@std@@IAEPAU_Node@?$_Tree_nod@V?$_Tmap_traits@V?$basic_string@DU?$char_traits@D@std@@V?$allocator@D@2@@std@@VPlayerType@BWAPI@@U?$less@V?$basic_string@DU?$char_traits@D@std@@V?$allocator@D@2@@std@@@2@V?$allocator@U?$pair@$$CBV?$basic_string@DU?$char_traits@D@std@@V?$allocator@D@2@@std@@VPlayerType@BWAPI@@@std@@@2@$0A@@std@@@2@PAU342@00ABU?$pair@$$CBV?$basic_string@DU?$char_traits@D@std@@V?$allocator@D@2@@std@@VPlayerType@BWAPI@@@2@D@Z 00431250 f i BWAPI:PlayerType.obj
 0001:00030250       ?_Buynode@?$_Tree@V?$_Tmap_traits@V?$basic_string@DU?$char_traits@D@std@@V?$allocator@D@2@@std@@VRace@BWAPI@@U?$less@V?$basic_string@DU?$char_traits@D@std@@V?$allocator@D@2@@std@@@2@V?$allocator@U?$pair@$$CBV?$basic_string@DU?$char_traits@D@std@@V?$allocator@D@2@@std@@VRace@BWAPI@@@std@@@2@$0A@@std@@@std@@IAEPAU_Node@?$_Tree_nod@V?$_Tmap_traits@V?$basic_string@DU?$char_traits@D@std@@V?$allocator@D@2@@std@@VRace@BWAPI@@U?$less@V?$basic_string@DU?$char_traits@D@std@@V?$allocator@D@2@@std@@@2@V?$allocator@U?$pair@$$CBV?$basic_string@DU?$char_traits@D@std@@V?$allocator@D@2@@std@@VRace@BWAPI@@@std@@@2@$0A@@std@@@2@PAU342@00ABU?$pair@$$CBV?$basic_string@DU?$char_traits@D@std@@V?$allocator@D@2@@std@@VRace@BWAPI@@@2@D@Z 00431250 f i BWAPI:Race.obj
 0001:00030250       ?_Buynode@?$_Tree@V?$_Tmap_traits@V?$basic_string@DU?$char_traits@D@std@@V?$allocator@D@2@@std@@VGameType@BWAPI@@U?$less@V?$basic_string@DU?$char_traits@D@std@@V?$allocator@D@2@@std@@@2@V?$allocator@U?$pair@$$CBV?$basic_string@DU?$char_traits@D@std@@V?$allocator@D@2@@std@@VGameType@BWAPI@@@std@@@2@$0A@@std@@@std@@IAEPAU_Node@?$_Tree_nod@V?$_Tmap_traits@V?$basic_string@DU?$char_traits@D@std@@V?$allocator@D@2@@std@@VGameType@BWAPI@@U?$less@V?$basic_string@DU?$char_traits@D@std@@V?$allocator@D@2@@std@@@2@V?$allocator@U?$pair@$$CBV?$basic_string@DU?$char_traits@D@std@@V?$allocator@D@2@@std@@VGameType@BWAPI@@@std@@@2@$0A@@std@@@2@PAU342@00ABU?$pair@$$CBV?$basic_string@DU?$char_traits@D@std@@V?$allocator@D@2@@std@@VGameType@BWAPI@@@2@D@Z 00431250 f i BWAPI:GameType.obj
 0001:00030250       ?_Buynode@?$_Tree@V?$_Tmap_traits@V?$basic_string@DU?$char_traits@D@std@@V?$allocator@D@2@@std@@VTechType@BWAPI@@U?$less@V?$basic_string@DU?$char_traits@D@std@@V?$allocator@D@2@@std@@@2@V?$allocator@U?$pair@$$CBV?$basic_string@DU?$char_traits@D@std@@V?$allocator@D@2@@std@@VTechType@BWAPI@@@std@@@2@$0A@@std@@@std@@IAEPAU_Node@?$_Tree_nod@V?$_Tmap_traits@V?$basic_string@DU?$char_traits@D@std@@V?$allocator@D@2@@std@@VTechType@BWAPI@@U?$less@V?$basic_string@DU?$char_traits@D@std@@V?$allocator@D@2@@std@@@2@V?$allocator@U?$pair@$$CBV?$basic_string@DU?$char_traits@D@std@@V?$allocator@D@2@@std@@VTechType@BWAPI@@@std@@@2@$0A@@std@@@2@PAU342@00ABU?$pair@$$CBV?$basic_string@DU?$char_traits@D@std@@V?$allocator@D@2@@std@@VTechType@BWAPI@@@2@D@Z 00431250 f i BWAPI:TechType.obj
 0001:00030250       ?_Buynode@?$_Tree@V?$_Tmap_traits@V?$basic_string@DU?$char_traits@D@std@@V?$allocator@D@2@@std@@VOrder@BWAPI@@U?$less@V?$basic_string@DU?$char_traits@D@std@@V?$allocator@D@2@@std@@@2@V?$allocator@U?$pair@$$CBV?$basic_string@DU?$char_traits@D@std@@V?$allocator@D@2@@std@@VOrder@BWAPI@@@std@@@2@$0A@@std@@@std@@IAEPAU_Node@?$_Tree_nod@V?$_Tmap_traits@V?$basic_string@DU?$char_traits@D@std@@V?$allocator@D@2@@std@@VOrder@BWAPI@@U?$less@V?$basic_string@DU?$char_traits@D@std@@V?$allocator@D@2@@std@@@2@V?$allocator@U?$pair@$$CBV?$basic_string@DU?$char_traits@D@std@@V?$allocator@D@2@@std@@VOrder@BWAPI@@@std@@@2@$0A@@std@@@2@PAU342@00ABU?$pair@$$CBV?$basic_string@DU?$char_traits@D@std@@V?$allocator@D@2@@std@@VOrder@BWAPI@@@2@D@Z 00431250 f i BWAPI:Order.obj
 0001:00030250       ?_Buynode@?$_Tree@V?$_Tmap_traits@V?$basic_string@DU?$char_traits@D@std@@V?$allocator@D@2@@std@@VBulletType@BWAPI@@U?$less@V?$basic_string@DU?$char_traits@D@std@@V?$allocator@D@2@@std@@@2@V?$allocator@U?$pair@$$CBV?$basic_string@DU?$char_traits@D@std@@V?$allocator@D@2@@std@@VBulletType@BWAPI@@@std@@@2@$0A@@std@@@std@@IAEPAU_Node@?$_Tree_nod@V?$_Tmap_traits@V?$basic_string@DU?$char_traits@D@std@@V?$allocator@D@2@@std@@VBulletType@BWAPI@@U?$less@V?$basic_string@DU?$char_traits@D@std@@V?$allocator@D@2@@std@@@2@V?$allocator@U?$pair@$$CBV?$basic_string@DU?$char_traits@D@std@@V?$allocator@D@2@@std@@VBulletType@BWAPI@@@std@@@2@$0A@@std@@@2@PAU342@00ABU?$pair@$$CBV?$basic_string@DU?$char_traits@D@std@@V?$allocator@D@2@@std@@VBulletType@BWAPI@@@2@D@Z 00431250 f i BWAPI:BulletType.obj
 0001:00030250       ?_Buynode@?$_Tree@V?$_Tmap_traits@V?$basic_string@DU?$char_traits@D@std@@V?$allocator@D@2@@std@@VUnitCommandType@BWAPI@@U?$less@V?$basic_string@DU?$char_traits@D@std@@V?$allocator@D@2@@std@@@2@V?$allocator@U?$pair@$$CBV?$basic_string@DU?$char_traits@D@std@@V?$allocator@D@2@@std@@VUnitCommandType@BWAPI@@@std@@@2@$0A@@std@@@std@@IAEPAU_Node@?$_Tree_nod@V?$_Tmap_traits@V?$basic_string@DU?$char_traits@D@std@@V?$allocator@D@2@@std@@VUnitCommandType@BWAPI@@U?$less@V?$basic_string@DU?$char_traits@D@std@@V?$allocator@D@2@@std@@@2@V?$allocator@U?$pair@$$CBV?$basic_string@DU?$char_traits@D@std@@V?$allocator@D@2@@std@@VUnitCommandType@BWAPI@@@std@@@2@$0A@@std@@@2@PAU342@00ABU?$pair@$$CBV?$basic_string@DU?$char_traits@D@std@@V?$allocator@D@2@@std@@VUnitCommandType@BWAPI@@@2@D@Z 00431250 f i BWAPI:UnitCommandType.obj
 0001:00030250       ?_Buynode@?$_Tree@V?$_Tmap_traits@V?$basic_string@DU?$char_traits@D@std@@V?$allocator@D@2@@std@@VUnitSizeType@BWAPI@@U?$less@V?$basic_string@DU?$char_traits@D@std@@V?$allocator@D@2@@std@@@2@V?$allocator@U?$pair@$$CBV?$basic_string@DU?$char_traits@D@std@@V?$allocator@D@2@@std@@VUnitSizeType@BWAPI@@@std@@@2@$0A@@std@@@std@@IAEPAU_Node@?$_Tree_nod@V?$_Tmap_traits@V?$basic_string@DU?$char_traits@D@std@@V?$allocator@D@2@@std@@VUnitSizeType@BWAPI@@U?$less@V?$basic_string@DU?$char_traits@D@std@@V?$allocator@D@2@@std@@@2@V?$allocator@U?$pair@$$CBV?$basic_string@DU?$char_traits@D@std@@V?$allocator@D@2@@std@@VUnitSizeType@BWAPI@@@std@@@2@$0A@@std@@@2@PAU342@00ABU?$pair@$$CBV?$basic_string@DU?$char_traits@D@std@@V?$allocator@D@2@@std@@VUnitSizeType@BWAPI@@@2@D@Z 00431250 f i BWAPI:UnitSizeType.obj
 0001:00030250       ?_Buynode@?$_Tree@V?$_Tmap_traits@V?$basic_string@DU?$char_traits@D@std@@V?$allocator@D@2@@std@@VExplosionType@BWAPI@@U?$less@V?$basic_string@DU?$char_traits@D@std@@V?$allocator@D@2@@std@@@2@V?$allocator@U?$pair@$$CBV?$basic_string@DU?$char_traits@D@std@@V?$allocator@D@2@@std@@VExplosionType@BWAPI@@@std@@@2@$0A@@std@@@std@@IAEPAU_Node@?$_Tree_nod@V?$_Tmap_traits@V?$basic_string@DU?$char_traits@D@std@@V?$allocator@D@2@@std@@VExplosionType@BWAPI@@U?$less@V?$basic_string@DU?$char_traits@D@std@@V?$allocator@D@2@@std@@@2@V?$allocator@U?$pair@$$CBV?$basic_string@DU?$char_traits@D@std@@V?$allocator@D@2@@std@@VExplosionType@BWAPI@@@std@@@2@$0A@@std@@@2@PAU342@00ABU?$pair@$$CBV?$basic_string@DU?$char_traits@D@std@@V?$allocator@D@2@@std@@VExplosionType@BWAPI@@@2@D@Z 00431250 f i BWAPI:ExplosionType.obj
 0001:000302f0       ?_Buynode@?$_Tree@V?$_Tset_traits@VTechType@BWAPI@@U?$less@VTechType@BWAPI@@@std@@V?$allocator@VTechType@BWAPI@@@4@$0A@@std@@@std@@IAEPAU_Node@?$_Tree_nod@V?$_Tset_traits@VTechType@BWAPI@@U?$less@VTechType@BWAPI@@@std@@V?$allocator@VTechType@BWAPI@@@4@$0A@@std@@@2@PAU342@00ABVTechType@BWAPI@@D@Z 004312f0 f i BWAPI:UnitType.obj
 0001:000302f0       ?_Buynode@?$_Tree@V?$_Tset_traits@VWeaponType@BWAPI@@U?$less@VWeaponType@BWAPI@@@std@@V?$allocator@VWeaponType@BWAPI@@@4@$0A@@std@@@std@@IAEPAU_Node@?$_Tree_nod@V?$_Tset_traits@VWeaponType@BWAPI@@U?$less@VWeaponType@BWAPI@@@std@@V?$allocator@VWeaponType@BWAPI@@@4@$0A@@std@@@2@PAU342@00ABVWeaponType@BWAPI@@D@Z 004312f0 f i BWAPI:WeaponType.obj
 0001:000302f0       ?_Buynode@?$_Tree@V?$_Tset_traits@VGameType@BWAPI@@U?$less@VGameType@BWAPI@@@std@@V?$allocator@VGameType@BWAPI@@@4@$0A@@std@@@std@@IAEPAU_Node@?$_Tree_nod@V?$_Tset_traits@VGameType@BWAPI@@U?$less@VGameType@BWAPI@@@std@@V?$allocator@VGameType@BWAPI@@@4@$0A@@std@@@2@PAU342@00ABVGameType@BWAPI@@D@Z 004312f0 f i BWAPI:GameType.obj
 0001:000302f0       ?_Buynode@?$_Tree@V?$_Tset_traits@VOrder@BWAPI@@U?$less@VOrder@BWAPI@@@std@@V?$allocator@VOrder@BWAPI@@@4@$0A@@std@@@std@@IAEPAU_Node@?$_Tree_nod@V?$_Tset_traits@VOrder@BWAPI@@U?$less@VOrder@BWAPI@@@std@@V?$allocator@VOrder@BWAPI@@@4@$0A@@std@@@2@PAU342@00ABVOrder@BWAPI@@D@Z 004312f0 f i BWAPI:Order.obj
 0001:000302f0       ?_Buynode@?$_Tree@V?$_Tset_traits@VUpgradeType@BWAPI@@U?$less@VUpgradeType@BWAPI@@@std@@V?$allocator@VUpgradeType@BWAPI@@@4@$0A@@std@@@std@@IAEPAU_Node@?$_Tree_nod@V?$_Tset_traits@VUpgradeType@BWAPI@@U?$less@VUpgradeType@BWAPI@@@std@@V?$allocator@VUpgradeType@BWAPI@@@4@$0A@@std@@@2@PAU342@00ABVUpgradeType@BWAPI@@D@Z 004312f0 f i BWAPI:UnitType.obj
 0001:000302f0       ?_Buynode@?$_Tree@V?$_Tset_traits@VUnitCommandType@BWAPI@@U?$less@VUnitCommandType@BWAPI@@@std@@V?$allocator@VUnitCommandType@BWAPI@@@4@$0A@@std@@@std@@IAEPAU_Node@?$_Tree_nod@V?$_Tset_traits@VUnitCommandType@BWAPI@@U?$less@VUnitCommandType@BWAPI@@@std@@V?$allocator@VUnitCommandType@BWAPI@@@4@$0A@@std@@@2@PAU342@00ABVUnitCommandType@BWAPI@@D@Z 004312f0 f i BWAPI:UnitCommandType.obj
 0001:000302f0       ?_Buynode@?$_Tree@V?$_Tset_traits@VDamageType@BWAPI@@U?$less@VDamageType@BWAPI@@@std@@V?$allocator@VDamageType@BWAPI@@@4@$0A@@std@@@std@@IAEPAU_Node@?$_Tree_nod@V?$_Tset_traits@VDamageType@BWAPI@@U?$less@VDamageType@BWAPI@@@std@@V?$allocator@VDamageType@BWAPI@@@4@$0A@@std@@@2@PAU342@00ABVDamageType@BWAPI@@D@Z 004312f0 f i BWAPI:DamageType.obj
 0001:000302f0       ?_Buynode@?$_Tree@V?$_Tset_traits@VPlayerType@BWAPI@@U?$less@VPlayerType@BWAPI@@@std@@V?$allocator@VPlayerType@BWAPI@@@4@$0A@@std@@@std@@IAEPAU_Node@?$_Tree_nod@V?$_Tset_traits@VPlayerType@BWAPI@@U?$less@VPlayerType@BWAPI@@@std@@V?$allocator@VPlayerType@BWAPI@@@4@$0A@@std@@@2@PAU342@00ABVPlayerType@BWAPI@@D@Z 004312f0 f i BWAPI:PlayerType.obj
 0001:000302f0       ?_Buynode@?$_Tree@V?$_Tset_traits@VError@BWAPI@@U?$less@VError@BWAPI@@@std@@V?$allocator@VError@BWAPI@@@4@$0A@@std@@@std@@IAEPAU_Node@?$_Tree_nod@V?$_Tset_traits@VError@BWAPI@@U?$less@VError@BWAPI@@@std@@V?$allocator@VError@BWAPI@@@4@$0A@@std@@@2@PAU342@00ABVError@BWAPI@@D@Z 004312f0 f i BWAPI:Error.obj
 0001:000302f0       ?_Buynode@?$_Tree@V?$_Tset_traits@VUnitType@BWAPI@@U?$less@VUnitType@BWAPI@@@std@@V?$allocator@VUnitType@BWAPI@@@4@$0A@@std@@@std@@IAEPAU_Node@?$_Tree_nod@V?$_Tset_traits@VUnitType@BWAPI@@U?$less@VUnitType@BWAPI@@@std@@V?$allocator@VUnitType@BWAPI@@@4@$0A@@std@@@2@PAU342@00ABVUnitType@BWAPI@@D@Z 004312f0 f i BWAPI:UnitType.obj
 0001:000302f0       ?_Buynode@?$_Tree@V?$_Tset_traits@VBulletType@BWAPI@@U?$less@VBulletType@BWAPI@@@std@@V?$allocator@VBulletType@BWAPI@@@4@$0A@@std@@@std@@IAEPAU_Node@?$_Tree_nod@V?$_Tset_traits@VBulletType@BWAPI@@U?$less@VBulletType@BWAPI@@@std@@V?$allocator@VBulletType@BWAPI@@@4@$0A@@std@@@2@PAU342@00ABVBulletType@BWAPI@@D@Z 004312f0 f i BWAPI:BulletType.obj
 0001:000302f0       ?_Buynode@?$_Tree@V?$_Tset_traits@VExplosionType@BWAPI@@U?$less@VExplosionType@BWAPI@@@std@@V?$allocator@VExplosionType@BWAPI@@@4@$0A@@std@@@std@@IAEPAU_Node@?$_Tree_nod@V?$_Tset_traits@VExplosionType@BWAPI@@U?$less@VExplosionType@BWAPI@@@std@@V?$allocator@VExplosionType@BWAPI@@@4@$0A@@std@@@2@PAU342@00ABVExplosionType@BWAPI@@D@Z 004312f0 f i BWAPI:ExplosionType.obj
 0001:000302f0       ?_Buynode@?$_Tree@V?$_Tset_traits@VRace@BWAPI@@U?$less@VRace@BWAPI@@@std@@V?$allocator@VRace@BWAPI@@@4@$0A@@std@@@std@@IAEPAU_Node@?$_Tree_nod@V?$_Tset_traits@VRace@BWAPI@@U?$less@VRace@BWAPI@@@std@@V?$allocator@VRace@BWAPI@@@4@$0A@@std@@@2@PAU342@00ABVRace@BWAPI@@D@Z 004312f0 f i BWAPI:Race.obj
 0001:000302f0       ?_Buynode@?$_Tree@V?$_Tset_traits@VUnitSizeType@BWAPI@@U?$less@VUnitSizeType@BWAPI@@@std@@V?$allocator@VUnitSizeType@BWAPI@@@4@$0A@@std@@@std@@IAEPAU_Node@?$_Tree_nod@V?$_Tset_traits@VUnitSizeType@BWAPI@@U?$less@VUnitSizeType@BWAPI@@@std@@V?$allocator@VUnitSizeType@BWAPI@@@4@$0A@@std@@@2@PAU342@00ABVUnitSizeType@BWAPI@@D@Z 004312f0 f i BWAPI:UnitSizeType.obj
 0001:00030330       ?_Buynode@?$_Tree@V?$_Tmap_traits@V?$basic_string@DU?$char_traits@D@std@@V?$allocator@D@2@@std@@VUpgradeType@BWAPI@@U?$less@V?$basic_string@DU?$char_traits@D@std@@V?$allocator@D@2@@std@@@2@V?$allocator@U?$pair@$$CBV?$basic_string@DU?$char_traits@D@std@@V?$allocator@D@2@@std@@VUpgradeType@BWAPI@@@std@@@2@$0A@@std@@@std@@IAEPAU_Node@?$_Tree_nod@V?$_Tmap_traits@V?$basic_string@DU?$char_traits@D@std@@V?$allocator@D@2@@std@@VUpgradeType@BWAPI@@U?$less@V?$basic_string@DU?$char_traits@D@std@@V?$allocator@D@2@@std@@@2@V?$allocator@U?$pair@$$CBV?$basic_string@DU?$char_traits@D@std@@V?$allocator@D@2@@std@@VUpgradeType@BWAPI@@@std@@@2@$0A@@std@@@2@XZ 00431330 f i BWAPI:UpgradeType.obj
 0001:00030330       ?_Buynode@?$_Tree@V?$_Tmap_traits@V?$basic_string@DU?$char_traits@D@std@@V?$allocator@D@2@@std@@VRace@BWAPI@@U?$less@V?$basic_string@DU?$char_traits@D@std@@V?$allocator@D@2@@std@@@2@V?$allocator@U?$pair@$$CBV?$basic_string@DU?$char_traits@D@std@@V?$allocator@D@2@@std@@VRace@BWAPI@@@std@@@2@$0A@@std@@@std@@IAEPAU_Node@?$_Tree_nod@V?$_Tmap_traits@V?$basic_string@DU?$char_traits@D@std@@V?$allocator@D@2@@std@@VRace@BWAPI@@U?$less@V?$basic_string@DU?$char_traits@D@std@@V?$allocator@D@2@@std@@@2@V?$allocator@U?$pair@$$CBV?$basic_string@DU?$char_traits@D@std@@V?$allocator@D@2@@std@@VRace@BWAPI@@@std@@@2@$0A@@std@@@2@XZ 00431330 f i BWAPI:Race.obj
 0001:00030330       ?_Buynode@?$_Tree@V?$_Tmap_traits@V?$basic_string@DU?$char_traits@D@std@@V?$allocator@D@2@@std@@VOrder@BWAPI@@U?$less@V?$basic_string@DU?$char_traits@D@std@@V?$allocator@D@2@@std@@@2@V?$allocator@U?$pair@$$CBV?$basic_string@DU?$char_traits@D@std@@V?$allocator@D@2@@std@@VOrder@BWAPI@@@std@@@2@$0A@@std@@@std@@IAEPAU_Node@?$_Tree_nod@V?$_Tmap_traits@V?$basic_string@DU?$char_traits@D@std@@V?$allocator@D@2@@std@@VOrder@BWAPI@@U?$less@V?$basic_string@DU?$char_traits@D@std@@V?$allocator@D@2@@std@@@2@V?$allocator@U?$pair@$$CBV?$basic_string@DU?$char_traits@D@std@@V?$allocator@D@2@@std@@VOrder@BWAPI@@@std@@@2@$0A@@std@@@2@XZ 00431330 f i BWAPI:Order.obj
 0001:00030330       ?_Buynode@?$_Tree@V?$_Tmap_traits@V?$basic_string@DU?$char_traits@D@std@@V?$allocator@D@2@@std@@VGameType@BWAPI@@U?$less@V?$basic_string@DU?$char_traits@D@std@@V?$allocator@D@2@@std@@@2@V?$allocator@U?$pair@$$CBV?$basic_string@DU?$char_traits@D@std@@V?$allocator@D@2@@std@@VGameType@BWAPI@@@std@@@2@$0A@@std@@@std@@IAEPAU_Node@?$_Tree_nod@V?$_Tmap_traits@V?$basic_string@DU?$char_traits@D@std@@V?$allocator@D@2@@std@@VGameType@BWAPI@@U?$less@V?$basic_string@DU?$char_traits@D@std@@V?$allocator@D@2@@std@@@2@V?$allocator@U?$pair@$$CBV?$basic_string@DU?$char_traits@D@std@@V?$allocator@D@2@@std@@VGameType@BWAPI@@@std@@@2@$0A@@std@@@2@XZ 00431330 f i BWAPI:GameType.obj
 0001:00030330       ?_Buynode@?$_Tree@V?$_Tmap_traits@V?$basic_string@DU?$char_traits@D@std@@V?$allocator@D@2@@std@@VPlayerType@BWAPI@@U?$less@V?$basic_string@DU?$char_traits@D@std@@V?$allocator@D@2@@std@@@2@V?$allocator@U?$pair@$$CBV?$basic_string@DU?$char_traits@D@std@@V?$allocator@D@2@@std@@VPlayerType@BWAPI@@@std@@@2@$0A@@std@@@std@@IAEPAU_Node@?$_Tree_nod@V?$_Tmap_traits@V?$basic_string@DU?$char_traits@D@std@@V?$allocator@D@2@@std@@VPlayerType@BWAPI@@U?$less@V?$basic_string@DU?$char_traits@D@std@@V?$allocator@D@2@@std@@@2@V?$allocator@U?$pair@$$CBV?$basic_string@DU?$char_traits@D@std@@V?$allocator@D@2@@std@@VPlayerType@BWAPI@@@std@@@2@$0A@@std@@@2@XZ 00431330 f i BWAPI:PlayerType.obj
 0001:00030330       ?_Buynode@?$_Tree@V?$_Tmap_traits@V?$basic_string@DU?$char_traits@D@std@@V?$allocator@D@2@@std@@VWeaponType@BWAPI@@U?$less@V?$basic_string@DU?$char_traits@D@std@@V?$allocator@D@2@@std@@@2@V?$allocator@U?$pair@$$CBV?$basic_string@DU?$char_traits@D@std@@V?$allocator@D@2@@std@@VWeaponType@BWAPI@@@std@@@2@$0A@@std@@@std@@IAEPAU_Node@?$_Tree_nod@V?$_Tmap_traits@V?$basic_string@DU?$char_traits@D@std@@V?$allocator@D@2@@std@@VWeaponType@BWAPI@@U?$less@V?$basic_string@DU?$char_traits@D@std@@V?$allocator@D@2@@std@@@2@V?$allocator@U?$pair@$$CBV?$basic_string@DU?$char_traits@D@std@@V?$allocator@D@2@@std@@VWeaponType@BWAPI@@@std@@@2@$0A@@std@@@2@XZ 00431330 f i BWAPI:WeaponType.obj
 0001:00030330       ?_Buynode@?$_Tree@V?$_Tmap_traits@V?$basic_string@DU?$char_traits@D@std@@V?$allocator@D@2@@std@@VExplosionType@BWAPI@@U?$less@V?$basic_string@DU?$char_traits@D@std@@V?$allocator@D@2@@std@@@2@V?$allocator@U?$pair@$$CBV?$basic_string@DU?$char_traits@D@std@@V?$allocator@D@2@@std@@VExplosionType@BWAPI@@@std@@@2@$0A@@std@@@std@@IAEPAU_Node@?$_Tree_nod@V?$_Tmap_traits@V?$basic_string@DU?$char_traits@D@std@@V?$allocator@D@2@@std@@VExplosionType@BWAPI@@U?$less@V?$basic_string@DU?$char_traits@D@std@@V?$allocator@D@2@@std@@@2@V?$allocator@U?$pair@$$CBV?$basic_string@DU?$char_traits@D@std@@V?$allocator@D@2@@std@@VExplosionType@BWAPI@@@std@@@2@$0A@@std@@@2@XZ 00431330 f i BWAPI:ExplosionType.obj
 0001:00030330       ?_Buynode@?$_Tree@V?$_Tmap_traits@V?$basic_string@DU?$char_traits@D@std@@V?$allocator@D@2@@std@@VError@BWAPI@@U?$less@V?$basic_string@DU?$char_traits@D@std@@V?$allocator@D@2@@std@@@2@V?$allocator@U?$pair@$$CBV?$basic_string@DU?$char_traits@D@std@@V?$allocator@D@2@@std@@VError@BWAPI@@@std@@@2@$0A@@std@@@std@@IAEPAU_Node@?$_Tree_nod@V?$_Tmap_traits@V?$basic_string@DU?$char_traits@D@std@@V?$allocator@D@2@@std@@VError@BWAPI@@U?$less@V?$basic_string@DU?$char_traits@D@std@@V?$allocator@D@2@@std@@@2@V?$allocator@U?$pair@$$CBV?$basic_string@DU?$char_traits@D@std@@V?$allocator@D@2@@std@@VError@BWAPI@@@std@@@2@$0A@@std@@@2@XZ 00431330 f i BWAPI:Error.obj
 0001:00030330       ?_Buynode@?$_Tree@V?$_Tmap_traits@V?$basic_string@DU?$char_traits@D@std@@V?$allocator@D@2@@std@@VUnitType@BWAPI@@U?$less@V?$basic_string@DU?$char_traits@D@std@@V?$allocator@D@2@@std@@@2@V?$allocator@U?$pair@$$CBV?$basic_string@DU?$char_traits@D@std@@V?$allocator@D@2@@std@@VUnitType@BWAPI@@@std@@@2@$0A@@std@@@std@@IAEPAU_Node@?$_Tree_nod@V?$_Tmap_traits@V?$basic_string@DU?$char_traits@D@std@@V?$allocator@D@2@@std@@VUnitType@BWAPI@@U?$less@V?$basic_string@DU?$char_traits@D@std@@V?$allocator@D@2@@std@@@2@V?$allocator@U?$pair@$$CBV?$basic_string@DU?$char_traits@D@std@@V?$allocator@D@2@@std@@VUnitType@BWAPI@@@std@@@2@$0A@@std@@@2@XZ 00431330 f i BWAPI:UnitType.obj
 0001:00030330       ?_Buynode@?$_Tree@V?$_Tmap_traits@V?$basic_string@DU?$char_traits@D@std@@V?$allocator@D@2@@std@@VBulletType@BWAPI@@U?$less@V?$basic_string@DU?$char_traits@D@std@@V?$allocator@D@2@@std@@@2@V?$allocator@U?$pair@$$CBV?$basic_string@DU?$char_traits@D@std@@V?$allocator@D@2@@std@@VBulletType@BWAPI@@@std@@@2@$0A@@std@@@std@@IAEPAU_Node@?$_Tree_nod@V?$_Tmap_traits@V?$basic_string@DU?$char_traits@D@std@@V?$allocator@D@2@@std@@VBulletType@BWAPI@@U?$less@V?$basic_string@DU?$char_traits@D@std@@V?$allocator@D@2@@std@@@2@V?$allocator@U?$pair@$$CBV?$basic_string@DU?$char_traits@D@std@@V?$allocator@D@2@@std@@VBulletType@BWAPI@@@std@@@2@$0A@@std@@@2@XZ 00431330 f i BWAPI:BulletType.obj
 0001:00030330       ?_Buynode@?$_Tree@V?$_Tmap_traits@V?$basic_string@DU?$char_traits@D@std@@V?$allocator@D@2@@std@@VDamageType@BWAPI@@U?$less@V?$basic_string@DU?$char_traits@D@std@@V?$allocator@D@2@@std@@@2@V?$allocator@U?$pair@$$CBV?$basic_string@DU?$char_traits@D@std@@V?$allocator@D@2@@std@@VDamageType@BWAPI@@@std@@@2@$0A@@std@@@std@@IAEPAU_Node@?$_Tree_nod@V?$_Tmap_traits@V?$basic_string@DU?$char_traits@D@std@@V?$allocator@D@2@@std@@VDamageType@BWAPI@@U?$less@V?$basic_string@DU?$char_traits@D@std@@V?$allocator@D@2@@std@@@2@V?$allocator@U?$pair@$$CBV?$basic_string@DU?$char_traits@D@std@@V?$allocator@D@2@@std@@VDamageType@BWAPI@@@std@@@2@$0A@@std@@@2@XZ 00431330 f i BWAPI:DamageType.obj
 0001:00030330       ?_Buynode@?$_Tree@V?$_Tmap_traits@V?$basic_string@DU?$char_traits@D@std@@V?$allocator@D@2@@std@@VUnitSizeType@BWAPI@@U?$less@V?$basic_string@DU?$char_traits@D@std@@V?$allocator@D@2@@std@@@2@V?$allocator@U?$pair@$$CBV?$basic_string@DU?$char_traits@D@std@@V?$allocator@D@2@@std@@VUnitSizeType@BWAPI@@@std@@@2@$0A@@std@@@std@@IAEPAU_Node@?$_Tree_nod@V?$_Tmap_traits@V?$basic_string@DU?$char_traits@D@std@@V?$allocator@D@2@@std@@VUnitSizeType@BWAPI@@U?$less@V?$basic_string@DU?$char_traits@D@std@@V?$allocator@D@2@@std@@@2@V?$allocator@U?$pair@$$CBV?$basic_string@DU?$char_traits@D@std@@V?$allocator@D@2@@std@@VUnitSizeType@BWAPI@@@std@@@2@$0A@@std@@@2@XZ 00431330 f i BWAPI:UnitSizeType.obj
 0001:00030330       ?_Buynode@?$_Tree@V?$_Tmap_traits@V?$basic_string@DU?$char_traits@D@std@@V?$allocator@D@2@@std@@VTechType@BWAPI@@U?$less@V?$basic_string@DU?$char_traits@D@std@@V?$allocator@D@2@@std@@@2@V?$allocator@U?$pair@$$CBV?$basic_string@DU?$char_traits@D@std@@V?$allocator@D@2@@std@@VTechType@BWAPI@@@std@@@2@$0A@@std@@@std@@IAEPAU_Node@?$_Tree_nod@V?$_Tmap_traits@V?$basic_string@DU?$char_traits@D@std@@V?$allocator@D@2@@std@@VTechType@BWAPI@@U?$less@V?$basic_string@DU?$char_traits@D@std@@V?$allocator@D@2@@std@@@2@V?$allocator@U?$pair@$$CBV?$basic_string@DU?$char_traits@D@std@@V?$allocator@D@2@@std@@VTechType@BWAPI@@@std@@@2@$0A@@std@@@2@XZ 00431330 f i BWAPI:TechType.obj
 0001:00030330       ?_Buynode@?$_Tree@V?$_Tmap_traits@V?$basic_string@DU?$char_traits@D@std@@V?$allocator@D@2@@std@@VUnitCommandType@BWAPI@@U?$less@V?$basic_string@DU?$char_traits@D@std@@V?$allocator@D@2@@std@@@2@V?$allocator@U?$pair@$$CBV?$basic_string@DU?$char_traits@D@std@@V?$allocator@D@2@@std@@VUnitCommandType@BWAPI@@@std@@@2@$0A@@std@@@std@@IAEPAU_Node@?$_Tree_nod@V?$_Tmap_traits@V?$basic_string@DU?$char_traits@D@std@@V?$allocator@D@2@@std@@VUnitCommandType@BWAPI@@U?$less@V?$basic_string@DU?$char_traits@D@std@@V?$allocator@D@2@@std@@@2@V?$allocator@U?$pair@$$CBV?$basic_string@DU?$char_traits@D@std@@V?$allocator@D@2@@std@@VUnitCommandType@BWAPI@@@std@@@2@$0A@@std@@@2@XZ 00431330 f i BWAPI:UnitCommandType.obj
 0001:00030370       ?init@UnitCommandTypes@BWAPI@@YAXXZ 00431370 f   BWAPI:UnitCommandType.obj
 0001:00030f30       ?_Buynode@?$_Tree@V?$_Tset_traits@VBulletType@BWAPI@@U?$less@VBulletType@BWAPI@@@std@@V?$allocator@VBulletType@BWAPI@@@4@$0A@@std@@@std@@IAEPAU_Node@?$_Tree_nod@V?$_Tset_traits@VBulletType@BWAPI@@U?$less@VBulletType@BWAPI@@@std@@V?$allocator@VBulletType@BWAPI@@@4@$0A@@std@@@2@XZ 00431f30 f i BWAPI:BulletType.obj
 0001:00030f30       ?_Buynode@?$_Tree@V?$_Tset_traits@VUnitCommandType@BWAPI@@U?$less@VUnitCommandType@BWAPI@@@std@@V?$allocator@VUnitCommandType@BWAPI@@@4@$0A@@std@@@std@@IAEPAU_Node@?$_Tree_nod@V?$_Tset_traits@VUnitCommandType@BWAPI@@U?$less@VUnitCommandType@BWAPI@@@std@@V?$allocator@VUnitCommandType@BWAPI@@@4@$0A@@std@@@2@XZ 00431f30 f i BWAPI:UnitCommandType.obj
 0001:00030f30       ?_Buynode@?$_Tree@V?$_Tset_traits@VGameType@BWAPI@@U?$less@VGameType@BWAPI@@@std@@V?$allocator@VGameType@BWAPI@@@4@$0A@@std@@@std@@IAEPAU_Node@?$_Tree_nod@V?$_Tset_traits@VGameType@BWAPI@@U?$less@VGameType@BWAPI@@@std@@V?$allocator@VGameType@BWAPI@@@4@$0A@@std@@@2@XZ 00431f30 f i BWAPI:GameType.obj
 0001:00030f30       ?_Buynode@?$_Tree@V?$_Tset_traits@VRace@BWAPI@@U?$less@VRace@BWAPI@@@std@@V?$allocator@VRace@BWAPI@@@4@$0A@@std@@@std@@IAEPAU_Node@?$_Tree_nod@V?$_Tset_traits@VRace@BWAPI@@U?$less@VRace@BWAPI@@@std@@V?$allocator@VRace@BWAPI@@@4@$0A@@std@@@2@XZ 00431f30 f i BWAPI:Race.obj
 0001:00030f30       ?_Buynode@?$_Tree@V?$_Tset_traits@VUnitSizeType@BWAPI@@U?$less@VUnitSizeType@BWAPI@@@std@@V?$allocator@VUnitSizeType@BWAPI@@@4@$0A@@std@@@std@@IAEPAU_Node@?$_Tree_nod@V?$_Tset_traits@VUnitSizeType@BWAPI@@U?$less@VUnitSizeType@BWAPI@@@std@@V?$allocator@VUnitSizeType@BWAPI@@@4@$0A@@std@@@2@XZ 00431f30 f i BWAPI:UnitSizeType.obj
 0001:00030f30       ?_Buynode@?$_Tree@V?$_Tset_traits@VTechType@BWAPI@@U?$less@VTechType@BWAPI@@@std@@V?$allocator@VTechType@BWAPI@@@4@$0A@@std@@@std@@IAEPAU_Node@?$_Tree_nod@V?$_Tset_traits@VTechType@BWAPI@@U?$less@VTechType@BWAPI@@@std@@V?$allocator@VTechType@BWAPI@@@4@$0A@@std@@@2@XZ 00431f30 f i BWAPI:UnitType.obj
 0001:00030f30       ?_Buynode@?$_Tree@V?$_Tset_traits@VError@BWAPI@@U?$less@VError@BWAPI@@@std@@V?$allocator@VError@BWAPI@@@4@$0A@@std@@@std@@IAEPAU_Node@?$_Tree_nod@V?$_Tset_traits@VError@BWAPI@@U?$less@VError@BWAPI@@@std@@V?$allocator@VError@BWAPI@@@4@$0A@@std@@@2@XZ 00431f30 f i BWAPI:Error.obj
 0001:00030f30       ?_Buynode@?$_Tree@V?$_Tset_traits@VUnitType@BWAPI@@U?$less@VUnitType@BWAPI@@@std@@V?$allocator@VUnitType@BWAPI@@@4@$0A@@std@@@std@@IAEPAU_Node@?$_Tree_nod@V?$_Tset_traits@VUnitType@BWAPI@@U?$less@VUnitType@BWAPI@@@std@@V?$allocator@VUnitType@BWAPI@@@4@$0A@@std@@@2@XZ 00431f30 f i BWAPI:UnitType.obj
 0001:00030f30       ?_Buynode@?$_Tree@V?$_Tset_traits@VPlayerType@BWAPI@@U?$less@VPlayerType@BWAPI@@@std@@V?$allocator@VPlayerType@BWAPI@@@4@$0A@@std@@@std@@IAEPAU_Node@?$_Tree_nod@V?$_Tset_traits@VPlayerType@BWAPI@@U?$less@VPlayerType@BWAPI@@@std@@V?$allocator@VPlayerType@BWAPI@@@4@$0A@@std@@@2@XZ 00431f30 f i BWAPI:PlayerType.obj
 0001:00030f30       ?_Buynode@?$_Tree@V?$_Tset_traits@VUpgradeType@BWAPI@@U?$less@VUpgradeType@BWAPI@@@std@@V?$allocator@VUpgradeType@BWAPI@@@4@$0A@@std@@@std@@IAEPAU_Node@?$_Tree_nod@V?$_Tset_traits@VUpgradeType@BWAPI@@U?$less@VUpgradeType@BWAPI@@@std@@V?$allocator@VUpgradeType@BWAPI@@@4@$0A@@std@@@2@XZ 00431f30 f i BWAPI:UnitType.obj
 0001:00030f30       ?_Buynode@?$_Tree@V?$_Tset_traits@VOrder@BWAPI@@U?$less@VOrder@BWAPI@@@std@@V?$allocator@VOrder@BWAPI@@@4@$0A@@std@@@std@@IAEPAU_Node@?$_Tree_nod@V?$_Tset_traits@VOrder@BWAPI@@U?$less@VOrder@BWAPI@@@std@@V?$allocator@VOrder@BWAPI@@@4@$0A@@std@@@2@XZ 00431f30 f i BWAPI:Order.obj
 0001:00030f30       ?_Buynode@?$_Tree@V?$_Tset_traits@VWeaponType@BWAPI@@U?$less@VWeaponType@BWAPI@@@std@@V?$allocator@VWeaponType@BWAPI@@@4@$0A@@std@@@std@@IAEPAU_Node@?$_Tree_nod@V?$_Tset_traits@VWeaponType@BWAPI@@U?$less@VWeaponType@BWAPI@@@std@@V?$allocator@VWeaponType@BWAPI@@@4@$0A@@std@@@2@XZ 00431f30 f i BWAPI:WeaponType.obj
 0001:00030f30       ?_Buynode@?$_Tree@V?$_Tset_traits@VExplosionType@BWAPI@@U?$less@VExplosionType@BWAPI@@@std@@V?$allocator@VExplosionType@BWAPI@@@4@$0A@@std@@@std@@IAEPAU_Node@?$_Tree_nod@V?$_Tset_traits@VExplosionType@BWAPI@@U?$less@VExplosionType@BWAPI@@@std@@V?$allocator@VExplosionType@BWAPI@@@4@$0A@@std@@@2@XZ 00431f30 f i BWAPI:ExplosionType.obj
 0001:00030f30       ?_Buynode@?$_Tree@V?$_Tset_traits@VDamageType@BWAPI@@U?$less@VDamageType@BWAPI@@@std@@V?$allocator@VDamageType@BWAPI@@@4@$0A@@std@@@std@@IAEPAU_Node@?$_Tree_nod@V?$_Tset_traits@VDamageType@BWAPI@@U?$less@VDamageType@BWAPI@@@std@@V?$allocator@VDamageType@BWAPI@@@4@$0A@@std@@@2@XZ 00431f30 f i BWAPI:DamageType.obj
 0001:00030f70       ?erase@?$_Tree@V?$_Tmap_traits@V?$basic_string@DU?$char_traits@D@std@@V?$allocator@D@2@@std@@VRace@BWAPI@@U?$less@V?$basic_string@DU?$char_traits@D@std@@V?$allocator@D@2@@std@@@2@V?$allocator@U?$pair@$$CBV?$basic_string@DU?$char_traits@D@std@@V?$allocator@D@2@@std@@VRace@BWAPI@@@std@@@2@$0A@@std@@@std@@QAE?AViterator@12@Vconst_iterator@12@@Z 00431f70 f i BWAPI:Race.obj
 0001:00030f70       ?erase@?$_Tree@V?$_Tmap_traits@V?$basic_string@DU?$char_traits@D@std@@V?$allocator@D@2@@std@@VDamageType@BWAPI@@U?$less@V?$basic_string@DU?$char_traits@D@std@@V?$allocator@D@2@@std@@@2@V?$allocator@U?$pair@$$CBV?$basic_string@DU?$char_traits@D@std@@V?$allocator@D@2@@std@@VDamageType@BWAPI@@@std@@@2@$0A@@std@@@std@@QAE?AViterator@12@Vconst_iterator@12@@Z 00431f70 f i BWAPI:DamageType.obj
 0001:00030f70       ?erase@?$_Tree@V?$_Tmap_traits@V?$basic_string@DU?$char_traits@D@std@@V?$allocator@D@2@@std@@VUnitCommandType@BWAPI@@U?$less@V?$basic_string@DU?$char_traits@D@std@@V?$allocator@D@2@@std@@@2@V?$allocator@U?$pair@$$CBV?$basic_string@DU?$char_traits@D@std@@V?$allocator@D@2@@std@@VUnitCommandType@BWAPI@@@std@@@2@$0A@@std@@@std@@QAE?AViterator@12@Vconst_iterator@12@@Z 00431f70 f i BWAPI:UnitCommandType.obj
 0001:00030f70       ?erase@?$_Tree@V?$_Tmap_traits@V?$basic_string@DU?$char_traits@D@std@@V?$allocator@D@2@@std@@VExplosionType@BWAPI@@U?$less@V?$basic_string@DU?$char_traits@D@std@@V?$allocator@D@2@@std@@@2@V?$allocator@U?$pair@$$CBV?$basic_string@DU?$char_traits@D@std@@V?$allocator@D@2@@std@@VExplosionType@BWAPI@@@std@@@2@$0A@@std@@@std@@QAE?AViterator@12@Vconst_iterator@12@@Z 00431f70 f i BWAPI:ExplosionType.obj
 0001:00030f70       ?erase@?$_Tree@V?$_Tmap_traits@V?$basic_string@DU?$char_traits@D@std@@V?$allocator@D@2@@std@@VPlayerType@BWAPI@@U?$less@V?$basic_string@DU?$char_traits@D@std@@V?$allocator@D@2@@std@@@2@V?$allocator@U?$pair@$$CBV?$basic_string@DU?$char_traits@D@std@@V?$allocator@D@2@@std@@VPlayerType@BWAPI@@@std@@@2@$0A@@std@@@std@@QAE?AViterator@12@Vconst_iterator@12@@Z 00431f70 f i BWAPI:PlayerType.obj
 0001:00030f70       ?erase@?$_Tree@V?$_Tmap_traits@V?$basic_string@DU?$char_traits@D@std@@V?$allocator@D@2@@std@@VUnitType@BWAPI@@U?$less@V?$basic_string@DU?$char_traits@D@std@@V?$allocator@D@2@@std@@@2@V?$allocator@U?$pair@$$CBV?$basic_string@DU?$char_traits@D@std@@V?$allocator@D@2@@std@@VUnitType@BWAPI@@@std@@@2@$0A@@std@@@std@@QAE?AViterator@12@Vconst_iterator@12@@Z 00431f70 f i BWAPI:UnitType.obj
 0001:00030f70       ?erase@?$_Tree@V?$_Tmap_traits@V?$basic_string@DU?$char_traits@D@std@@V?$allocator@D@2@@std@@VWeaponType@BWAPI@@U?$less@V?$basic_string@DU?$char_traits@D@std@@V?$allocator@D@2@@std@@@2@V?$allocator@U?$pair@$$CBV?$basic_string@DU?$char_traits@D@std@@V?$allocator@D@2@@std@@VWeaponType@BWAPI@@@std@@@2@$0A@@std@@@std@@QAE?AViterator@12@Vconst_iterator@12@@Z 00431f70 f i BWAPI:WeaponType.obj
 0001:00030f70       ?erase@?$_Tree@V?$_Tmap_traits@V?$basic_string@DU?$char_traits@D@std@@V?$allocator@D@2@@std@@VUnitSizeType@BWAPI@@U?$less@V?$basic_string@DU?$char_traits@D@std@@V?$allocator@D@2@@std@@@2@V?$allocator@U?$pair@$$CBV?$basic_string@DU?$char_traits@D@std@@V?$allocator@D@2@@std@@VUnitSizeType@BWAPI@@@std@@@2@$0A@@std@@@std@@QAE?AViterator@12@Vconst_iterator@12@@Z 00431f70 f i BWAPI:UnitSizeType.obj
 0001:00030f70       ?erase@?$_Tree@V?$_Tmap_traits@V?$basic_string@DU?$char_traits@D@std@@V?$allocator@D@2@@std@@VOrder@BWAPI@@U?$less@V?$basic_string@DU?$char_traits@D@std@@V?$allocator@D@2@@std@@@2@V?$allocator@U?$pair@$$CBV?$basic_string@DU?$char_traits@D@std@@V?$allocator@D@2@@std@@VOrder@BWAPI@@@std@@@2@$0A@@std@@@std@@QAE?AViterator@12@Vconst_iterator@12@@Z 00431f70 f i BWAPI:Order.obj
 0001:00030f70       ?erase@?$_Tree@V?$_Tmap_traits@V?$basic_string@DU?$char_traits@D@std@@V?$allocator@D@2@@std@@VGameType@BWAPI@@U?$less@V?$basic_string@DU?$char_traits@D@std@@V?$allocator@D@2@@std@@@2@V?$allocator@U?$pair@$$CBV?$basic_string@DU?$char_traits@D@std@@V?$allocator@D@2@@std@@VGameType@BWAPI@@@std@@@2@$0A@@std@@@std@@QAE?AViterator@12@Vconst_iterator@12@@Z 00431f70 f i BWAPI:GameType.obj
 0001:00030f70       ?erase@?$_Tree@V?$_Tmap_traits@V?$basic_string@DU?$char_traits@D@std@@V?$allocator@D@2@@std@@VError@BWAPI@@U?$less@V?$basic_string@DU?$char_traits@D@std@@V?$allocator@D@2@@std@@@2@V?$allocator@U?$pair@$$CBV?$basic_string@DU?$char_traits@D@std@@V?$allocator@D@2@@std@@VError@BWAPI@@@std@@@2@$0A@@std@@@std@@QAE?AViterator@12@Vconst_iterator@12@@Z 00431f70 f i BWAPI:Error.obj
 0001:00030f70       ?erase@?$_Tree@V?$_Tmap_traits@V?$basic_string@DU?$char_traits@D@std@@V?$allocator@D@2@@std@@VUpgradeType@BWAPI@@U?$less@V?$basic_string@DU?$char_traits@D@std@@V?$allocator@D@2@@std@@@2@V?$allocator@U?$pair@$$CBV?$basic_string@DU?$char_traits@D@std@@V?$allocator@D@2@@std@@VUpgradeType@BWAPI@@@std@@@2@$0A@@std@@@std@@QAE?AViterator@12@Vconst_iterator@12@@Z 00431f70 f i BWAPI:UpgradeType.obj
 0001:00030f70       ?erase@?$_Tree@V?$_Tmap_traits@V?$basic_string@DU?$char_traits@D@std@@V?$allocator@D@2@@std@@VBulletType@BWAPI@@U?$less@V?$basic_string@DU?$char_traits@D@std@@V?$allocator@D@2@@std@@@2@V?$allocator@U?$pair@$$CBV?$basic_string@DU?$char_traits@D@std@@V?$allocator@D@2@@std@@VBulletType@BWAPI@@@std@@@2@$0A@@std@@@std@@QAE?AViterator@12@Vconst_iterator@12@@Z 00431f70 f i BWAPI:BulletType.obj
 0001:00030f70       ?erase@?$_Tree@V?$_Tmap_traits@V?$basic_string@DU?$char_traits@D@std@@V?$allocator@D@2@@std@@VTechType@BWAPI@@U?$less@V?$basic_string@DU?$char_traits@D@std@@V?$allocator@D@2@@std@@@2@V?$allocator@U?$pair@$$CBV?$basic_string@DU?$char_traits@D@std@@V?$allocator@D@2@@std@@VTechType@BWAPI@@@std@@@2@$0A@@std@@@std@@QAE?AViterator@12@Vconst_iterator@12@@Z 00431f70 f i BWAPI:TechType.obj
 0001:00031250       ?init@PlayerTypes@BWAPI@@YAXXZ 00432250 f   BWAPI:PlayerType.obj
 0001:00031650       ?erase@?$_Tree@V?$_Tmap_traits@V?$basic_string@DU?$char_traits@D@std@@V?$allocator@D@2@@std@@VUnitType@BWAPI@@U?$less@V?$basic_string@DU?$char_traits@D@std@@V?$allocator@D@2@@std@@@2@V?$allocator@U?$pair@$$CBV?$basic_string@DU?$char_traits@D@std@@V?$allocator@D@2@@std@@VUnitType@BWAPI@@@std@@@2@$0A@@std@@@std@@QAE?AViterator@12@Vconst_iterator@12@0@Z 00432650 f i BWAPI:UnitType.obj
 0001:00031650       ?erase@?$_Tree@V?$_Tmap_traits@V?$basic_string@DU?$char_traits@D@std@@V?$allocator@D@2@@std@@VWeaponType@BWAPI@@U?$less@V?$basic_string@DU?$char_traits@D@std@@V?$allocator@D@2@@std@@@2@V?$allocator@U?$pair@$$CBV?$basic_string@DU?$char_traits@D@std@@V?$allocator@D@2@@std@@VWeaponType@BWAPI@@@std@@@2@$0A@@std@@@std@@QAE?AViterator@12@Vconst_iterator@12@0@Z 00432650 f i BWAPI:WeaponType.obj
 0001:00031650       ?erase@?$_Tree@V?$_Tmap_traits@V?$basic_string@DU?$char_traits@D@std@@V?$allocator@D@2@@std@@VError@BWAPI@@U?$less@V?$basic_string@DU?$char_traits@D@std@@V?$allocator@D@2@@std@@@2@V?$allocator@U?$pair@$$CBV?$basic_string@DU?$char_traits@D@std@@V?$allocator@D@2@@std@@VError@BWAPI@@@std@@@2@$0A@@std@@@std@@QAE?AViterator@12@Vconst_iterator@12@0@Z 00432650 f i BWAPI:Error.obj
 0001:00031650       ?erase@?$_Tree@V?$_Tmap_traits@V?$basic_string@DU?$char_traits@D@std@@V?$allocator@D@2@@std@@VPlayerType@BWAPI@@U?$less@V?$basic_string@DU?$char_traits@D@std@@V?$allocator@D@2@@std@@@2@V?$allocator@U?$pair@$$CBV?$basic_string@DU?$char_traits@D@std@@V?$allocator@D@2@@std@@VPlayerType@BWAPI@@@std@@@2@$0A@@std@@@std@@QAE?AViterator@12@Vconst_iterator@12@0@Z 00432650 f i BWAPI:PlayerType.obj
 0001:00031650       ?erase@?$_Tree@V?$_Tmap_traits@V?$basic_string@DU?$char_traits@D@std@@V?$allocator@D@2@@std@@VBulletType@BWAPI@@U?$less@V?$basic_string@DU?$char_traits@D@std@@V?$allocator@D@2@@std@@@2@V?$allocator@U?$pair@$$CBV?$basic_string@DU?$char_traits@D@std@@V?$allocator@D@2@@std@@VBulletType@BWAPI@@@std@@@2@$0A@@std@@@std@@QAE?AViterator@12@Vconst_iterator@12@0@Z 00432650 f i BWAPI:BulletType.obj
 0001:00031650       ?erase@?$_Tree@V?$_Tmap_traits@V?$basic_string@DU?$char_traits@D@std@@V?$allocator@D@2@@std@@VGameType@BWAPI@@U?$less@V?$basic_string@DU?$char_traits@D@std@@V?$allocator@D@2@@std@@@2@V?$allocator@U?$pair@$$CBV?$basic_string@DU?$char_traits@D@std@@V?$allocator@D@2@@std@@VGameType@BWAPI@@@std@@@2@$0A@@std@@@std@@QAE?AViterator@12@Vconst_iterator@12@0@Z 00432650 f i BWAPI:GameType.obj
 0001:00031650       ?erase@?$_Tree@V?$_Tmap_traits@V?$basic_string@DU?$char_traits@D@std@@V?$allocator@D@2@@std@@VOrder@BWAPI@@U?$less@V?$basic_string@DU?$char_traits@D@std@@V?$allocator@D@2@@std@@@2@V?$allocator@U?$pair@$$CBV?$basic_string@DU?$char_traits@D@std@@V?$allocator@D@2@@std@@VOrder@BWAPI@@@std@@@2@$0A@@std@@@std@@QAE?AViterator@12@Vconst_iterator@12@0@Z 00432650 f i BWAPI:Order.obj
 0001:00031650       ?erase@?$_Tree@V?$_Tmap_traits@V?$basic_string@DU?$char_traits@D@std@@V?$allocator@D@2@@std@@VRace@BWAPI@@U?$less@V?$basic_string@DU?$char_traits@D@std@@V?$allocator@D@2@@std@@@2@V?$allocator@U?$pair@$$CBV?$basic_string@DU?$char_traits@D@std@@V?$allocator@D@2@@std@@VRace@BWAPI@@@std@@@2@$0A@@std@@@std@@QAE?AViterator@12@Vconst_iterator@12@0@Z 00432650 f i BWAPI:Race.obj
 0001:00031650       ?erase@?$_Tree@V?$_Tmap_traits@V?$basic_string@DU?$char_traits@D@std@@V?$allocator@D@2@@std@@VUnitSizeType@BWAPI@@U?$less@V?$basic_string@DU?$char_traits@D@std@@V?$allocator@D@2@@std@@@2@V?$allocator@U?$pair@$$CBV?$basic_string@DU?$char_traits@D@std@@V?$allocator@D@2@@std@@VUnitSizeType@BWAPI@@@std@@@2@$0A@@std@@@std@@QAE?AViterator@12@Vconst_iterator@12@0@Z 00432650 f i BWAPI:UnitSizeType.obj
 0001:00031650       ?erase@?$_Tree@V?$_Tmap_traits@V?$basic_string@DU?$char_traits@D@std@@V?$allocator@D@2@@std@@VUnitCommandType@BWAPI@@U?$less@V?$basic_string@DU?$char_traits@D@std@@V?$allocator@D@2@@std@@@2@V?$allocator@U?$pair@$$CBV?$basic_string@DU?$char_traits@D@std@@V?$allocator@D@2@@std@@VUnitCommandType@BWAPI@@@std@@@2@$0A@@std@@@std@@QAE?AViterator@12@Vconst_iterator@12@0@Z 00432650 f i BWAPI:UnitCommandType.obj
 0001:00031650       ?erase@?$_Tree@V?$_Tmap_traits@V?$basic_string@DU?$char_traits@D@std@@V?$allocator@D@2@@std@@VUpgradeType@BWAPI@@U?$less@V?$basic_string@DU?$char_traits@D@std@@V?$allocator@D@2@@std@@@2@V?$allocator@U?$pair@$$CBV?$basic_string@DU?$char_traits@D@std@@V?$allocator@D@2@@std@@VUpgradeType@BWAPI@@@std@@@2@$0A@@std@@@std@@QAE?AViterator@12@Vconst_iterator@12@0@Z 00432650 f i BWAPI:UpgradeType.obj
 0001:00031650       ?erase@?$_Tree@V?$_Tmap_traits@V?$basic_string@DU?$char_traits@D@std@@V?$allocator@D@2@@std@@VDamageType@BWAPI@@U?$less@V?$basic_string@DU?$char_traits@D@std@@V?$allocator@D@2@@std@@@2@V?$allocator@U?$pair@$$CBV?$basic_string@DU?$char_traits@D@std@@V?$allocator@D@2@@std@@VDamageType@BWAPI@@@std@@@2@$0A@@std@@@std@@QAE?AViterator@12@Vconst_iterator@12@0@Z 00432650 f i BWAPI:DamageType.obj
 0001:00031650       ?erase@?$_Tree@V?$_Tmap_traits@V?$basic_string@DU?$char_traits@D@std@@V?$allocator@D@2@@std@@VTechType@BWAPI@@U?$less@V?$basic_string@DU?$char_traits@D@std@@V?$allocator@D@2@@std@@@2@V?$allocator@U?$pair@$$CBV?$basic_string@DU?$char_traits@D@std@@V?$allocator@D@2@@std@@VTechType@BWAPI@@@std@@@2@$0A@@std@@@std@@QAE?AViterator@12@Vconst_iterator@12@0@Z 00432650 f i BWAPI:TechType.obj
 0001:00031650       ?erase@?$_Tree@V?$_Tmap_traits@V?$basic_string@DU?$char_traits@D@std@@V?$allocator@D@2@@std@@VExplosionType@BWAPI@@U?$less@V?$basic_string@DU?$char_traits@D@std@@V?$allocator@D@2@@std@@@2@V?$allocator@U?$pair@$$CBV?$basic_string@DU?$char_traits@D@std@@V?$allocator@D@2@@std@@VExplosionType@BWAPI@@@std@@@2@$0A@@std@@@std@@QAE?AViterator@12@Vconst_iterator@12@0@Z 00432650 f i BWAPI:ExplosionType.obj
 0001:00031730       ??1?$_Tree@V?$_Tmap_traits@V?$basic_string@DU?$char_traits@D@std@@V?$allocator@D@2@@std@@VDamageType@BWAPI@@U?$less@V?$basic_string@DU?$char_traits@D@std@@V?$allocator@D@2@@std@@@2@V?$allocator@U?$pair@$$CBV?$basic_string@DU?$char_traits@D@std@@V?$allocator@D@2@@std@@VDamageType@BWAPI@@@std@@@2@$0A@@std@@@std@@QAE@XZ 00432730 f i BWAPI:DamageType.obj
 0001:00031730       ??1?$_Tree@V?$_Tmap_traits@V?$basic_string@DU?$char_traits@D@std@@V?$allocator@D@2@@std@@VRace@BWAPI@@U?$less@V?$basic_string@DU?$char_traits@D@std@@V?$allocator@D@2@@std@@@2@V?$allocator@U?$pair@$$CBV?$basic_string@DU?$char_traits@D@std@@V?$allocator@D@2@@std@@VRace@BWAPI@@@std@@@2@$0A@@std@@@std@@QAE@XZ 00432730 f i BWAPI:Race.obj
 0001:00031730       ??1?$_Tree@V?$_Tmap_traits@V?$basic_string@DU?$char_traits@D@std@@V?$allocator@D@2@@std@@VUpgradeType@BWAPI@@U?$less@V?$basic_string@DU?$char_traits@D@std@@V?$allocator@D@2@@std@@@2@V?$allocator@U?$pair@$$CBV?$basic_string@DU?$char_traits@D@std@@V?$allocator@D@2@@std@@VUpgradeType@BWAPI@@@std@@@2@$0A@@std@@@std@@QAE@XZ 00432730 f i BWAPI:UpgradeType.obj
 0001:00031730       ??1?$_Tree@V?$_Tmap_traits@V?$basic_string@DU?$char_traits@D@std@@V?$allocator@D@2@@std@@VError@BWAPI@@U?$less@V?$basic_string@DU?$char_traits@D@std@@V?$allocator@D@2@@std@@@2@V?$allocator@U?$pair@$$CBV?$basic_string@DU?$char_traits@D@std@@V?$allocator@D@2@@std@@VError@BWAPI@@@std@@@2@$0A@@std@@@std@@QAE@XZ 00432730 f i BWAPI:Error.obj
 0001:00031730       ??1?$_Tree@V?$_Tmap_traits@V?$basic_string@DU?$char_traits@D@std@@V?$allocator@D@2@@std@@VBulletType@BWAPI@@U?$less@V?$basic_string@DU?$char_traits@D@std@@V?$allocator@D@2@@std@@@2@V?$allocator@U?$pair@$$CBV?$basic_string@DU?$char_traits@D@std@@V?$allocator@D@2@@std@@VBulletType@BWAPI@@@std@@@2@$0A@@std@@@std@@QAE@XZ 00432730 f i BWAPI:BulletType.obj
 0001:00031730       ??1?$_Tree@V?$_Tmap_traits@V?$basic_string@DU?$char_traits@D@std@@V?$allocator@D@2@@std@@VPlayerType@BWAPI@@U?$less@V?$basic_string@DU?$char_traits@D@std@@V?$allocator@D@2@@std@@@2@V?$allocator@U?$pair@$$CBV?$basic_string@DU?$char_traits@D@std@@V?$allocator@D@2@@std@@VPlayerType@BWAPI@@@std@@@2@$0A@@std@@@std@@QAE@XZ 00432730 f i BWAPI:PlayerType.obj
 0001:00031730       ??1?$_Tree@V?$_Tmap_traits@V?$basic_string@DU?$char_traits@D@std@@V?$allocator@D@2@@std@@VExplosionType@BWAPI@@U?$less@V?$basic_string@DU?$char_traits@D@std@@V?$allocator@D@2@@std@@@2@V?$allocator@U?$pair@$$CBV?$basic_string@DU?$char_traits@D@std@@V?$allocator@D@2@@std@@VExplosionType@BWAPI@@@std@@@2@$0A@@std@@@std@@QAE@XZ 00432730 f i BWAPI:ExplosionType.obj
 0001:00031730       ??1?$_Tree@V?$_Tmap_traits@V?$basic_string@DU?$char_traits@D@std@@V?$allocator@D@2@@std@@VGameType@BWAPI@@U?$less@V?$basic_string@DU?$char_traits@D@std@@V?$allocator@D@2@@std@@@2@V?$allocator@U?$pair@$$CBV?$basic_string@DU?$char_traits@D@std@@V?$allocator@D@2@@std@@VGameType@BWAPI@@@std@@@2@$0A@@std@@@std@@QAE@XZ 00432730 f i BWAPI:GameType.obj
 0001:00031730       ??1?$_Tree@V?$_Tmap_traits@V?$basic_string@DU?$char_traits@D@std@@V?$allocator@D@2@@std@@VWeaponType@BWAPI@@U?$less@V?$basic_string@DU?$char_traits@D@std@@V?$allocator@D@2@@std@@@2@V?$allocator@U?$pair@$$CBV?$basic_string@DU?$char_traits@D@std@@V?$allocator@D@2@@std@@VWeaponType@BWAPI@@@std@@@2@$0A@@std@@@std@@QAE@XZ 00432730 f i BWAPI:WeaponType.obj
 0001:00031730       ??1?$_Tree@V?$_Tmap_traits@V?$basic_string@DU?$char_traits@D@std@@V?$allocator@D@2@@std@@VOrder@BWAPI@@U?$less@V?$basic_string@DU?$char_traits@D@std@@V?$allocator@D@2@@std@@@2@V?$allocator@U?$pair@$$CBV?$basic_string@DU?$char_traits@D@std@@V?$allocator@D@2@@std@@VOrder@BWAPI@@@std@@@2@$0A@@std@@@std@@QAE@XZ 00432730 f i BWAPI:Order.obj
 0001:00031730       ??1?$_Tree@V?$_Tmap_traits@V?$basic_string@DU?$char_traits@D@std@@V?$allocator@D@2@@std@@VUnitSizeType@BWAPI@@U?$less@V?$basic_string@DU?$char_traits@D@std@@V?$allocator@D@2@@std@@@2@V?$allocator@U?$pair@$$CBV?$basic_string@DU?$char_traits@D@std@@V?$allocator@D@2@@std@@VUnitSizeType@BWAPI@@@std@@@2@$0A@@std@@@std@@QAE@XZ 00432730 f i BWAPI:UnitSizeType.obj
 0001:00031730       ??1?$_Tree@V?$_Tmap_traits@V?$basic_string@DU?$char_traits@D@std@@V?$allocator@D@2@@std@@VUnitCommandType@BWAPI@@U?$less@V?$basic_string@DU?$char_traits@D@std@@V?$allocator@D@2@@std@@@2@V?$allocator@U?$pair@$$CBV?$basic_string@DU?$char_traits@D@std@@V?$allocator@D@2@@std@@VUnitCommandType@BWAPI@@@std@@@2@$0A@@std@@@std@@QAE@XZ 00432730 f i BWAPI:UnitCommandType.obj
 0001:00031730       ??1?$_Tree@V?$_Tmap_traits@V?$basic_string@DU?$char_traits@D@std@@V?$allocator@D@2@@std@@VTechType@BWAPI@@U?$less@V?$basic_string@DU?$char_traits@D@std@@V?$allocator@D@2@@std@@@2@V?$allocator@U?$pair@$$CBV?$basic_string@DU?$char_traits@D@std@@V?$allocator@D@2@@std@@VTechType@BWAPI@@@std@@@2@$0A@@std@@@std@@QAE@XZ 00432730 f i BWAPI:TechType.obj
 0001:00031730       ??1?$_Tree@V?$_Tmap_traits@V?$basic_string@DU?$char_traits@D@std@@V?$allocator@D@2@@std@@VUnitType@BWAPI@@U?$less@V?$basic_string@DU?$char_traits@D@std@@V?$allocator@D@2@@std@@@2@V?$allocator@U?$pair@$$CBV?$basic_string@DU?$char_traits@D@std@@V?$allocator@D@2@@std@@VUnitType@BWAPI@@@std@@@2@$0A@@std@@@std@@QAE@XZ 00432730 f i BWAPI:UnitType.obj
 0001:000317a0       ??0Order@BWAPI@@QAE@XZ     004327a0 f   BWAPI:Order.obj
 0001:000317b0       ?_Dec@const_iterator@?$_Tree@V?$_Tset_traits@VExplosionType@BWAPI@@U?$less@VExplosionType@BWAPI@@@std@@V?$allocator@VExplosionType@BWAPI@@@4@$0A@@std@@@std@@QAEXXZ 004327b0 f i BWAPI:ExplosionType.obj
 0001:000317b0       ?_Dec@const_iterator@?$_Tree@V?$_Tset_traits@VRace@BWAPI@@U?$less@VRace@BWAPI@@@std@@V?$allocator@VRace@BWAPI@@@4@$0A@@std@@@std@@QAEXXZ 004327b0 f i BWAPI:Race.obj
 0001:000317b0       ?_Dec@const_iterator@?$_Tree@V?$_Tset_traits@VError@BWAPI@@U?$less@VError@BWAPI@@@std@@V?$allocator@VError@BWAPI@@@4@$0A@@std@@@std@@QAEXXZ 004327b0 f i BWAPI:Error.obj
 0001:000317b0       ?_Dec@const_iterator@?$_Tree@V?$_Tset_traits@VTechType@BWAPI@@U?$less@VTechType@BWAPI@@@std@@V?$allocator@VTechType@BWAPI@@@4@$0A@@std@@@std@@QAEXXZ 004327b0 f i BWAPI:UnitType.obj
 0001:000317b0       ?_Dec@const_iterator@?$_Tree@V?$_Tset_traits@VUpgradeType@BWAPI@@U?$less@VUpgradeType@BWAPI@@@std@@V?$allocator@VUpgradeType@BWAPI@@@4@$0A@@std@@@std@@QAEXXZ 004327b0 f i BWAPI:UnitType.obj
 0001:000317b0       ?_Dec@const_iterator@?$_Tree@V?$_Tset_traits@VUnitSizeType@BWAPI@@U?$less@VUnitSizeType@BWAPI@@@std@@V?$allocator@VUnitSizeType@BWAPI@@@4@$0A@@std@@@std@@QAEXXZ 004327b0 f i BWAPI:UnitSizeType.obj
 0001:000317b0       ?_Dec@const_iterator@?$_Tree@V?$_Tset_traits@VDamageType@BWAPI@@U?$less@VDamageType@BWAPI@@@std@@V?$allocator@VDamageType@BWAPI@@@4@$0A@@std@@@std@@QAEXXZ 004327b0 f i BWAPI:DamageType.obj
 0001:000317b0       ?_Dec@const_iterator@?$_Tree@V?$_Tset_traits@VWeaponType@BWAPI@@U?$less@VWeaponType@BWAPI@@@std@@V?$allocator@VWeaponType@BWAPI@@@4@$0A@@std@@@std@@QAEXXZ 004327b0 f i BWAPI:WeaponType.obj
 0001:000317b0       ?_Dec@const_iterator@?$_Tree@V?$_Tset_traits@VBulletType@BWAPI@@U?$less@VBulletType@BWAPI@@@std@@V?$allocator@VBulletType@BWAPI@@@4@$0A@@std@@@std@@QAEXXZ 004327b0 f i BWAPI:BulletType.obj
 0001:000317b0       ?_Dec@const_iterator@?$_Tree@V?$_Tset_traits@VPlayerType@BWAPI@@U?$less@VPlayerType@BWAPI@@@std@@V?$allocator@VPlayerType@BWAPI@@@4@$0A@@std@@@std@@QAEXXZ 004327b0 f i BWAPI:PlayerType.obj
 0001:000317b0       ?_Dec@const_iterator@?$_Tree@V?$_Tset_traits@VGameType@BWAPI@@U?$less@VGameType@BWAPI@@@std@@V?$allocator@VGameType@BWAPI@@@4@$0A@@std@@@std@@QAEXXZ 004327b0 f i BWAPI:GameType.obj
 0001:000317b0       ?_Dec@const_iterator@?$_Tree@V?$_Tset_traits@VUnitType@BWAPI@@U?$less@VUnitType@BWAPI@@@std@@V?$allocator@VUnitType@BWAPI@@@4@$0A@@std@@@std@@QAEXXZ 004327b0 f i BWAPI:UnitType.obj
 0001:000317b0       ?_Dec@const_iterator@?$_Tree@V?$_Tset_traits@VOrder@BWAPI@@U?$less@VOrder@BWAPI@@@std@@V?$allocator@VOrder@BWAPI@@@4@$0A@@std@@@std@@QAEXXZ 004327b0 f i BWAPI:Order.obj
 0001:000317b0       ?_Dec@const_iterator@?$_Tree@V?$_Tset_traits@VUnitCommandType@BWAPI@@U?$less@VUnitCommandType@BWAPI@@@std@@V?$allocator@VUnitCommandType@BWAPI@@@4@$0A@@std@@@std@@QAEXXZ 004327b0 f i BWAPI:UnitCommandType.obj
 0001:00031850       ?init@Orders@BWAPI@@YAXXZ  00432850 f   BWAPI:Order.obj
 0001:00033cc9       @__security_check_cookie@4 00434cc9 f   MSVCRT:secchk.obj
 0001:00033cd8       ?what@exception@std@@UBEPBDXZ 00434cd8 f   MSVCRT:MSVCR90.dll
 0001:00033cde       ??0exception@std@@QAE@ABV01@@Z 00434cde f   MSVCRT:MSVCR90.dll
 0001:00033ce4       ??__C@YGXPAX0IHP6EX00@ZP6EX0@Z@Z 00434ce4 f   MSVCRT:ehvccctr.obj
 0001:00033d4d       ?__ArrayUnwind@@YGXPAXIHP6EX0@Z@Z 00434d4d f   MSVCRT:ehvecdtr.obj
 0001:00033dab       ??_M@YGXPAXIHP6EX0@Z@Z     00434dab f   MSVCRT:ehvecdtr.obj
 0001:00033e0e       ??_L@YGXPAXIHP6EX0@Z1@Z    00434e0e f   MSVCRT:ehvecctr.obj
 0001:00033e74       __purecall                 00434e74 f   MSVCRT:MSVCR90.dll
 0001:00033e7a       ??3@YAXPAX@Z               00434e7a f   MSVCRT:MSVCR90.dll
 0001:00033e80       ??_Etype_info@@UAEPAXI@Z   00434e80 f i MSVCRT:ti_inst.obj
 0001:00033ecc       ??2@YAPAXI@Z               00434ecc f   MSVCRT:MSVCR90.dll
 0001:00033ed2       __onexit                   00434ed2 f   MSVCRT:atonexit.obj
 0001:00033f77       _atexit                    00434f77 f   MSVCRT:atonexit.obj
 0001:00034230       _mainCRTStartup            00435230 f   MSVCRT:crtexe.obj
 0001:0003423a       ___CxxFrameHandler3        0043523a f   MSVCRT:MSVCR90.dll
 0001:00034240       __CxxThrowException@8      00435240 f   MSVCRT:MSVCR90.dll
 0001:00034246       ___report_gsfailure        00435246 f   MSVCRT:gs_report.obj
 0001:0003434c       __SEH_prolog4              0043534c f   MSVCRT:sehprolg4.obj
 0001:00034391       __SEH_epilog4              00435391 f   MSVCRT:sehprolg4.obj
 0001:000343a5       __except_handler4          004353a5 f   MSVCRT:chandler4gs.obj
 0001:000343ca       ?terminate@@YAXXZ          004353ca f   MSVCRT:MSVCR90.dll
 0001:000343d0       __unlock                   004353d0 f   MSVCRT:MSVCR90.dll
 0001:000343d6       ___dllonexit               004353d6 f   MSVCRT:MSVCR90.dll
 0001:000343dc       __lock                     004353dc f   MSVCRT:MSVCR90.dll
 0001:000343e2       ?__CxxUnhandledExceptionFilter@@YGJPAU_EXCEPTION_POINTERS@@@Z 004353e2 f   MSVCRT:unhandld.obj
 0001:00034424       ___CxxSetUnhandledExceptionFilter 00435424 f   MSVCRT:unhandld.obj
 0001:00034432       __amsg_exit                00435432 f   MSVCRT:MSVCR90.dll
 0001:00034438       __RTC_Initialize           00435438 f   MSVCRT:_initsect_.obj
 0001:0003445e       __RTC_Terminate            0043545e f   MSVCRT:_initsect_.obj
 0001:00034484       __XcptFilter               00435484 f   MSVCRT:MSVCR90.dll
 0001:00034490       __ValidateImageBase        00435490 f   MSVCRT:pesect.obj
 0001:000344d0       __FindPESection            004354d0 f   MSVCRT:pesect.obj
 0001:00034520       __IsNonwritableInCurrentImage 00435520 f   MSVCRT:pesect.obj
 0001:000345de       __initterm                 004355de f   MSVCRT:MSVCR90.dll
 0001:000345e4       __initterm_e               004355e4 f   MSVCRT:MSVCR90.dll
 0001:000345ea       __setdefaultprecision      004355ea f   MSVCRT:fp8.obj
 0001:00034615       __matherr                  00435615 f   MSVCRT:merr.obj
 0001:00034615       __setargv                  00435615 f   MSVCRT:dllargv.obj
 0001:00034618       ___security_init_cookie    00435618 f   MSVCRT:gs_support.obj
 0001:000346ae       __crt_debugger_hook        004356ae f   MSVCRT:MSVCR90.dll
 0001:000346b4       __except_handler4_common   004356b4 f   MSVCRT:MSVCR90.dll
 0001:000346ba       ??1type_info@@UAE@XZ       004356ba f   MSVCRT:MSVCR90.dll
 0001:000346ba       ?_type_info_dtor_internal_method@type_info@@QAEXXZ 004356ba f   MSVCRT:MSVCR90.dll
 0001:000346c0       __invoke_watson            004356c0 f   MSVCRT:MSVCR90.dll
 0001:000346c6       __controlfp_s              004356c6 f   MSVCRT:MSVCR90.dll
 0001:000346d0       __ftol2_sse                004356d0 f   MSVCRT:ftol2.obj
 0001:000346d9       __ftol2_pentium4           004356d9 f   MSVCRT:ftol2.obj
 0001:000346ec       __ftol2_sse_excpt          004356ec f   MSVCRT:ftol2.obj
 0001:00034706       __ftol2                    00435706 f   MSVCRT:ftol2.obj
 0001:0003477c       __CIsqrt                   0043577c f   MSVCRT:MSVCR90.dll
 0001:00034790       __aullrem                  00435790 f   MSVCRT:ullrem.obj
 0001:00034810       __allmul                   00435810 f   MSVCRT:llmul.obj
 0001:00034850       __aulldiv                  00435850 f   MSVCRT:ulldiv.obj
 0001:000348b8       ___RTDynamicCast           004358b8 f   MSVCRT:MSVCR90.dll
 0001:000348c0       __alloca_probe             004358c0     MSVCRT:chkstk.obj
 0001:000348c0       __chkstk                   004358c0 f   MSVCRT:chkstk.obj
 0001:0003493b       __get_sse2_info            0043593b f   MSVCRT:cpu_disp.obj
 0001:0003499d       ___sse2_available_init     0043599d f   MSVCRT:cpu_disp.obj
 0002:00000000       __imp__QueryPerformanceCounter@4 00443000     kernel32:KERNEL32.dll
 0002:00000004       __imp__QueryPerformanceFrequency@4 00443004     kernel32:KERNEL32.dll
 0002:00000008       __imp__GetCurrentProcessId@0 00443008     kernel32:KERNEL32.dll
 0002:0000000c       __imp__GetCurrentThreadId@0 0044300c     kernel32:KERNEL32.dll
 0002:00000010       __imp__GetTickCount@0      00443010     kernel32:KERNEL32.dll
 0002:00000014       __imp__IsDebuggerPresent@0 00443014     kernel32:KERNEL32.dll
 0002:00000018       __imp__SetUnhandledExceptionFilter@4 00443018     kernel32:KERNEL32.dll
 0002:0000001c       __imp__UnhandledExceptionFilter@4 0044301c     kernel32:KERNEL32.dll
 0002:00000020       __imp__GetCurrentProcess@0 00443020     kernel32:KERNEL32.dll
 0002:00000024       __imp__TerminateProcess@8  00443024     kernel32:KERNEL32.dll
 0002:00000028       __imp__InterlockedCompareExchange@12 00443028     kernel32:KERNEL32.dll
 0002:0000002c       __imp__Sleep@4             0044302c     kernel32:KERNEL32.dll
 0002:00000030       __imp__InterlockedExchange@8 00443030     kernel32:KERNEL32.dll
 0002:00000034       __imp__GetSystemTimeAsFileTime@4 00443034     kernel32:KERNEL32.dll
 0002:00000038       \177KERNEL32_NULL_THUNK_DATA 00443038     kernel32:KERNEL32.dll
 0002:0000003c       __imp_??$getline@DU?$char_traits@D@std@@V?$allocator@D@2@@std@@YAAAV?$basic_istream@DU?$char_traits@D@std@@@0@AAV10@AAV?$basic_string@DU?$char_traits@D@std@@V?$allocator@D@2@@0@@Z 0044303c     msvcprt:MSVCP90.dll
 0002:00000040       __imp_?close@?$basic_ifstream@DU?$char_traits@D@std@@@std@@QAEXXZ 00443040     msvcprt:MSVCP90.dll
 0002:00000044       __imp_??0?$basic_ifstream@DU?$char_traits@D@std@@@std@@QAE@PBDHH@Z 00443044     msvcprt:MSVCP90.dll
 0002:00000048       __imp_??A?$basic_string@DU?$char_traits@D@std@@V?$allocator@D@2@@std@@QAEAADI@Z 00443048     msvcprt:MSVCP90.dll
 0002:0000004c       __imp_??_D?$basic_ifstream@DU?$char_traits@D@std@@@std@@QAEXXZ 0044304c     msvcprt:MSVCP90.dll
 0002:00000050       __imp_??$?MDU?$char_traits@D@std@@V?$allocator@D@1@@std@@YA_NABV?$basic_string@DU?$char_traits@D@std@@V?$allocator@D@2@@0@0@Z 00443050     msvcprt:MSVCP90.dll
 0002:00000054       __imp_??4?$basic_string@DU?$char_traits@D@std@@V?$allocator@D@2@@std@@QAEAAV01@PBD@Z 00443054     msvcprt:MSVCP90.dll
 0002:00000058       __imp_??1?$basic_string@DU?$char_traits@D@std@@V?$allocator@D@2@@std@@QAE@XZ 00443058     msvcprt:MSVCP90.dll
 0002:0000005c       __imp_??0?$basic_string@DU?$char_traits@D@std@@V?$allocator@D@2@@std@@QAE@ABV01@@Z 0044305c     msvcprt:MSVCP90.dll
 0002:00000060       __imp_??0?$basic_string@DU?$char_traits@D@std@@V?$allocator@D@2@@std@@QAE@PBD@Z 00443060     msvcprt:MSVCP90.dll
 0002:00000064       __imp_?swap@?$basic_string@DU?$char_traits@D@std@@V?$allocator@D@2@@std@@QAEXAAV12@@Z 00443064     msvcprt:MSVCP90.dll
 0002:00000068       __imp_??4?$basic_string@DU?$char_traits@D@std@@V?$allocator@D@2@@std@@QAEAAV01@ABV01@@Z 00443068     msvcprt:MSVCP90.dll
 0002:0000006c       __imp_??0?$basic_string@DU?$char_traits@D@std@@V?$allocator@D@2@@std@@QAE@XZ 0044306c     msvcprt:MSVCP90.dll
 0002:00000070       \177MSVCP90_NULL_THUNK_DATA 00443070     msvcprt:MSVCP90.dll
 0002:00000074       __imp__exit                00443074     MSVCRT:MSVCR90.dll
 0002:00000078       __imp_??3@YAXPAX@Z         00443078     MSVCRT:MSVCR90.dll
 0002:0000007c       __imp__memmove_s           0044307c     MSVCRT:MSVCR90.dll
 0002:00000080       __imp___time64             00443080     MSVCRT:MSVCR90.dll
 0002:00000084       __imp__atoi                00443084     MSVCRT:MSVCR90.dll
 0002:00000088       __imp____CxxFrameHandler3  00443088     MSVCRT:MSVCR90.dll
 0002:0000008c       __imp___CxxThrowException@8 0044308c     MSVCRT:MSVCR90.dll
 0002:00000090       __imp_?terminate@@YAXXZ    00443090     MSVCRT:MSVCR90.dll
 0002:00000094       __imp___unlock             00443094     MSVCRT:MSVCR90.dll
 0002:00000098       __imp____dllonexit         00443098     MSVCRT:MSVCR90.dll
 0002:0000009c       __imp___encode_pointer     0044309c     MSVCRT:MSVCR90.dll
 0002:000000a0       __imp___lock               004430a0     MSVCRT:MSVCR90.dll
 0002:000000a4       __imp___onexit             004430a4     MSVCRT:MSVCR90.dll
 0002:000000a8       __imp___decode_pointer     004430a8     MSVCRT:MSVCR90.dll
 0002:000000ac       __imp___amsg_exit          004430ac     MSVCRT:MSVCR90.dll
 0002:000000b0       __imp____getmainargs       004430b0     MSVCRT:MSVCR90.dll
 0002:000000b4       __imp___cexit              004430b4     MSVCRT:MSVCR90.dll
 0002:000000b8       __imp___exit               004430b8     MSVCRT:MSVCR90.dll
 0002:000000bc       __imp___XcptFilter         004430bc     MSVCRT:MSVCR90.dll
 0002:000000c0       __imp____initenv           004430c0     MSVCRT:MSVCR90.dll
 0002:000000c4       __imp___initterm           004430c4     MSVCRT:MSVCR90.dll
 0002:000000c8       __imp___initterm_e         004430c8     MSVCRT:MSVCR90.dll
 0002:000000cc       __imp___configthreadlocale 004430cc     MSVCRT:MSVCR90.dll
 0002:000000d0       __imp____setusermatherr    004430d0     MSVCRT:MSVCR90.dll
 0002:000000d4       __imp___adjust_fdiv        004430d4     MSVCRT:MSVCR90.dll
 0002:000000d8       __imp____p__commode        004430d8     MSVCRT:MSVCR90.dll
 0002:000000dc       __imp____p__fmode          004430dc     MSVCRT:MSVCR90.dll
 0002:000000e0       __imp____set_app_type      004430e0     MSVCRT:MSVCR90.dll
 0002:000000e4       __imp___crt_debugger_hook  004430e4     MSVCRT:MSVCR90.dll
 0002:000000e8       __imp___except_handler4_common 004430e8     MSVCRT:MSVCR90.dll
 0002:000000ec       __imp_?_type_info_dtor_internal_method@type_info@@QAEXXZ 004430ec     MSVCRT:MSVCR90.dll
 0002:000000f0       __imp___invoke_watson      004430f0     MSVCRT:MSVCR90.dll
 0002:000000f4       __imp___controlfp_s        004430f4     MSVCRT:MSVCR90.dll
 0002:000000f8       __imp___purecall           004430f8     MSVCRT:MSVCR90.dll
 0002:000000fc       __imp__rand                004430fc     MSVCRT:MSVCR90.dll
 0002:00000100       __imp__fprintf             00443100     MSVCRT:MSVCR90.dll
 0002:00000104       __imp__printf              00443104     MSVCRT:MSVCR90.dll
 0002:00000108       __imp____iob_func          00443108     MSVCRT:MSVCR90.dll
 0002:0000010c       __imp_??0exception@std@@QAE@ABV01@@Z 0044310c     MSVCRT:MSVCR90.dll
 0002:00000110       __imp_??0exception@std@@QAE@ABQBD@Z 00443110     MSVCRT:MSVCR90.dll
 0002:00000114       __imp_??0exception@std@@QAE@XZ 00443114     MSVCRT:MSVCR90.dll
 0002:00000118       __imp_??1exception@std@@UAE@XZ 00443118     MSVCRT:MSVCR90.dll
 0002:0000011c       __imp_?what@exception@std@@UBEPBDXZ 0044311c     MSVCRT:MSVCR90.dll
 0002:00000120       __imp_??2@YAPAXI@Z         00443120     MSVCRT:MSVCR90.dll
 0002:00000124       __imp___invalid_parameter_noinfo 00443124     MSVCRT:MSVCR90.dll
 0002:00000128       __imp___CIsqrt             00443128     MSVCRT:MSVCR90.dll
 0002:0000012c       __imp____RTDynamicCast     0044312c     MSVCRT:MSVCR90.dll
 0002:00000130       \177MSVCR90_NULL_THUNK_DATA 00443130     MSVCRT:MSVCR90.dll
 0002:00000134       ___xc_a                    00443134     MSVCRT:cinitexe.obj
 0002:00000dcc       ___xc_z                    00443dcc     MSVCRT:cinitexe.obj
 0002:00000dd0       ___xi_a                    00443dd0     MSVCRT:cinitexe.obj
 0002:00000de0       ___xi_z                    00443de0     MSVCRT:cinitexe.obj
 0002:00000e0c       ??_C@_0P@GHFPNOJB@bad?5allocation?$AA@ 00443e0c     BWAPI:UnitType.obj
 0002:00000e1c       ??_7out_of_range@std@@6B@  00443e1c     BWAPI:UnitType.obj
 0002:00000e24       ??_C@_0BM@PAPJHAGI@invalid?5map?1set?$DMT?$DO?5iterator?$AA@ 00443e24     BWAPI:UnitType.obj
 0002:00000e40       ??_C@_0BE@JONHPENG@map?1set?$DMT?$DO?5too?5long?$AA@ 00443e40     BWAPI:UnitType.obj
 0002:00000e54       ??_C@_07NBCGADJA@Unknown?$AA@ 00443e54     BWAPI:UnitType.obj
 0002:00000e5c       ??_C@_09PEBKLDLO@Factories?$AA@ 00443e5c     BWAPI:UnitType.obj
 0002:00000e68       ??_C@_09CKIIHEFP@Buildings?$AA@ 00443e68     BWAPI:UnitType.obj
 0002:00000e74       ??_C@_03CKHOPOB@Men?$AA@   00443e74     BWAPI:UnitType.obj
 0002:00000e78       ??_C@_09PECGAHJH@All?5Units?$AA@ 00443e78     BWAPI:UnitType.obj
 0002:00000e84       ??_C@_04OHJIHAFH@None?$AA@ 00443e84     BWAPI:UnitType.obj
 0002:00000e8c       ??_C@_0BH@PKJAJJCD@Special?5Start?5Location?$AA@ 00443e8c     BWAPI:UnitType.obj
 0002:00000ea4       ??_C@_0BE@JIELLDNE@Special?5Floor?5Hatch?$AA@ 00443ea4     BWAPI:UnitType.obj
 0002:00000eb8       ??_C@_0BH@FMDCKNNA@Special?5Right?5Pit?5Door?$AA@ 00443eb8     BWAPI:UnitType.obj
 0002:00000ed0       ??_C@_0BB@GMDFDJGP@Special?5Pit?5Door?$AA@ 00443ed0     BWAPI:UnitType.obj
 0002:00000ee4       ??_C@_0BP@OLHPLAEL@Special?5Right?5Upper?5Level?5Door?$AA@ 00443ee4     BWAPI:UnitType.obj
 0002:00000f04       ??_C@_0BJ@EDAKKOFB@Special?5Upper?5Level?5Door?$AA@ 00443f04     BWAPI:UnitType.obj
 0002:00000f20       ??_C@_0BO@EDGLENAA@Special?5Right?5Wall?5Flame?5Trap?$AA@ 00443f20     BWAPI:UnitType.obj
 0002:00000f40       ??_C@_0BI@FBKKACKN@Special?5Wall?5Flame?5Trap?$AA@ 00443f40     BWAPI:UnitType.obj
 0002:00000f58       ??_C@_0CA@MKEMHOJE@Special?5Right?5Wall?5Missile?5Trap?$AA@ 00443f58     BWAPI:UnitType.obj
 0002:00000f78       ??_C@_0BK@DHIGPCPA@Special?5Wall?5Missile?5Trap?$AA@ 00443f78     BWAPI:UnitType.obj
 0002:00000f94       ??_C@_0BH@KIBFGCE@Special?5Floor?5Gun?5Trap?$AA@ 00443f94     BWAPI:UnitType.obj
 0002:00000fac       ??_C@_0BL@KFCBKJCG@Special?5Floor?5Missile?5Trap?$AA@ 00443fac     BWAPI:UnitType.obj
 0002:00000fc8       ??_C@_0BF@MPAMNNKD@Special?5Map?5Revealer?$AA@ 00443fc8     BWAPI:UnitType.obj
 0002:00000fe0       ??_C@_0BP@KPPJNAJE@Powerup?5Terran?5Gas?5Tank?5Type?52?$AA@ 00443fe0     BWAPI:UnitType.obj
 0002:00001000       ??_C@_0BP@IENEIDFH@Powerup?5Terran?5Gas?5Tank?5Type?51?$AA@ 00444000     BWAPI:UnitType.obj
 0002:00001020       ??_C@_0BM@GMGAJHIG@Powerup?5Zerg?5Gas?5Sac?5Type?52?$AA@ 00444020     BWAPI:UnitType.obj
 0002:0000103c       ??_C@_0BM@EHENMEEF@Powerup?5Zerg?5Gas?5Sac?5Type?51?$AA@ 0044403c     BWAPI:UnitType.obj
 0002:00001058       ??_C@_0BP@GLOJNDID@Powerup?5Protoss?5Gas?5Orb?5Type?52?$AA@ 00444058     BWAPI:UnitType.obj
 0002:00001078       ??_C@_0BP@EAMEIAEA@Powerup?5Protoss?5Gas?5Orb?5Type?51?$AA@ 00444078     BWAPI:UnitType.obj
 0002:00001098       ??_C@_0BP@KIAIOPPF@Powerup?5Mineral?5Cluster?5Type?52?$AA@ 00444098     BWAPI:UnitType.obj
 0002:000010b8       ??_C@_0BP@IDCFLMDG@Powerup?5Mineral?5Cluster?5Type?51?$AA@ 004440b8     BWAPI:UnitType.obj
 0002:000010d8       ??_C@_0BK@KDFFIPLG@Powerup?5Khaydarin?5Crystal?$AA@ 004440d8     BWAPI:UnitType.obj
 0002:000010f4       ??_C@_0BC@BFKLDBM@Powerup?5Data?5Disk?$AA@ 004440f4     BWAPI:UnitType.obj
 0002:00001108       ??_C@_0BE@HNEDFDFC@Powerup?5Psi?5Emitter?$AA@ 00444108     BWAPI:UnitType.obj
 0002:0000111c       ??_C@_0BI@ONHIJNBP@Powerup?5Young?5Chrysalis?$AA@ 0044411c     BWAPI:UnitType.obj
 0002:00001134       ??_C@_0N@FHNLONKO@Powerup?5Flag?$AA@ 00444134     BWAPI:UnitType.obj
 0002:00001144       ??_C@_0BH@MLHBNMFM@Powerup?5Khalis?5Crystal?$AA@ 00444144     BWAPI:UnitType.obj
 0002:0000115c       ??_C@_0BF@JOCLEANG@Powerup?5Uraj?5Crystal?$AA@ 0044415c     BWAPI:UnitType.obj
 0002:00001174       ??_C@_0BB@KKJLFDFC@Spell?5Dark?5Swarm?$AA@ 00444174     BWAPI:UnitType.obj
 0002:00001188       ??_C@_0BM@EKEMCHGE@Special?5Protoss?5Flag?5Beacon?$AA@ 00444188     BWAPI:UnitType.obj
 0002:000011a4       ??_C@_0BL@IOIAIHIK@Special?5Terran?5Flag?5Beacon?$AA@ 004441a4     BWAPI:UnitType.obj
 0002:000011c0       ??_C@_0BJ@MOIBGOHL@Special?5Zerg?5Flag?5Beacon?$AA@ 004441c0     BWAPI:UnitType.obj
 0002:000011dc       ??_C@_0BH@ONNDDIJC@Special?5Protoss?5Beacon?$AA@ 004441dc     BWAPI:UnitType.obj
 0002:000011f4       ??_C@_0BG@LKIMFIIL@Special?5Terran?5Beacon?$AA@ 004441f4     BWAPI:UnitType.obj
 0002:0000120c       ??_C@_0BE@KBAKALDH@Special?5Zerg?5Beacon?$AA@ 0044420c     BWAPI:UnitType.obj
 0002:00001220       ??_C@_0BI@IBNGKEFM@Special?5Overmind?5Cocoon?$AA@ 00444220     BWAPI:UnitType.obj
 0002:00001238       ??_C@_0BI@NGIEFHLK@Special?5Power?5Generator?$AA@ 00444238     BWAPI:UnitType.obj
 0002:00001250       ??_C@_0BG@CMDNHMKO@Special?5Psi?5Disrupter?$AA@ 00444250     BWAPI:UnitType.obj
 0002:00001268       ??_C@_0BC@PPNDKNEL@Special?5Warp?5Gate?$AA@ 00444268     BWAPI:UnitType.obj
 0002:0000127c       ??_C@_0BI@EJFFMIML@Resource?5Vespene?5Geyser?$AA@ 0044427c     BWAPI:UnitType.obj
 0002:00001294       ??_C@_0BN@GEOMKDBI@Special?5Independant?5Starport?$AA@ 00444294     BWAPI:UnitType.obj
 0002:000012b4       ??_C@_0BO@KOJBAOJP@Resource?5Mineral?5Field?5Type?53?$AA@ 004442b4     BWAPI:UnitType.obj
 0002:000012d4       ??_C@_0BO@LHIKDPNO@Resource?5Mineral?5Field?5Type?52?$AA@ 004442d4     BWAPI:UnitType.obj
 0002:000012f4       ??_C@_0BH@GDCEOBPD@Resource?5Mineral?5Field?$AA@ 004442f4     BWAPI:UnitType.obj
 0002:0000130c       ??_C@_0BH@POBEGLGH@Special?5XelNaga?5Temple?$AA@ 0044430c     BWAPI:UnitType.obj
 0002:00001324       ??_C@_0BH@IPDDODIE@Special?5Protoss?5Temple?$AA@ 00444324     BWAPI:UnitType.obj
 0002:0000133c       ??_C@_0BP@HKHCFOCF@Special?5Khaydarin?5Crystal?5Form?$AA@ 0044433c     BWAPI:UnitType.obj
 0002:0000135c       ??_C@_0BH@KPECIODD@Protoss?5Shield?5Battery?$AA@ 0044435c     BWAPI:UnitType.obj
 0002:00001374       ??_C@_0BN@IIFAAHBJ@Protoss?5Robotics?5Support?5Bay?$AA@ 00444374     BWAPI:UnitType.obj
 0002:00001394       ??_C@_0BJ@BNIECANI@Protoss?5Arbiter?5Tribunal?$AA@ 00444394     BWAPI:UnitType.obj
 0002:000013b0       ??_C@_0BF@LLHAPAPP@Protoss?5Fleet?5Beacon?$AA@ 004443b0     BWAPI:UnitType.obj
 0002:000013c8       ??_C@_0BL@OLJDMKIC@Special?5Stasis?5Cell?5Prison?$AA@ 004443c8     BWAPI:UnitType.obj
 0002:000013e4       ??_C@_0BB@HIGKNIML@Protoss?5Stargate?$AA@ 004443e4     BWAPI:UnitType.obj
 0002:000013f8       ??_C@_0O@JFDNHKNN@Protoss?5Forge?$AA@ 004443f8     BWAPI:UnitType.obj
 0002:00001408       ??_C@_0BJ@INJJAFBM@Protoss?5Templar?5Archives?$AA@ 00444408     BWAPI:UnitType.obj
 0002:00001424       ??_C@_0BJ@OIPNHENC@Protoss?5Cybernetics?5Core?$AA@ 00444424     BWAPI:UnitType.obj
 0002:00001440       ??_C@_0BI@BEAOMID@Protoss?5Citadel?5of?5Adun?$AA@ 00444440     BWAPI:UnitType.obj
 0002:00001458       ??_C@_0BG@LLBCPHHL@Protoss?5Photon?5Cannon?$AA@ 00444458     BWAPI:UnitType.obj
 0002:00001470       ??_C@_0BA@PJLCIBEP@Protoss?5Gateway?$AA@ 00444470     BWAPI:UnitType.obj
 0002:00001480       ??_C@_0BE@IPKDEHNB@Protoss?5Observatory?$AA@ 00444480     BWAPI:UnitType.obj
 0002:00001494       ??_C@_0BE@LPFPIBCK@Protoss?5Assimilator?$AA@ 00444494     BWAPI:UnitType.obj
 0002:000014a8       ??_C@_0O@PCDDFBKG@Protoss?5Pylon?$AA@ 004444a8     BWAPI:UnitType.obj
 0002:000014b8       ??_C@_0BK@FJDLDPEJ@Protoss?5Robotics?5Facility?$AA@ 004444b8     BWAPI:UnitType.obj
 0002:000014d4       ??_C@_0O@FPFJMCLM@Protoss?5Nexus?$AA@ 004444d4     BWAPI:UnitType.obj
 0002:000014e4       ??_C@_0BK@DGLPHOEB@Special?5Cerebrate?5Daggoth?$AA@ 004444e4     BWAPI:UnitType.obj
 0002:00001500       ??_C@_0BC@JCMNPCCN@Special?5Cerebrate?$AA@ 00444500     BWAPI:UnitType.obj
 0002:00001514       ??_C@_0BJ@NAFBDLC@Special?5Mature?5Chrysalis?$AA@ 00444514     BWAPI:UnitType.obj
 0002:00001530       ??_C@_0P@ONKMFGG@Zerg?5Extractor?$AA@ 00444530     BWAPI:UnitType.obj
 0002:00001540       ??_C@_0BB@MONIGEIH@Special?5Overmind?$AA@ 00444540     BWAPI:UnitType.obj
 0002:00001554       ??_C@_0BM@OELKEJJH@Special?5Overmind?5With?5Shell?$AA@ 00444554     BWAPI:UnitType.obj
 0002:00001570       ??_C@_0BD@OCCALFKB@Zerg?5Sunken?5Colony?$AA@ 00444570     BWAPI:UnitType.obj
 0002:00001584       ??_C@_0BC@JEPDAGNG@Zerg?5Spore?5Colony?$AA@ 00444584     BWAPI:UnitType.obj
 0002:00001598       ??_C@_0BC@NEFPLLI@Zerg?5Creep?5Colony?$AA@ 00444598     BWAPI:UnitType.obj
 0002:000015ac       ??_C@_0BD@BOLLPFLM@Zerg?5Spawning?5Pool?$AA@ 004445ac     BWAPI:UnitType.obj
 0002:000015c0       ??_C@_0L@IIHIHOCJ@Zerg?5Spire?$AA@ 004445c0     BWAPI:UnitType.obj
 0002:000015cc       ??_C@_0BG@BMMFLHIC@Zerg?5Ultralisk?5Cavern?$AA@ 004445cc     BWAPI:UnitType.obj
 0002:000015e4       ??_C@_0BH@DEDIGLCN@Zerg?5Evolution?5Chamber?$AA@ 004445e4     BWAPI:UnitType.obj
 0002:000015fc       ??_C@_0BB@BJIEGNME@Zerg?5Queens?5Nest?$AA@ 004445fc     BWAPI:UnitType.obj
 0002:00001610       ??_C@_0BD@JEJMMPAM@Zerg?5Greater?5Spire?$AA@ 00444610     BWAPI:UnitType.obj
 0002:00001624       ??_C@_0BD@BFCJFIDG@Zerg?5Defiler?5Mound?$AA@ 00444624     BWAPI:UnitType.obj
 0002:00001638       ??_C@_0BD@KPEHFJIK@Zerg?5Hydralisk?5Den?$AA@ 00444638     BWAPI:UnitType.obj
 0002:0000164c       ??_C@_0BB@FMNKNOHG@Zerg?5Nydus?5Canal?$AA@ 0044464c     BWAPI:UnitType.obj
 0002:00001660       ??_C@_09GFCEIEFC@Zerg?5Hive?$AA@ 00444660     BWAPI:UnitType.obj
 0002:0000166c       ??_C@_09EHOJGKKG@Zerg?5Lair?$AA@ 0044466c     BWAPI:UnitType.obj
 0002:00001678       ??_C@_0O@NFBJKMLJ@Zerg?5Hatchery?$AA@ 00444678     BWAPI:UnitType.obj
 0002:00001688       ??_C@_0BN@MODLCFJI@Zerg?5Infested?5Command?5Center?$AA@ 00444688     BWAPI:UnitType.obj
 0002:000016a8       ??_C@_0BD@DMNMIFOO@Special?5Ion?5Cannon?$AA@ 004446a8     BWAPI:UnitType.obj
 0002:000016bc       ??_C@_0BJ@IAHKMGAN@Special?5Crashed?5Norad?5II?$AA@ 004446bc     BWAPI:UnitType.obj
 0002:000016d8       ??_C@_0O@CPLJFLDH@Terran?5Bunker?$AA@ 004446d8     BWAPI:UnitType.obj
 0002:000016e8       ??_C@_0BG@CGJPJEEN@Terran?5Missile?5Turret?$AA@ 004446e8     BWAPI:UnitType.obj
 0002:00001700       ??_C@_0O@DBALPAKL@Terran?5Armory?$AA@ 00444700     BWAPI:UnitType.obj
 0002:00001710       ??_C@_0BH@PBECEKCF@Terran?5Engineering?5Bay?$AA@ 00444710     BWAPI:UnitType.obj
 0002:00001728       ??_C@_0BE@PDINBCKI@Terran?5Machine?5Shop?$AA@ 00444728     BWAPI:UnitType.obj
 0002:0000173c       ??_C@_0BD@JFNIAMHJ@Terran?5Physics?5Lab?$AA@ 0044473c     BWAPI:UnitType.obj
 0002:00001750       ??_C@_0BC@EGCGHBAM@Terran?5Covert?5Ops?$AA@ 00444750     BWAPI:UnitType.obj
 0002:00001764       ??_C@_0BI@HCJAEIOD@Terran?5Science?5Facility?$AA@ 00444764     BWAPI:UnitType.obj
 0002:0000177c       ??_C@_0BF@DJNGDEFK@Terran?5Control?5Tower?$AA@ 0044477c     BWAPI:UnitType.obj
 0002:00001794       ??_C@_0BA@NPGLOFJL@Terran?5Starport?$AA@ 00444794     BWAPI:UnitType.obj
 0002:000017a4       ??_C@_0P@GACHJLCF@Terran?5Factory?$AA@ 004447a4     BWAPI:UnitType.obj
 0002:000017b4       ??_C@_0P@KIJCLBLF@Terran?5Academy?$AA@ 004447b4     BWAPI:UnitType.obj
 0002:000017c4       ??_C@_0BA@ENFNAFAH@Terran?5Barracks?$AA@ 004447c4     BWAPI:UnitType.obj
 0002:000017d4       ??_C@_0BA@NBHELLHB@Terran?5Refinery?$AA@ 004447d4     BWAPI:UnitType.obj
 0002:000017e4       ??_C@_0BE@NHAAJACK@Terran?5Supply?5Depot?$AA@ 004447e4     BWAPI:UnitType.obj
 0002:000017f8       ??_C@_0BE@KCHPJMMF@Terran?5Nuclear?5Silo?$AA@ 004447f8     BWAPI:UnitType.obj
 0002:0000180c       ??_C@_0BG@KHLHLOKE@Terran?5Comsat?5Station?$AA@ 0044480c     BWAPI:UnitType.obj
 0002:00001824       ??_C@_0BG@EGCFFEDP@Terran?5Command?5Center?$AA@ 00444824     BWAPI:UnitType.obj
 0002:0000183c       ??_C@_0BF@JNIMCHKN@Spell?5Disruption?5Web?$AA@ 0044483c     BWAPI:UnitType.obj
 0002:00001854       ??_C@_0M@KEEJDIHE@Zerg?5Lurker?$AA@ 00444854     BWAPI:UnitType.obj
 0002:00001860       ??_C@_0BA@DEAKLHJA@Zerg?5Lurker?5Egg?$AA@ 00444860     BWAPI:UnitType.obj
 0002:00001870       ??_C@_0BA@NHAIBLEB@Critter?5Ursadon?$AA@ 00444870     BWAPI:UnitType.obj
 0002:00001880       ??_C@_0BC@PIKCAAPM@Critter?5Ragnasaur?$AA@ 00444880     BWAPI:UnitType.obj
 0002:00001894       ??_C@_0P@OFHGINEC@Critter?5Kakaru?$AA@ 00444894     BWAPI:UnitType.obj
 0002:000018a4       ??_C@_0BA@LCPLHCFK@Critter?5Scantid?$AA@ 004448a4     BWAPI:UnitType.obj
 0002:000018b4       ??_C@_0BK@DHHMOJIJ@Special?5Mercenary?5Gunship?$AA@ 004448b4     BWAPI:UnitType.obj
 0002:000018d0       ??_C@_0BD@MJBJHNOP@Special?5Cargo?5Ship?$AA@ 004448d0     BWAPI:UnitType.obj
 0002:000018e4       ??_C@_0BC@OILDLEFO@Critter?5Bengalaas?$AA@ 004448e4     BWAPI:UnitType.obj
 0002:000018f8       ??_C@_0BB@DIGNPAMD@Critter?5Rhynadon?$AA@ 004448f8     BWAPI:UnitType.obj
 0002:0000190c       ??_C@_0P@KKJGALAH@Protoss?5Scarab?$AA@ 0044490c     BWAPI:UnitType.obj
 0002:0000191c       ??_C@_0BB@BLHBNEMD@Protoss?5Observer?$AA@ 0044491c     BWAPI:UnitType.obj
 0002:00001930       ??_C@_0BA@KBPCOFMJ@Hero?5Warbringer?$AA@ 00444930     BWAPI:UnitType.obj
 0002:00001940       ??_C@_0P@BIBBMOHE@Protoss?5Reaver?$AA@ 00444940     BWAPI:UnitType.obj
 0002:00001950       __real@3ffc7ae147ae147b    00444950     BWAPI:UnitType.obj
 0002:00001958       ??_C@_0BE@KDLNAFEG@Protoss?5Interceptor?$AA@ 00444958     BWAPI:UnitType.obj
 0002:00001970       __real@402aa8f5c28f5c29    00444970     BWAPI:UnitType.obj
 0002:00001978       ??_C@_0BA@IAIALCGI@Hero?5Gantrithor?$AA@ 00444978     BWAPI:UnitType.obj
 0002:00001988       ??_C@_0BA@CNFKHGIB@Protoss?5Carrier?$AA@ 00444988     BWAPI:UnitType.obj
 0002:00001998       __real@400aa3d70a3d70a4    00444998     BWAPI:UnitType.obj
 0002:000019a0       ??_C@_0O@JMAOJGHJ@Hero?5Danimoth?$AA@ 004449a0     BWAPI:UnitType.obj
 0002:000019b0       ??_C@_0BA@IPNMNMOF@Protoss?5Arbiter?$AA@ 004449b0     BWAPI:UnitType.obj
 0002:000019c0       ??_C@_0N@JBGLJODO@Hero?5Artanis?$AA@ 004449c0     BWAPI:UnitType.obj
 0002:000019d0       ??_C@_09HHMIPJNC@Hero?5Mojo?$AA@ 004449d0     BWAPI:UnitType.obj
 0002:000019dc       ??_C@_0O@ONNONPLI@Protoss?5Scout?$AA@ 004449dc     BWAPI:UnitType.obj
 0002:000019ec       ??_C@_0BA@POBNPHDK@Protoss?5Shuttle?$AA@ 004449ec     BWAPI:UnitType.obj
 0002:00001a00       __real@4011b851eb851eb8    00444a00     BWAPI:UnitType.obj
 0002:00001a08       ??_C@_0BN@HICOOKCN@Hero?5Tassadar?5Zeratul?5Archon?$AA@ 00444a08     BWAPI:UnitType.obj
 0002:00001a28       ??_C@_0P@HBBCNBED@Protoss?5Archon?$AA@ 00444a28     BWAPI:UnitType.obj
 0002:00001a38       ??_C@_0N@LPJDJDBB@Hero?5Aldaris?$AA@ 00444a38     BWAPI:UnitType.obj
 0002:00001a48       ??_C@_0O@CMLLPJLL@Hero?5Tassadar?$AA@ 00444a48     BWAPI:UnitType.obj
 0002:00001a58       ??_C@_0BF@HMEAGNHC@Protoss?5High?5Templar?$AA@ 00444a58     BWAPI:UnitType.obj
 0002:00001a70       __real@400999999999999a    00444a70     BWAPI:UnitType.obj
 0002:00001a78       ??_C@_0BD@CPJBDGKF@Hero?5Fenix?5Dragoon?$AA@ 00444a78     BWAPI:UnitType.obj
 0002:00001a8c       ??_C@_0BA@JCGABGFL@Protoss?5Dragoon?$AA@ 00444a8c     BWAPI:UnitType.obj
 0002:00001a9c       ??_C@_0BC@DEFPHEI@Hero?5Fenix?5Zealot?$AA@ 00444a9c     BWAPI:UnitType.obj
 0002:00001ab0       ??_C@_0P@EPJHBFLI@Protoss?5Zealot?$AA@ 00444ab0     BWAPI:UnitType.obj
 0002:00001ac0       ??_C@_0O@HMHKIFMB@Protoss?5Probe?$AA@ 00444ac0     BWAPI:UnitType.obj
 0002:00001ad0       ??_C@_0BE@OBDMONLO@Protoss?5Dark?5Archon?$AA@ 00444ad0     BWAPI:UnitType.obj
 0002:00001ae4       ??_C@_0O@PIBJNACO@Zerg?5Devourer?$AA@ 00444ae4     BWAPI:UnitType.obj
 0002:00001af4       ??_C@_0N@CDFIBBGP@Hero?5Zeratul?$AA@ 00444af4     BWAPI:UnitType.obj
 0002:00001b04       ??_C@_0BC@JCKKOACB@Hero?5Dark?5Templar?$AA@ 00444b04     BWAPI:UnitType.obj
 0002:00001b18       ??_C@_0BF@NEGAHBPN@Protoss?5Dark?5Templar?$AA@ 00444b18     BWAPI:UnitType.obj
 0002:00001b30       ??_C@_0O@LOFKEBMI@Hero?5Raszagal?$AA@ 00444b30     BWAPI:UnitType.obj
 0002:00001b40       ??_C@_0BA@IMKLPFOH@Protoss?5Corsair?$AA@ 00444b40     BWAPI:UnitType.obj
 0002:00001b50       ??_C@_0M@MJEOJIIO@Zerg?5Cocoon?$AA@ 00444b50     BWAPI:UnitType.obj
 0002:00001b5c       ??_C@_0BA@IGACPLK@Terran?5Valkyrie?$AA@ 00444b5c     BWAPI:UnitType.obj
 0002:00001b70       __real@401a666666666666    00444b70     BWAPI:UnitType.obj
 0002:00001b78       ??_C@_0BF@HGAFHCHN@Zerg?5Infested?5Terran?$AA@ 00444b78     BWAPI:UnitType.obj
 0002:00001b90       __real@401747ae147ae148    00444b90     BWAPI:UnitType.obj
 0002:00001b98       ??_C@_0N@FJGINPJH@Zerg?5Scourge?$AA@ 00444b98     BWAPI:UnitType.obj
 0002:00001ba8       ??_C@_0BB@PAAPKLEM@Hero?5Unclean?5One?$AA@ 00444ba8     BWAPI:UnitType.obj
 0002:00001bbc       ??_C@_0N@HIBIIJIA@Zerg?5Defiler?$AA@ 00444bbc     BWAPI:UnitType.obj
 0002:00001bcc       ??_C@_0P@PNEJKEPG@Hero?5Matriarch?$AA@ 00444bcc     BWAPI:UnitType.obj
 0002:00001bdc       ??_C@_0L@LNBLIDNE@Zerg?5Queen?$AA@ 00444bdc     BWAPI:UnitType.obj
 0002:00001be8       ??_C@_0BG@CMNBMIPF@Hero?5Kukulza?5Guardian?$AA@ 00444be8     BWAPI:UnitType.obj
 0002:00001c00       ??_C@_0O@JLPIPFOI@Zerg?5Guardian?$AA@ 00444c00     BWAPI:UnitType.obj
 0002:00001c10       ??_C@_0BG@FLPOEJKN@Hero?5Kukulza?5Mutalisk?$AA@ 00444c10     BWAPI:UnitType.obj
 0002:00001c28       ??_C@_0O@OMNHHELA@Zerg?5Mutalisk?$AA@ 00444c28     BWAPI:UnitType.obj
 0002:00001c38       ??_C@_0BA@JBMOBCAM@Hero?5Yggdrasill?$AA@ 00444c38     BWAPI:UnitType.obj
 0002:00001c48       ??_C@_0O@KLHEJFLO@Zerg?5Overlord?$AA@ 00444c48     BWAPI:UnitType.obj
 0002:00001c58       __real@3fea8f5c28f5c28f    00444c58     BWAPI:UnitType.obj
 0002:00001c60       ??_C@_0L@NMDMBKKC@Zerg?5Drone?$AA@ 00444c60     BWAPI:UnitType.obj
 0002:00001c6c       ??_C@_0P@BIGJIBPB@Zerg?5Broodling?$AA@ 00444c6c     BWAPI:UnitType.obj
 0002:00001c80       __real@4018000000000000    00444c80     BWAPI:UnitType.obj
 0002:00001c88       ??_C@_0P@GBJMJECP@Hero?5Torrasque?$AA@ 00444c88     BWAPI:UnitType.obj
 0002:00001c98       ??_C@_0P@HGEHLMGM@Zerg?5Ultralisk?$AA@ 00444c98     BWAPI:UnitType.obj
 0002:00001ca8       __real@40147ae147ae147b    00444ca8     BWAPI:UnitType.obj
 0002:00001cb0       ??_C@_0BD@LABHKFEC@Hero?5Hunter?5Killer?$AA@ 00444cb0     BWAPI:UnitType.obj
 0002:00001cc4       ??_C@_0P@DOPLIACB@Zerg?5Hydralisk?$AA@ 00444cc4     BWAPI:UnitType.obj
 0002:00001cd8       __real@400d47ae147ae148    00444cd8     BWAPI:UnitType.obj
 0002:00001ce0       ??_C@_0BH@NJMPIMGM@Hero?5Infested?5Kerrigan?$AA@ 00444ce0     BWAPI:UnitType.obj
 0002:00001cf8       ??_C@_0BD@DJIHLLLC@Hero?5Devouring?5One?$AA@ 00444cf8     BWAPI:UnitType.obj
 0002:00001d0c       ??_C@_0O@FFAPMDCL@Zerg?5Zergling?$AA@ 00444d0c     BWAPI:UnitType.obj
 0002:00001d20       __real@4015f5c28f5c28f6    00444d20     BWAPI:UnitType.obj
 0002:00001d28       ??_C@_08CKINHEI@Zerg?5Egg?$AA@ 00444d28     BWAPI:UnitType.obj
 0002:00001d34       ??_C@_0L@MDAFMNBD@Zerg?5Larva?$AA@ 00444d34     BWAPI:UnitType.obj
 0002:00001d40       ??_C@_0BA@HBELBBKF@Terran?5Civilian?$AA@ 00444d40     BWAPI:UnitType.obj
 0002:00001d50       ??_C@_0N@MDPJBGPH@Terran?5Medic?$AA@ 00444d50     BWAPI:UnitType.obj
 0002:00001d60       ??_C@_0BE@MDONONI@Spell?5Scanner?5Sweep?$AA@ 00444d60     BWAPI:UnitType.obj
 0002:00001d74       ??_C@_0BA@JOAOJJLD@Hero?5Gui?5Montag?$AA@ 00444d74     BWAPI:UnitType.obj
 0002:00001d84       ??_C@_0P@JPGGABPH@Terran?5Firebat?$AA@ 00444d84     BWAPI:UnitType.obj
 0002:00001d94       ??_C@_0BM@DCONFFNC@Hero?5Edmund?5Duke?5Siege?5Mode?$AA@ 00444d94     BWAPI:UnitType.obj
 0002:00001db0       ??_C@_0BN@OANCGIEG@Terran?5Siege?5Tank?5Siege?5Mode?$AA@ 00444db0     BWAPI:UnitType.obj
 0002:00001dd0       ??_C@_0BH@KLOCABEJ@Terran?5Nuclear?5Missile?$AA@ 00444dd0     BWAPI:UnitType.obj
 0002:00001de8       __real@4040aa3d70a3d70a    00444de8     BWAPI:UnitType.obj
 0002:00001df0       ??_C@_0BL@ELBMAKBJ@Terran?5Vulture?5Spider?5Mine?$AA@ 00444df0     BWAPI:UnitType.obj
 0002:00001e0c       ??_C@_0BE@CCLMOGIC@Hero?5Gerard?5DuGalle?$AA@ 00444e0c     BWAPI:UnitType.obj
 0002:00001e20       ??_C@_0O@DOMMDDDI@Hero?5Norad?5II?$AA@ 00444e20     BWAPI:UnitType.obj
 0002:00001e30       ??_C@_0O@BELFNMID@Hero?5Hyperion?$AA@ 00444e30     BWAPI:UnitType.obj
 0002:00001e40       ??_C@_0BF@OLABDBKN@Hero?5Arcturus?5Mengsk?$AA@ 00444e40     BWAPI:UnitType.obj
 0002:00001e58       ??_C@_0BF@LFOBLJJC@Terran?5Battlecruiser?$AA@ 00444e58     BWAPI:UnitType.obj
 0002:00001e70       __real@4004000000000000    00444e70     BWAPI:UnitType.obj
 0002:00001e78       ??_C@_0BA@GCDKNCAO@Terran?5Dropship?$AA@ 00444e78     BWAPI:UnitType.obj
 0002:00001e88       __real@4015e147ae147ae1    00444e88     BWAPI:UnitType.obj
 0002:00001e90       ??_C@_0O@LBJFOFMJ@Hero?5Magellan?$AA@ 00444e90     BWAPI:UnitType.obj
 0002:00001ea0       ??_C@_0BG@HLHKMKDM@Terran?5Science?5Vessel?$AA@ 00444ea0     BWAPI:UnitType.obj
 0002:00001eb8       __real@4014000000000000    00444eb8     BWAPI:UnitType.obj
 0002:00001ec0       ??_C@_0BC@FIEOAFLE@Hero?5Tom?5Kazansky?$AA@ 00444ec0     BWAPI:UnitType.obj
 0002:00001ed4       ??_C@_0O@ICMKLECA@Terran?5Wraith?$AA@ 00444ed4     BWAPI:UnitType.obj
 0002:00001ee8       __real@401aae147ae147ae    00444ee8     BWAPI:UnitType.obj
 0002:00001ef0       ??_C@_0L@MCIKDNEH@Terran?5SCV?$AA@ 00444ef0     BWAPI:UnitType.obj
 0002:00001f00       __real@4013ae147ae147ae    00444f00     BWAPI:UnitType.obj
 0002:00001f08       ??_C@_0BL@OKGNPKIO@Hero?5Edmund?5Duke?5Tank?5Mode?$AA@ 00444f08     BWAPI:UnitType.obj
 0002:00001f24       ??_C@_0BM@NINFJDKI@Terran?5Siege?5Tank?5Tank?5Mode?$AA@ 00444f24     BWAPI:UnitType.obj
 0002:00001f40       ??_C@_0BC@CELNIGHD@Hero?5Alan?5Schezar?$AA@ 00444f40     BWAPI:UnitType.obj
 0002:00001f54       ??_C@_0P@CCBPCJJB@Terran?5Goliath?$AA@ 00444f54     BWAPI:UnitType.obj
 0002:00001f68       __real@401247ae147ae148    00444f68     BWAPI:UnitType.obj
 0002:00001f70       ??_C@_0BI@KICFDIJN@Hero?5Jim?5Raynor?5Vulture?$AA@ 00444f70     BWAPI:UnitType.obj
 0002:00001f88       ??_C@_0P@KHIIEKKA@Terran?5Vulture?$AA@ 00444f88     BWAPI:UnitType.obj
 0002:00001f98       __real@401999999999999a    00444f98     BWAPI:UnitType.obj
 0002:00001fa0       ??_C@_0BD@KGLFCCB@Hero?5Alexei?5Stukov?$AA@ 00444fa0     BWAPI:UnitType.obj
 0002:00001fb4       ??_C@_0BE@EFOPKHNH@Hero?5Infested?5Duran?$AA@ 00444fb4     BWAPI:UnitType.obj
 0002:00001fc8       ??_C@_0BB@PALLBBAI@Hero?5Samir?5Duran?$AA@ 00444fc8     BWAPI:UnitType.obj
 0002:00001fdc       ??_C@_0BE@FIKBPLFJ@Hero?5Sarah?5Kerrigan?$AA@ 00444fdc     BWAPI:UnitType.obj
 0002:00001ff0       ??_C@_0N@FJMBNEBB@Terran?5Ghost?$AA@ 00444ff0     BWAPI:UnitType.obj
 0002:00002000       ??_C@_0BH@OKPCLLGF@Hero?5Jim?5Raynor?5Marine?$AA@ 00445000     BWAPI:UnitType.obj
 0002:00002018       ??_C@_0O@EHHJLCCM@Terran?5Marine?$AA@ 00445018     BWAPI:UnitType.obj
 0002:00002028       __real@4010000000000000    00445028     BWAPI:UnitType.obj
 0002:00002030       ??_C@_0BK@EDMLPCHF@Flame?5Thrower?5?$CIWall?5Trap?$CJ?$AA@ 00445030     BWAPI:WeaponType.obj
 0002:0000204c       ??_C@_0CD@DAGJPMOC@Hellfire?5Missile?5Pack?5?$CIFloor?5Tra@ 0044504c     BWAPI:WeaponType.obj
 0002:00002070       ??_C@_0CC@ONHMICNI@Hellfire?5Missile?5Pack?5?$CIWall?5Trap@ 00445070     BWAPI:WeaponType.obj
 0002:00002094       ??_C@_0BO@IPALAIBI@Twin?5Autocannons?5?$CIFloor?5Trap?$CJ?$AA@ 00445094     BWAPI:WeaponType.obj
 0002:000020b4       ??_C@_0BK@IKAHECJM@Independant?5Laser?5Battery?$AA@ 004450b4     BWAPI:WeaponType.obj
 0002:000020d0       ??_C@_0BG@PMGCMGOH@Warp?5Blades?5?$CIZeratul?$CJ?$AA@ 004450d0     BWAPI:WeaponType.obj
 0002:000020e8       ??_C@_0BD@DGLDHMAL@Warp?5Blades?5?$CIHero?$CJ?$AA@ 004450e8     BWAPI:WeaponType.obj
 0002:000020fc       ??_C@_0M@FAEAIBOL@Warp?5Blades?$AA@ 004450fc     BWAPI:WeaponType.obj
 0002:00002108       ??_C@_0BE@KDCEJBKM@Subterranean?5Spines?$AA@ 00445108     BWAPI:WeaponType.obj
 0002:0000211c       ??_C@_09DLDOMOLA@Maelstrom?$AA@ 0044511c     BWAPI:WeaponType.obj
 0002:00002128       ??_C@_0O@PPNPMNPG@Optical?5Flare?$AA@ 00445128     BWAPI:WeaponType.obj
 0002:00002138       ??_C@_08MKGOGCFD@Feedback?$AA@ 00445138     BWAPI:WeaponType.obj
 0002:00002144       ??_C@_0N@EIDLJECA@Mind?5Control?$AA@ 00445144     BWAPI:WeaponType.obj
 0002:00002154       ??_C@_0P@KLCCOCIG@Corrosive?5Acid?$AA@ 00445154     BWAPI:WeaponType.obj
 0002:00002164       ??_C@_0N@NEMBMOK@Halo?5Rockets?$AA@ 00445164     BWAPI:WeaponType.obj
 0002:00002174       ??_C@_0M@IGMFPAGD@Restoration?$AA@ 00445174     BWAPI:WeaponType.obj
 0002:00002180       ??_C@_0P@FPHEIFPJ@Disruption?5Web?$AA@ 00445180     BWAPI:WeaponType.obj
 0002:00002190       ??_C@_0O@HHLEMKND@Neutron?5Flare?$AA@ 00445190     BWAPI:WeaponType.obj
 0002:000021a0       ??_C@_0O@LELKIGKH@Psionic?5Storm?$AA@ 004451a0     BWAPI:WeaponType.obj
 0002:000021b0       ??_C@_0N@PDIGNAKB@Stasis?5Field?$AA@ 004451b0     BWAPI:WeaponType.obj
 0002:000021c0       ??_C@_06IFHEDAIH@Scarab?$AA@ 004451c0     BWAPI:WeaponType.obj
 0002:000021c8       ??_C@_0BC@ODIAEBD@STA?5Photon?5Cannon?$AA@ 004451c8     BWAPI:WeaponType.obj
 0002:000021dc       ??_C@_0BC@GPLPBPOO@STS?5Photon?5Cannon?$AA@ 004451dc     BWAPI:WeaponType.obj
 0002:000021f0       ??_C@_0N@BOJPNEAC@Pulse?5Cannon?$AA@ 004451f0     BWAPI:WeaponType.obj
 0002:00002200       ??_C@_0CC@NMGEJJDK@Phase?5Disruptor?5Cannon?5?$CIDanimoth@ 00445200     BWAPI:WeaponType.obj
 0002:00002224       ??_C@_0BH@JBJAOLG@Phase?5Disruptor?5Cannon?$AA@ 00445224     BWAPI:WeaponType.obj
 0002:0000223c       ??_C@_0BP@EPEJAFKE@Anti?9Matter?5Missiles?5?$CIArtanis?$CJ?$AA@ 0044523c     BWAPI:WeaponType.obj
 0002:0000225c       ??_C@_0BM@FEIKILDL@Anti?9Matter?5Missiles?5?$CIMojo?$CJ?$AA@ 0044525c     BWAPI:WeaponType.obj
 0002:00002278       ??_C@_0BF@ECEBMFJO@Anti?9Matter?5Missiles?$AA@ 00445278     BWAPI:WeaponType.obj
 0002:00002290       ??_C@_0BP@BADGMDBB@Dual?5Photon?5Blasters?5?$CIArtanis?$CJ?$AA@ 00445290     BWAPI:WeaponType.obj
 0002:000022b0       ??_C@_0BM@HLIKGMI@Dual?5Photon?5Blasters?5?$CIMojo?$CJ?$AA@ 004452b0     BWAPI:WeaponType.obj
 0002:000022cc       ??_C@_0BF@KDBNDBPJ@Dual?5Photon?5Blasters?$AA@ 004452cc     BWAPI:WeaponType.obj
 0002:000022e4       ??_C@_0CM@JOFJPBNF@Psionic?5Shockwave?5?$CITassadar?1Zera@ 004452e4     BWAPI:WeaponType.obj
 0002:00002310       ??_C@_0BC@DKLIJFJC@Psionic?5Shockwave?$AA@ 00445310     BWAPI:WeaponType.obj
 0002:00002324       ??_C@_0M@DHLOANDI@Psi?5Assault?$AA@ 00445324     BWAPI:WeaponType.obj
 0002:00002330       ??_C@_0BI@LGNBFLHO@Phase?5Disruptor?5?$CIFenix?$CJ?$AA@ 00445330     BWAPI:WeaponType.obj
 0002:00002348       ??_C@_0BA@FAHAAEDL@Phase?5Disruptor?$AA@ 00445348     BWAPI:WeaponType.obj
 0002:00002358       ??_C@_0BD@PEKOHGNP@Psi?5Blades?5?$CIFenix?$CJ?$AA@ 00445358     BWAPI:WeaponType.obj
 0002:0000236c       ??_C@_0L@OLEEOCD@Psi?5Blades?$AA@ 0044536c     BWAPI:WeaponType.obj
 0002:00002378       ??_C@_0O@PKFHIJNK@Particle?5Beam?$AA@ 00445378     BWAPI:WeaponType.obj
 0002:00002388       ??_C@_07MINJLKJO@Consume?$AA@ 00445388     BWAPI:WeaponType.obj
 0002:00002390       ??_C@_06HGGDKCAJ@Plague?$AA@ 00445390     BWAPI:WeaponType.obj
 0002:00002398       ??_C@_0L@JFPBFKCG@Dark?5Swarm?$AA@ 00445398     BWAPI:WeaponType.obj
 0002:000023a4       ??_C@_07EHPINOFO@Ensnare?$AA@ 004453a4     BWAPI:WeaponType.obj
 0002:000023ac       ??_C@_0BB@JIKPFMGM@Spawn?5Broodlings?$AA@ 004453ac     BWAPI:WeaponType.obj
 0002:000023c0       ??_C@_08HMJEGKAH@Parasite?$AA@ 004453c0     BWAPI:WeaponType.obj
 0002:000023cc       ??_C@_0BA@ILDGMOGL@Suicide?5Scourge?$AA@ 004453cc     BWAPI:WeaponType.obj
 0002:000023dc       ??_C@_0BI@NKNJKBLM@Suicide?5Infested?5Terran?$AA@ 004453dc     BWAPI:WeaponType.obj
 0002:000023f4       ??_C@_0BG@EOLEOCBP@Subterranean?5Tentacle?$AA@ 004453f4     BWAPI:WeaponType.obj
 0002:0000240c       ??_C@_0O@DMFOBIPI@Seeker?5Spores?$AA@ 0044540c     BWAPI:WeaponType.obj
 0002:0000241c       ??_C@_0BF@MGOMPCKM@Glave?5Wurm?5?$CIKukulza?$CJ?$AA@ 0044541c     BWAPI:WeaponType.obj
 0002:00002434       ??_C@_0L@OCBCHKE@Glave?5Wurm?$AA@ 00445434     BWAPI:WeaponType.obj
 0002:00002440       ??_C@_0BF@JAJDICEL@Acid?5Spore?5?$CIKukulza?$CJ?$AA@ 00445440     BWAPI:WeaponType.obj
 0002:00002458       ??_C@_0L@INMAMJHC@Acid?5Spore?$AA@ 00445458     BWAPI:WeaponType.obj
 0002:00002464       ??_C@_06HOFJGIJI@Spines?$AA@ 00445464     BWAPI:WeaponType.obj
 0002:0000246c       ??_C@_0N@BPLAABEG@Toxic?5Spores?$AA@ 0044546c     BWAPI:WeaponType.obj
 0002:0000247c       ??_C@_0BK@MCJEAPJI@Kaiser?5Blades?5?$CITorrasque?$CJ?$AA@ 0044547c     BWAPI:WeaponType.obj
 0002:00002498       ??_C@_0O@MHMMNLID@Kaiser?5Blades?$AA@ 00445498     BWAPI:WeaponType.obj
 0002:000024a8       ??_C@_0BO@ILOANNGG@Needle?5Spines?5?$CIHunter?5Killer?$CJ?$AA@ 004454a8     BWAPI:WeaponType.obj
 0002:000024c8       ??_C@_0O@NPNFLJPM@Needle?5Spines?$AA@ 004454c8     BWAPI:WeaponType.obj
 0002:000024d8       ??_C@_0BK@JFJDANFP@Claws?5?$CIInfested?5Kerrigan?$CJ?$AA@ 004454d8     BWAPI:WeaponType.obj
 0002:000024f4       ??_C@_0BG@ODMLPEHF@Claws?5?$CIDevouring?5One?$CJ?$AA@ 004454f4     BWAPI:WeaponType.obj
 0002:0000250c       ??_C@_05ENAFHIFE@Claws?$AA@ 0044550c     BWAPI:WeaponType.obj
 0002:00002514       ??_C@_09KMJEBGHE@Irradiate?$AA@ 00445514     BWAPI:WeaponType.obj
 0002:00002520       ??_C@_0O@EPLIBJBC@EMP?5Shockwave?$AA@ 00445520     BWAPI:WeaponType.obj
 0002:00002530       ??_C@_08FFMBAOJA@Lockdown?$AA@ 00445530     BWAPI:WeaponType.obj
 0002:0000253c       ??_C@_0P@NMDGAFOI@Nuclear?5Strike?$AA@ 0044553c     BWAPI:WeaponType.obj
 0002:0000254c       ??_C@_0L@JHAAOOIP@Yamato?5Gun?$AA@ 0044554c     BWAPI:WeaponType.obj
 0002:00002558       ??_C@_0BB@JMFHIAKC@Longbolt?5Missile?$AA@ 00445558     BWAPI:WeaponType.obj
 0002:0000256c       ??_C@_0CD@GLDCPGNL@Arclite?5Shock?5Cannon?5?$CIEdmund?5Duk@ 0044556c     BWAPI:WeaponType.obj
 0002:00002590       ??_C@_0BF@PBBKAKEF@Arclite?5Shock?5Cannon?$AA@ 00445590     BWAPI:WeaponType.obj
 0002:000025a8       ??_C@_0BL@HONLOKI@Flame?5Thrower?5?$CIGui?5Montag?$CJ?$AA@ 004455a8     BWAPI:WeaponType.obj
 0002:000025c4       ??_C@_0O@PLONGGH@Flame?5Thrower?$AA@ 004455c4     BWAPI:WeaponType.obj
 0002:000025d4       ??_C@_0BN@BFPJHBHO@ATA?5Laser?5Battery?5?$CIHyperion?$CJ?$AA@ 004455d4     BWAPI:WeaponType.obj
 0002:000025f4       ??_C@_0BJ@IABKMPK@ATA?5Laser?5Battery?5?$CIHero?$CJ?$AA@ 004455f4     BWAPI:WeaponType.obj
 0002:00002610       ??_C@_0BC@DJCMFNFG@ATA?5Laser?5Battery?$AA@ 00445610     BWAPI:WeaponType.obj
 0002:00002624       ??_C@_0BN@JGJFOMKJ@ATS?5Laser?5Battery?5?$CIHyperion?$CJ?$AA@ 00445624     BWAPI:WeaponType.obj
 0002:00002644       ??_C@_0BJ@OEOFPJFP@ATS?5Laser?5Battery?5?$CIHero?$CJ?$AA@ 00445644     BWAPI:WeaponType.obj
 0002:00002660       ??_C@_0BC@FIKLEGKL@ATS?5Laser?5Battery?$AA@ 00445660     BWAPI:WeaponType.obj
 0002:00002674       ??_C@_0BM@CIEMKEBA@Burst?5Lasers?5?$CITom?5Kazansky?$CJ?$AA@ 00445674     BWAPI:WeaponType.obj
 0002:00002690       ??_C@_0N@NPFEIGII@Burst?5Lasers?$AA@ 00445690     BWAPI:WeaponType.obj
 0002:000026a0       ??_C@_0BP@JNIJJGGM@Gemini?5Missiles?5?$CITom?5Kazansky?$CJ?$AA@ 004456a0     BWAPI:WeaponType.obj
 0002:000026c0       ??_C@_0BA@LJAPOOJC@Gemini?5Missiles?$AA@ 004456c0     BWAPI:WeaponType.obj
 0002:000026d0       ??_C@_0O@JAIEPJCB@Fusion?5Cutter?$AA@ 004456d0     BWAPI:WeaponType.obj
 0002:000026e0       ??_C@_0BN@DBMEKICM@Arclite?5Cannon?5?$CIEdmund?5Duke?$CJ?$AA@ 004456e0     BWAPI:WeaponType.obj
 0002:00002700       ??_C@_0P@GLAKHKN@Arclite?5Cannon?$AA@ 00445700     BWAPI:WeaponType.obj
 0002:00002710       ??_C@_0CF@DBOKIABP@Hellfire?5Missile?5Pack?5?$CIAlan?5Sche@ 00445710     BWAPI:WeaponType.obj
 0002:00002738       ??_C@_0BG@EJAKIAFH@Hellfire?5Missile?5Pack?$AA@ 00445738     BWAPI:WeaponType.obj
 0002:00002750       ??_C@_0CA@GFGJAAEP@Twin?5Autocannons?5?$CIAlan?5Schezar?$CJ?$AA@ 00445750     BWAPI:WeaponType.obj
 0002:00002770       ??_C@_0BB@PHGIFPEE@Twin?5Autocannons?$AA@ 00445770     BWAPI:WeaponType.obj
 0002:00002784       ??_C@_0N@BCDLKLFL@Spider?5Mines?$AA@ 00445784     BWAPI:WeaponType.obj
 0002:00002794       ??_C@_0CD@LIMNBENE@Fragmentation?5Grenade?5?$CIJim?5Rayno@ 00445794     BWAPI:WeaponType.obj
 0002:000027b8       ??_C@_0BG@OMLECFBH@Fragmentation?5Grenade?$AA@ 004457b8     BWAPI:WeaponType.obj
 0002:000027d0       ??_C@_0CE@IHFBNOFG@C?910?5Canister?5Rifle?5?$CIAlexei?5Stuk@ 004457d0     BWAPI:WeaponType.obj
 0002:000027f4       ??_C@_0CF@OAFNMABL@C?910?5Canister?5Rifle?5?$CIInfested?5Du@ 004457f4     BWAPI:WeaponType.obj
 0002:0000281c       ??_C@_0CC@OPCICMBD@C?910?5Canister?5Rifle?5?$CISamir?5Duran@ 0044581c     BWAPI:WeaponType.obj
 0002:00002840       ??_C@_0CF@OKEACAGA@C?910?5Canister?5Rifle?5?$CISarah?5Kerri@ 00445840     BWAPI:WeaponType.obj
 0002:00002868       ??_C@_0BE@HPCENBKJ@C?910?5Canister?5Rifle?$AA@ 00445868     BWAPI:WeaponType.obj
 0002:0000287c       ??_C@_0BJ@BPLGNEN@Gauss?5Rifle?5?$CIJim?5Raynor?$CJ?$AA@ 0044587c     BWAPI:WeaponType.obj
 0002:00002898       ??_C@_0M@PHMJIJIN@Gauss?5Rifle?$AA@ 00445898     BWAPI:WeaponType.obj
 0002:000028a4       ??_C@_0BL@KJPIIFNP@XBWAPIXBUILDXSTAMPXRELEASE?$AA@ 004458a4     BWAPI:BWAPI.obj
 0002:000028c0       ??_C@_0BL@INAMLPPF@XBWAPIXREVISIONXSTAMPX4160?$AA@ 004458c0     BWAPI:BWAPI.obj
 0002:000028dc       ??_C@_07IJKHPPM@Healing?$AA@ 004458dc     BWAPI:TechType.obj
 0002:000028e4       ??_C@_0O@NCJIEIIC@Lurker?5Aspect?$AA@ 004458e4     BWAPI:TechType.obj
 0002:000028f4       ??_C@_0BB@LIPMMPLG@Dark?5Archon?5Meld?$AA@ 004458f4     BWAPI:TechType.obj
 0002:00002908       ??_C@_0M@PAMEHDBO@Archon?5Warp?$AA@ 00445908     BWAPI:TechType.obj
 0002:00002914       ??_C@_06FLGNMNOC@Recall?$AA@ 00445914     BWAPI:TechType.obj
 0002:0000291c       ??_C@_0O@KINFNOIK@Hallucination?$AA@ 0044591c     BWAPI:TechType.obj
 0002:0000292c       ??_C@_0M@OKJGDDBF@Infestation?$AA@ 0044592c     BWAPI:TechType.obj
 0002:00002938       ??_C@_09DFAHLDPC@Burrowing?$AA@ 00445938     BWAPI:TechType.obj
 0002:00002944       ??_C@_0BD@CABJAIAO@Personnel?5Cloaking?$AA@ 00445944     BWAPI:TechType.obj
 0002:00002958       ??_C@_0P@BBEEEPEB@Cloaking?5Field?$AA@ 00445958     BWAPI:TechType.obj
 0002:00002968       ??_C@_0BB@CAIBPHIH@Defensive?5Matrix?$AA@ 00445968     BWAPI:TechType.obj
 0002:0000297c       ??_C@_0BA@IIANCPP@Tank?5Siege?5Mode?$AA@ 0044597c     BWAPI:TechType.obj
 0002:0000298c       ??_C@_0O@CDGDCNGE@Scanner?5Sweep?$AA@ 0044598c     BWAPI:TechType.obj
 0002:0000299c       ??_C@_0L@DPMKGLMO@Stim?5Packs?$AA@ 0044599c     BWAPI:TechType.obj
 0002:000029a8       ??_C@_0BA@BPCMJIAB@Charon?5Boosters?$AA@ 004459a8     BWAPI:UpgradeType.obj
 0002:000029b8       ??_C@_0BD@LHHPGDOF@Anabolic?5Synthesis?$AA@ 004459b8     BWAPI:UpgradeType.obj
 0002:000029cc       ??_C@_0BC@FBLDECKF@Chitinous?5Plating?$AA@ 004459cc     BWAPI:UpgradeType.obj
 0002:000029e0       ??_C@_0BB@HDDBNILE@Caduceus?5Reactor?$AA@ 004459e0     BWAPI:UpgradeType.obj
 0002:000029f4       ??_C@_0P@CCJOKMAG@Argus?5Talisman?$AA@ 004459f4     BWAPI:UpgradeType.obj
 0002:00002a04       ??_C@_0M@GDGCHLDD@Argus?5Jewel?$AA@ 00445a04     BWAPI:UpgradeType.obj
 0002:00002a10       ??_C@_0P@MJDEAGJD@Khaydarin?5Core?$AA@ 00445a10     BWAPI:UpgradeType.obj
 0002:00002a20       ??_C@_0BB@DLJNDHKJ@Carrier?5Capacity?$AA@ 00445a20     BWAPI:UpgradeType.obj
 0002:00002a34       ??_C@_0BD@NIGKKDHG@Gravitic?5Thrusters?$AA@ 00445a34     BWAPI:UpgradeType.obj
 0002:00002a48       ??_C@_0O@JLAEIHAL@Apial?5Sensors?$AA@ 00445a48     BWAPI:UpgradeType.obj
 0002:00002a58       ??_C@_0BB@KDDPCDFJ@Khaydarin?5Amulet?$AA@ 00445a58     BWAPI:UpgradeType.obj
 0002:00002a6c       ??_C@_0BC@PBDMMIIB@Gravitic?5Boosters?$AA@ 00445a6c     BWAPI:UpgradeType.obj
 0002:00002a80       ??_C@_0N@HIDMPKKC@Sensor?5Array?$AA@ 00445a80     BWAPI:UpgradeType.obj
 0002:00002a90       ??_C@_0P@MGOEDEGA@Gravitic?5Drive?$AA@ 00445a90     BWAPI:UpgradeType.obj
 0002:00002aa0       ??_C@_0BA@JOACLICN@Reaver?5Capacity?$AA@ 00445aa0     BWAPI:UpgradeType.obj
 0002:00002ab0       ??_C@_0O@KCKOFNMJ@Scarab?5Damage?$AA@ 00445ab0     BWAPI:UpgradeType.obj
 0002:00002ac0       ??_C@_0BB@GGBOPENG@Leg?5Enhancements?$AA@ 00445ac0     BWAPI:UpgradeType.obj
 0002:00002ad4       ??_C@_0BD@GJMCAHKG@Singularity?5Charge?$AA@ 00445ad4     BWAPI:UpgradeType.obj
 0002:00002ae8       ??_C@_0BC@KHMPEBMO@Metasynaptic?5Node?$AA@ 00445ae8     BWAPI:UpgradeType.obj
 0002:00002afc       ??_C@_0P@PPPPEGG@Gamete?5Meiosis?$AA@ 00445afc     BWAPI:UpgradeType.obj
 0002:00002b0c       ??_C@_0P@MEPIKOOG@Grooved?5Spines?$AA@ 00445b0c     BWAPI:UpgradeType.obj
 0002:00002b1c       ??_C@_0BC@EOLHIHFE@Muscular?5Augments?$AA@ 00445b1c     BWAPI:UpgradeType.obj
 0002:00002b30       ??_C@_0P@BBFPFPCM@Adrenal?5Glands?$AA@ 00445b30     BWAPI:UpgradeType.obj
 0002:00002b40       ??_C@_0BA@OPLLNPBN@Metabolic?5Boost?$AA@ 00445b40     BWAPI:UpgradeType.obj
 0002:00002b50       ??_C@_0BF@ODBHOEGO@Pneumatized?5Carapace?$AA@ 00445b50     BWAPI:UpgradeType.obj
 0002:00002b68       ??_C@_08PJAEFDKE@Antennae?$AA@ 00445b68     BWAPI:UpgradeType.obj
 0002:00002b74       ??_C@_0N@CPBBMAPF@Ventral?5Sacs?$AA@ 00445b74     BWAPI:UpgradeType.obj
 0002:00002b84       ??_C@_0BB@HPJNOKKJ@Colossus?5Reactor?$AA@ 00445b84     BWAPI:UpgradeType.obj
 0002:00002b98       ??_C@_0P@CECDPOLC@Apollo?5Reactor?$AA@ 00445b98     BWAPI:UpgradeType.obj
 0002:00002ba8       ??_C@_0BA@IIHOPKAP@Moebius?5Reactor?$AA@ 00445ba8     BWAPI:UpgradeType.obj
 0002:00002bb8       ??_C@_0BA@MCDCFHLA@Ocular?5Implants?$AA@ 00445bb8     BWAPI:UpgradeType.obj
 0002:00002bc8       ??_C@_0O@LCELBCC@Titan?5Reactor?$AA@ 00445bc8     BWAPI:UpgradeType.obj
 0002:00002bd8       ??_C@_0O@HGMNHFJG@Ion?5Thrusters?$AA@ 00445bd8     BWAPI:UpgradeType.obj
 0002:00002be8       ??_C@_0N@GOIKPKJJ@U?9238?5Shells?$AA@ 00445be8     BWAPI:UpgradeType.obj
 0002:00002bf8       ??_C@_0BH@GBBPEHHH@Protoss?5Plasma?5Shields?$AA@ 00445bf8     BWAPI:UpgradeType.obj
 0002:00002c10       ??_C@_0BE@MDIHMAMC@Protoss?5Air?5Weapons?$AA@ 00445c10     BWAPI:UpgradeType.obj
 0002:00002c24       ??_C@_0BH@MHKJGFEG@Protoss?5Ground?5Weapons?$AA@ 00445c24     BWAPI:UpgradeType.obj
 0002:00002c3c       ??_C@_0BD@JMIBLOCK@Zerg?5Flyer?5Attacks?$AA@ 00445c3c     BWAPI:UpgradeType.obj
 0002:00002c50       ??_C@_0BF@JIMKBEBL@Zerg?5Missile?5Attacks?$AA@ 00445c50     BWAPI:UpgradeType.obj
 0002:00002c68       ??_C@_0BD@FOFIPFC@Zerg?5Melee?5Attacks?$AA@ 00445c68     BWAPI:UpgradeType.obj
 0002:00002c7c       ??_C@_0BE@OLPNGLJB@Terran?5Ship?5Weapons?$AA@ 00445c7c     BWAPI:UpgradeType.obj
 0002:00002c90       ??_C@_0BH@NAGKGFON@Terran?5Vehicle?5Weapons?$AA@ 00445c90     BWAPI:UpgradeType.obj
 0002:00002ca8       ??_C@_0BI@CBLCIGFB@Terran?5Infantry?5Weapons?$AA@ 00445ca8     BWAPI:UpgradeType.obj
 0002:00002cc0       ??_C@_0BC@PPFOMGIL@Protoss?5Air?5Armor?$AA@ 00445cc0     BWAPI:UpgradeType.obj
 0002:00002cd4       ??_C@_0BF@HDALBHNM@Protoss?5Ground?5Armor?$AA@ 00445cd4     BWAPI:UpgradeType.obj
 0002:00002cec       ??_C@_0BE@OOALFLDP@Zerg?5Flyer?5Carapace?$AA@ 00445cec     BWAPI:UpgradeType.obj
 0002:00002d00       ??_C@_0O@FNDFHJFL@Zerg?5Carapace?$AA@ 00445d00     BWAPI:UpgradeType.obj
 0002:00002d10       ??_C@_0BE@IKOFAJBC@Terran?5Ship?5Plating?$AA@ 00445d10     BWAPI:UpgradeType.obj
 0002:00002d24       ??_C@_0BH@LBHCAHGO@Terran?5Vehicle?5Plating?$AA@ 00445d24     BWAPI:UpgradeType.obj
 0002:00002d3c       ??_C@_0BG@MLNEPKJE@Terran?5Infantry?5Armor?$AA@ 00445d3c     BWAPI:UpgradeType.obj
 0002:00002d54       ??_C@_05BBOGGNLJ@Other?$AA@ 00445d54     BWAPI:Race.obj
 0002:00002d5c       ??_C@_06BEOPDEGP@Random?$AA@ 00445d5c     BWAPI:Race.obj
 0002:00002d64       ??_C@_07HABMPCLL@Protoss?$AA@ 00445d64     BWAPI:Race.obj
 0002:00002d6c       ??_C@_06BNHPEPEK@Terran?$AA@ 00445d6c     BWAPI:Race.obj
 0002:00002d74       ??_C@_04DKEPJJOH@Zerg?$AA@ 00445d74     BWAPI:Race.obj
 0002:00002d7c       ??_C@_05GNBOAOG@Large?$AA@ 00445d7c     BWAPI:UnitSizeType.obj
 0002:00002d84       ??_C@_06LHIDHMIE@Medium?$AA@ 00445d84     BWAPI:UnitSizeType.obj
 0002:00002d8c       ??_C@_05KOJKBBHA@Small?$AA@ 00445d8c     BWAPI:UnitSizeType.obj
 0002:00002d94       ??_C@_0M@MLMKHJLC@Independent?$AA@ 00445d94     BWAPI:UnitSizeType.obj
 0002:00002da0       ??_C@_0L@LELLONOE@Air?5Splash?$AA@ 00445da0     BWAPI:ExplosionType.obj
 0002:00002dac       ??_C@_0L@GEGPICLB@Broodlings?$AA@ 00445dac     BWAPI:ExplosionType.obj
 0002:00002db8       ??_C@_0BA@JNGLLCDI@Nuclear?5Missile?$AA@ 00445db8     BWAPI:ExplosionType.obj
 0002:00002dc8       ??_C@_0N@MHCEFNG@Enemy?5Splash?$AA@ 00445dc8     BWAPI:ExplosionType.obj
 0002:00002dd8       ??_C@_0O@HLFJMJNG@Radial?5Splash?$AA@ 00445dd8     BWAPI:ExplosionType.obj
 0002:00002de8       ??_C@_06EFAGIKOH@Normal?$AA@ 00445de8     BWAPI:ExplosionType.obj
 0002:00002df0       ??_C@_0N@ONCMOLLL@Ignore?5Armor?$AA@ 00445df0     BWAPI:DamageType.obj
 0002:00002e00       ??_C@_0L@LCLHLKBL@Concussive?$AA@ 00445e00     BWAPI:DamageType.obj
 0002:00002e0c       ??_C@_09IGNDJJLI@Explosive?$AA@ 00445e0c     BWAPI:DamageType.obj
 0002:00002e18       ??_C@_0BB@JEDGJFHH@Pro?5Gamer?5League?$AA@ 00445e18     BWAPI:GameType.obj
 0002:00002e2c       ??_C@_0O@BFIJKID@Top?5vs?5Bottom?$AA@ 00445e2c     BWAPI:GameType.obj
 0002:00002e3c       ??_C@_0BG@JHCAHLBK@Team?5Capture?5The?5Flag?$AA@ 00445e3c     BWAPI:GameType.obj
 0002:00002e54       ??_C@_0BC@JLPLFIIA@Team?5Free?5For?5All?$AA@ 00445e54     BWAPI:GameType.obj
 0002:00002e68       ??_C@_0L@GBOIAJIN@Team?5Melee?$AA@ 00445e68     BWAPI:GameType.obj
 0002:00002e74       ??_C@_0BB@GHOCBAJC@Use?5Map?5Settings?$AA@ 00445e74     BWAPI:GameType.obj
 0002:00002e88       ??_C@_06KJHDEABF@Ladder?$AA@ 00445e88     BWAPI:GameType.obj
 0002:00002e90       ??_C@_0N@GEFGBLGK@Sudden?5Death?$AA@ 00445e90     BWAPI:GameType.obj
 0002:00002ea0       ??_C@_09FNOLKBMB@Slaughter?$AA@ 00445ea0     BWAPI:GameType.obj
 0002:00002eac       ??_C@_05JMAHHHHO@Greed?$AA@ 00445eac     BWAPI:GameType.obj
 0002:00002eb4       ??_C@_0BB@GMHGFHKF@Capture?5The?5Flag?$AA@ 00445eb4     BWAPI:GameType.obj
 0002:00002ec8       ??_C@_0L@OGBBHNMF@One?5on?5One?$AA@ 00445ec8     BWAPI:GameType.obj
 0002:00002ed4       ??_C@_0N@PCEMCJC@Free?5For?5All?$AA@ 00445ed4     BWAPI:GameType.obj
 0002:00002ee4       ??_C@_05ILEPGBEB@Melee?$AA@ 00445ee4     BWAPI:GameType.obj
 0002:00002eec       ??_C@_0BC@HOFHKGJN@Invalid?5Parameter?$AA@ 00445eec     BWAPI:Error.obj
 0002:00002f00       ??_C@_0P@HJNGBKMO@File?5Not?5Found?$AA@ 00445f00     BWAPI:Error.obj
 0002:00002f10       ??_C@_0O@NFHOBIDO@Access?5Denied?$AA@ 00445f10     BWAPI:Error.obj
 0002:00002f20       ??_C@_0O@FLODNLFL@Unable?5To?5Hit?$AA@ 00445f20     BWAPI:Error.obj
 0002:00002f30       ??_C@_0N@GENEEAKG@Out?5Of?5Range?$AA@ 00445f30     BWAPI:Error.obj
 0002:00002f40       ??_C@_0BF@FKPOJOEC@Unreachable?5Location?$AA@ 00445f40     BWAPI:Error.obj
 0002:00002f58       ??_C@_0BF@EKBAHIBA@Unbuildable?5Location?$AA@ 00445f58     BWAPI:Error.obj
 0002:00002f70       ??_C@_0BG@HHGCNFPL@Invalid?5Tile?5Position?$AA@ 00445f70     BWAPI:Error.obj
 0002:00002f88       ??_C@_0BD@NFCCCGKG@Insufficient?5Space?$AA@ 00445f88     BWAPI:Error.obj
 0002:00002f9c       ??_C@_0BC@GCEDCKDN@Insufficient?5Ammo?$AA@ 00445f9c     BWAPI:Error.obj
 0002:00002fb0       ??_C@_0BC@EKCIKBON@Insufficient?5Tech?$AA@ 00445fb0     BWAPI:Error.obj
 0002:00002fc4       ??_C@_0BE@OCOOGOAP@Insufficient?5Energy?$AA@ 00445fc4     BWAPI:Error.obj
 0002:00002fd8       ??_C@_0BE@IBKNAKDL@Insufficient?5Supply?$AA@ 00445fd8     BWAPI:Error.obj
 0002:00002fec       ??_C@_0BB@LLAKAHPC@Insufficient?5Gas?$AA@ 00445fec     BWAPI:Error.obj
 0002:00003000       ??_C@_0BG@PICJAAFF@Insufficient?5Minerals?$AA@ 00446000     BWAPI:Error.obj
 0002:00003018       ??_C@_0BE@GLCNCKNL@Currently?5Upgrading?$AA@ 00446018     BWAPI:Error.obj
 0002:0000302c       ??_C@_0BG@FGFFCCEI@Currently?5Researching?$AA@ 0044602c     BWAPI:Error.obj
 0002:00003044       ??_C@_0P@BODHHBPM@Fully?5Upgraded?$AA@ 00446044     BWAPI:Error.obj
 0002:00003054       ??_C@_0BD@LOMELCKO@Already?5Researched?$AA@ 00446054     BWAPI:Error.obj
 0002:00003068       ??_C@_0BD@CCDCCMCM@Incompatible?5State?$AA@ 00446068     BWAPI:Error.obj
 0002:0000307c       ??_C@_0BG@DBEHIDKP@Incompatible?5TechType?$AA@ 0044607c     BWAPI:Error.obj
 0002:00003094       ??_C@_0BG@KLDCBGBE@Incompatible?5UnitType?$AA@ 00446094     BWAPI:Error.obj
 0002:000030ac       ??_C@_09NBFOIFBM@Unit?5Busy?$AA@ 004460ac     BWAPI:Error.obj
 0002:000030b8       ??_C@_0P@DPEEOFEM@Unit?5Not?5Owned?$AA@ 004460b8     BWAPI:Error.obj
 0002:000030c8       ??_C@_0BB@NOCNOKBH@Unit?5Not?5Visible?$AA@ 004460c8     BWAPI:Error.obj
 0002:000030dc       ??_C@_0BE@JLINNMOE@Unit?5Does?5Not?5Exist?$AA@ 004460dc     BWAPI:Error.obj
 0002:000030f0       ??_C@_0BE@LKLPGEAD@Corrosive?5Acid?5Shot?$AA@ 004460f0     BWAPI:BulletType.obj
 0002:00003104       ??_C@_0BG@MNGJDJBI@Optical?5Flare?5Grenade?$AA@ 00446104     BWAPI:BulletType.obj
 0002:0000311c       ??_C@_09EPJGIIIJ@Invisible?$AA@ 0044611c     BWAPI:BulletType.obj
 0002:00003128       ??_C@_0BB@FCCGDAFF@Needle?5Spine?5Hit?$AA@ 00446128     BWAPI:BulletType.obj
 0002:0000313c       ??_C@_0N@HOFKOJGO@Plague?5Cloud?$AA@ 0044613c     BWAPI:BulletType.obj
 0002:0000314c       ??_C@_0BE@LNAPDHI@Queen?5Spell?5Carrier?$AA@ 0044614c     BWAPI:BulletType.obj
 0002:00003160       ??_C@_0BH@MKINOJPD@Sunken?5Colony?5Tentacle?$AA@ 00446160     BWAPI:BulletType.obj
 0002:00003178       ??_C@_0BH@MOBCJOKF@STA?5STS?5Cannon?5Overlay?$AA@ 00446178     BWAPI:BulletType.obj
 0002:00003190       ??_C@_0BG@JFLFLNLN@Psionic?5Shockwave?5Hit?$AA@ 00446190     BWAPI:BulletType.obj
 0002:000031a8       ??_C@_0BE@DKFBNCKP@Anti?9Matter?5Missile?$AA@ 004461a8     BWAPI:BulletType.obj
 0002:000031bc       ??_C@_0BC@JMKLLKOI@Particle?5Beam?5Hit?$AA@ 004461bc     BWAPI:BulletType.obj
 0002:000031d0       ??_C@_0BJ@PNEAFLEP@Dual?5Photon?5Blasters?5Hit?$AA@ 004461d0     BWAPI:BulletType.obj
 0002:000031ec       ??_C@_0M@IKMIIHCG@EMP?5Missile?$AA@ 004461ec     BWAPI:BulletType.obj
 0002:000031f8       ??_C@_0BJ@EIPOAGAD@Arclite?5Shock?5Cannon?5Hit?$AA@ 004461f8     BWAPI:BulletType.obj
 0002:00003214       ??_C@_0BG@NKJHAPLH@ATS?5ATA?5Laser?5Battery?$AA@ 00446214     BWAPI:BulletType.obj
 0002:0000322c       ??_C@_0BI@BOEOJHAI@C?910?5Canister?5Rifle?5Hit?$AA@ 0044622c     BWAPI:BulletType.obj
 0002:00003244       ??_C@_0BA@FLACFGNK@Gauss?5Rifle?5Hit?$AA@ 00446244     BWAPI:BulletType.obj
 0002:00003254       ??_C@_0BC@JOEPFNIE@Fusion?5Cutter?5Hit?$AA@ 00446254     BWAPI:BulletType.obj
 0002:00003268       ??_C@_09GIANEELL@Place?5COP?$AA@ 00446268     BWAPI:UnitCommandType.obj
 0002:00003274       ??_C@_0O@NMHKGJKO@Use?5Tech?5Unit?$AA@ 00446274     BWAPI:UnitCommandType.obj
 0002:00003284       ??_C@_0BC@LIFFDCLM@Use?5Tech?5Position?$AA@ 00446284     BWAPI:UnitCommandType.obj
 0002:00003298       ??_C@_08PLBAOFID@Use?5Tech?$AA@ 00446298     BWAPI:UnitCommandType.obj
 0002:000032a4       ??_C@_0P@JCILHKMO@Cancel?5Upgrade?$AA@ 004462a4     BWAPI:UnitCommandType.obj
 0002:000032b4       ??_C@_0BA@HNONCJOL@Cancel?5Research?$AA@ 004462b4     BWAPI:UnitCommandType.obj
 0002:000032c4       ??_C@_0N@LFADDGHH@Cancel?5Morph?$AA@ 004462c4     BWAPI:UnitCommandType.obj
 0002:000032d4       ??_C@_0BC@JGPDCGOH@Cancel?5Train?5Slot?$AA@ 004462d4     BWAPI:UnitCommandType.obj
 0002:000032e8       ??_C@_0N@OKLPBBP@Cancel?5Train?$AA@ 004462e8     BWAPI:UnitCommandType.obj
 0002:000032f8       ??_C@_0N@IBEDIMJF@Cancel?5Addon?$AA@ 004462f8     BWAPI:UnitCommandType.obj
 0002:00003308       ??_C@_0BE@EFOFLOJA@Cancel?5Construction?$AA@ 00446308     BWAPI:UnitCommandType.obj
 0002:0000331c       ??_C@_0BC@NKICNEIM@Halt?5Construction?$AA@ 0044631c     BWAPI:UnitCommandType.obj
 0002:00003330       ??_C@_0BB@MLFBGNBB@Right?5Click?5Unit?$AA@ 00446330     BWAPI:UnitCommandType.obj
 0002:00003344       ??_C@_0BF@POOLMAC@Right?5Click?5Position?$AA@ 00446344     BWAPI:UnitCommandType.obj
 0002:0000335c       ??_C@_0BE@OIOJPEE@Unload?5All?5Position?$AA@ 0044635c     BWAPI:UnitCommandType.obj
 0002:00003370       ??_C@_0L@DFGLMHLP@Unload?5All?$AA@ 00446370     BWAPI:UnitCommandType.obj
 0002:0000337c       ??_C@_06FGIDPKBG@Unload?$AA@ 0044637c     BWAPI:UnitCommandType.obj
 0002:00003384       ??_C@_04IPBPFFEL@Load?$AA@ 00446384     BWAPI:UnitCommandType.obj
 0002:0000338c       ??_C@_04GEJMGFEF@Land?$AA@ 0044638c     BWAPI:UnitCommandType.obj
 0002:00003394       ??_C@_04OFPJAOED@Lift?$AA@ 00446394     BWAPI:UnitCommandType.obj
 0002:0000339c       ??_C@_07BMOMMFKJ@Unsiege?$AA@ 0044639c     BWAPI:UnitCommandType.obj
 0002:000033a4       ??_C@_05JOPHEEP@Siege?$AA@ 004463a4     BWAPI:UnitCommandType.obj
 0002:000033ac       ??_C@_07JAHPJMFF@Decloak?$AA@ 004463ac     BWAPI:UnitCommandType.obj
 0002:000033b4       ??_C@_05DHGKEIPM@Cloak?$AA@ 004463b4     BWAPI:UnitCommandType.obj
 0002:000033bc       ??_C@_08MCEFCEML@Unburrow?$AA@ 004463bc     BWAPI:UnitCommandType.obj
 0002:000033c8       ??_C@_06ILDJGADH@Burrow?$AA@ 004463c8     BWAPI:UnitCommandType.obj
 0002:000033d0       ??_C@_06KOKHNNIE@Repair?$AA@ 004463d0     BWAPI:UnitCommandType.obj
 0002:000033d8       ??_C@_0N@OAOLMLFB@Return?5Cargo?$AA@ 004463d8     BWAPI:UnitCommandType.obj
 0002:000033e8       ??_C@_06IBECDMNF@Gather?$AA@ 004463e8     BWAPI:UnitCommandType.obj
 0002:000033f0       ??_C@_06LCCNGMJG@Follow?$AA@ 004463f0     BWAPI:UnitCommandType.obj
 0002:000033f8       ??_C@_04MOIHHPNJ@Stop?$AA@ 004463f8     BWAPI:UnitCommandType.obj
 0002:00003400       ??_C@_0O@IMEEPEIA@Hold?5Position?$AA@ 00446400     BWAPI:UnitCommandType.obj
 0002:00003410       ??_C@_06MFEJJDGH@Patrol?$AA@ 00446410     BWAPI:UnitCommandType.obj
 0002:00003418       ??_C@_04LCANPIEP@Move?$AA@ 00446418     BWAPI:UnitCommandType.obj
 0002:00003420       ??_C@_0P@KHCNIOAK@Set?5Rally?5Unit?$AA@ 00446420     BWAPI:UnitCommandType.obj
 0002:00003430       ??_C@_0BD@OENMBJOM@Set?5Rally?5Position?$AA@ 00446430     BWAPI:UnitCommandType.obj
 0002:00003444       ??_C@_07CJFOONCK@Upgrade?$AA@ 00446444     BWAPI:UnitCommandType.obj
 0002:0000344c       ??_C@_08NKDBNKBN@Research?$AA@ 0044644c     BWAPI:UnitCommandType.obj
 0002:00003458       ??_C@_05NOHKEGJK@Morph?$AA@ 00446458     BWAPI:UnitCommandType.obj
 0002:00003460       ??_C@_05GFNCIBPC@Train?$AA@ 00446460     BWAPI:UnitCommandType.obj
 0002:00003468       ??_C@_0M@HPLJIGLN@Build?5Addon?$AA@ 00446468     BWAPI:UnitCommandType.obj
 0002:00003474       ??_C@_05DLONLOOK@Build?$AA@ 00446474     BWAPI:UnitCommandType.obj
 0002:0000347c       ??_C@_0M@CCILGFNM@Attack?5Unit?$AA@ 0044647c     BWAPI:UnitCommandType.obj
 0002:00003488       ??_C@_0M@IOAEBJKH@Attack?5Move?$AA@ 00446488     BWAPI:UnitCommandType.obj
 0002:00003494       ??_C@_0N@FMLLIGKH@ComputerLeft?$AA@ 00446494     BWAPI:PlayerType.obj
 0002:000034a4       ??_C@_0L@NGIMBOAE@PlayerLeft?$AA@ 004464a4     BWAPI:PlayerType.obj
 0002:000034b0       ??_C@_06EFCDMIMC@Closed?$AA@ 004464b0     BWAPI:PlayerType.obj
 0002:000034b8       ??_C@_07GJJCKENN@Neutral?$AA@ 004464b8     BWAPI:PlayerType.obj
 0002:000034c0       ??_C@_0BC@EIJGGKDA@EitherPreferHuman?$AA@ 004464c0     BWAPI:PlayerType.obj
 0002:000034d4       ??_C@_0BF@KFMJLBGD@EitherPreferComputer?$AA@ 004464d4     BWAPI:PlayerType.obj
 0002:000034ec       ??_C@_0O@CCHAKLCB@RescuePassive?$AA@ 004464ec     BWAPI:PlayerType.obj
 0002:000034fc       ??_C@_06NPAAKFED@Player?$AA@ 004464fc     BWAPI:PlayerType.obj
 0002:00003504       ??_C@_08JABLAMKL@Computer?$AA@ 00446504     BWAPI:PlayerType.obj
 0002:00003510       ??_C@_05FHGOFLKH@Fatal?$AA@ 00446510     BWAPI:Order.obj
 0002:00003518       ??_C@_0M@PAKCNPOG@JunkYardDog?$AA@ 00446518     BWAPI:Order.obj
 0002:00003524       ??_C@_0O@PKJNHMIF@CastMaelstrom?$AA@ 00446524     BWAPI:Order.obj
 0002:00003534       ??_C@_0BB@OKKGJAFM@CastOpticalFlare?$AA@ 00446534     BWAPI:Order.obj
 0002:00003548       ??_C@_0N@IMBPMGN@CastFeedback?$AA@ 00446548     BWAPI:Order.obj
 0002:00003558       ??_C@_0P@NKEMENHN@DarkArchonMeld?$AA@ 00446558     BWAPI:Order.obj
 0002:00003568       ??_C@_0BA@OHDFADGL@CastMindControl?$AA@ 00446568     BWAPI:Order.obj
 0002:00003578       ??_C@_0BC@CEJBPBLA@CastDisruptionWeb?$AA@ 00446578     BWAPI:Order.obj
 0002:0000358c       ??_C@_0BA@BJLCBNG@CastRestoration?$AA@ 0044658c     BWAPI:Order.obj
 0002:0000359c       ??_C@_0L@FHOBGOOA@MedicHeal2?$AA@ 0044659c     BWAPI:Order.obj
 0002:000035a8       ??_C@_08DNJAJMEM@HealMove?$AA@ 004465a8     BWAPI:Order.obj
 0002:000035b4       ??_C@_0L@HMMMDNCD@MedicHeal1?$AA@ 004465b4     BWAPI:Order.obj
 0002:000035c0       ??_C@_05BBLLBHEM@Medic?$AA@ 004465c0     BWAPI:Order.obj
 0002:000035c8       ??_C@_06BDBMIOPC@Warpin?$AA@ 004465c8     BWAPI:Order.obj
 0002:000035d0       ??_C@_0O@KLAOGGLP@Disabledoodad?$AA@ 004465d0     BWAPI:Order.obj
 0002:000035e0       ??_C@_0N@JGKHDPAM@Enabledoodad?$AA@ 004465e0     BWAPI:Order.obj
 0002:000035f0       ??_C@_0L@KAKOKAMP@RevealTrap?$AA@ 004465f0     BWAPI:Order.obj
 0002:000035fc       ??_C@_08POFHNODM@HideTrap?$AA@ 004465fc     BWAPI:Order.obj
 0002:00003608       ??_C@_09MPGJDBGH@CloseDoor?$AA@ 00446608     BWAPI:Order.obj
 0002:00003614       ??_C@_08MPEJDFMK@OpenDoor?$AA@ 00446614     BWAPI:Order.obj
 0002:00003620       ??_C@_09JLDMPKEG@HiddenGun?$AA@ 00446620     BWAPI:Order.obj
 0002:0000362c       ??_C@_07NCNJBJHD@Critter?$AA@ 0044662c     BWAPI:Order.obj
 0002:00003634       ??_C@_0P@IMKKAPFH@SelfDestrucing?$AA@ 00446634     BWAPI:Order.obj
 0002:00003644       ??_C@_0P@NMOLOOID@ComputerReturn?$AA@ 00446644     BWAPI:Order.obj
 0002:00003654       ??_C@_09GIEGGDME@GuardPost?$AA@ 00446654     BWAPI:Order.obj
 0002:00003660       ??_C@_08EBBHJGDF@AIPatrol?$AA@ 00446660     BWAPI:Order.obj
 0002:0000366c       ??_C@_0L@NPCENHPF@HarassMove?$AA@ 0044666c     BWAPI:Order.obj
 0002:00003678       ??_C@_09CHDNHMDE@AtkMoveEP?$AA@ 00446678     BWAPI:Order.obj
 0002:00003684       ??_C@_0L@BEKGKKKJ@ComputerAI?$AA@ 00446684     BWAPI:Order.obj
 0002:00003690       ??_C@_07GOLMNBHO@CTFCOP2?$AA@ 00446690     BWAPI:Order.obj
 0002:00003698       ??_C@_0O@HPFMIGLO@CTFCOPStarted?$AA@ 00446698     BWAPI:Order.obj
 0002:000036a8       ??_C@_0L@FNDFFDHO@CTFCOPInit?$AA@ 004466a8     BWAPI:Order.obj
 0002:000036b4       ??_C@_0P@KNCOLFFP@ResetCollision?$AA@ 004466b4     BWAPI:Order.obj
 0002:000036c4       ??_C@_0P@OALFOLJB@Hallucination2?$AA@ 004466c4     BWAPI:Order.obj
 0002:000036d4       ??_C@_0BC@MALDOBGL@CastHallucination?$AA@ 004466d4     BWAPI:Order.obj
 0002:000036e8       ??_C@_0BA@OCMCMHEL@CastStasisField?$AA@ 004466e8     BWAPI:Order.obj
 0002:000036f8       ??_C@_0M@DPJJEHOC@CastEnsnare?$AA@ 004466f8     BWAPI:Order.obj
 0002:00003704       ??_C@_0M@LALICDCC@CastConsume?$AA@ 00446704     BWAPI:Order.obj
 0002:00003710       ??_C@_0L@BADDLMEB@CastPlague?$AA@ 00446710     BWAPI:Order.obj
 0002:0000371c       ??_C@_0O@GNDHKEEB@CastIrradiate?$AA@ 0044671c     BWAPI:Order.obj
 0002:0000372c       ??_C@_0BB@JJFMPGJD@CastPsionicStorm?$AA@ 0044672c     BWAPI:Order.obj
 0002:00003740       ??_C@_0BE@BFGBIKEK@CastDefensiveMatrix?$AA@ 00446740     BWAPI:Order.obj
 0002:00003754       ??_C@_07JGGMAFJH@Scanner?$AA@ 00446754     BWAPI:Order.obj
 0002:0000375c       ??_C@_0BB@CFJBDMLC@CastScannerSweep?$AA@ 0044675c     BWAPI:Order.obj
 0002:00003770       ??_C@_0BD@MBPFDKKD@TeleporttoLocation?$AA@ 00446770     BWAPI:Order.obj
 0002:00003784       ??_C@_0L@DNDNNDKK@CastRecall?$AA@ 00446784     BWAPI:Order.obj
 0002:00003790       ??_C@_0BB@BGMMFEOD@RightClickAction?$AA@ 00446790     BWAPI:Order.obj
 0002:000037a4       ??_C@_09FNJOFGHM@PlaceMine?$AA@ 004467a4     BWAPI:Order.obj
 0002:000037b0       ??_C@_0BB@NAOLAJEO@CloakNearbyUnits?$AA@ 004467b0     BWAPI:Order.obj
 0002:000037c4       ??_C@_09CJDCFHJC@NukeTrack?$AA@ 004467c4     BWAPI:Order.obj
 0002:000037d0       ??_C@_0BC@OHMAKOPO@CastNuclearStrike?$AA@ 004467d0     BWAPI:Order.obj
 0002:000037e4       ??_C@_08BNMBKGBA@NukeUnit?$AA@ 004467e4     BWAPI:Order.obj
 0002:000037f0       ??_C@_09JFNFENPE@NukePaint?$AA@ 004467f0     BWAPI:Order.obj
 0002:000037fc       ??_C@_0L@LGGDLCL@NukeLaunch?$AA@ 004467fc     BWAPI:Order.obj
 0002:00003808       ??_C@_09FJNCCGAB@NukeTrain?$AA@ 00446808     BWAPI:Order.obj
 0002:00003814       ??_C@_08DPGCOFCG@NukeWait?$AA@ 00446814     BWAPI:Order.obj
 0002:00003820       ??_C@_0BB@NJHHMLJF@CastEMPShockwave?$AA@ 00446820     BWAPI:Order.obj
 0002:00003834       ??_C@_0BE@OCKLPCFB@CastSpawnBroodlings?$AA@ 00446834     BWAPI:Order.obj
 0002:00003848       ??_C@_0N@LODLPEDJ@CastParasite?$AA@ 00446848     BWAPI:Order.obj
 0002:00003858       ??_C@_0O@KDAPOGEH@CastDarkSwarm?$AA@ 00446858     BWAPI:Order.obj
 0002:00003868       ??_C@_0M@EEHPIOBJ@Unburrowing?$AA@ 00446868     BWAPI:Order.obj
 0002:00003874       ??_C@_08JCDIONDN@Burrowed?$AA@ 00446874     BWAPI:Order.obj
 0002:00003880       ??_C@_0N@JHGOJAKO@CastLockdown?$AA@ 00446880     BWAPI:Order.obj
 0002:00003890       ??_C@_0O@LLMLCGNL@FireYamatoGun?$AA@ 00446890     BWAPI:Order.obj
 0002:000038a0       ??_C@_0L@IGOKILBB@MoveUnload?$AA@ 004468a0     BWAPI:Order.obj
 0002:000038ac       ??_C@_0N@LEGKPLMA@HoldPosition?$AA@ 004468ac     BWAPI:Order.obj
 0002:000038bc       ??_C@_0BH@CKANMBBA@CompletingArchonsummon?$AA@ 004468bc     BWAPI:Order.obj
 0002:000038d4       ??_C@_0L@CJABMPKF@ArchonWarp?$AA@ 004468d4     BWAPI:Order.obj
 0002:000038e0       ??_C@_0P@NEKKILFO@GuardianAspect?$AA@ 004468e0     BWAPI:Order.obj
 0002:000038f0       ??_C@_0BE@JDOGBPE@StoppingCreepGrowth?$AA@ 004468f0     BWAPI:Order.obj
 0002:00003904       ??_C@_0M@NBBIAGGD@SpreadCreep?$AA@ 00446904     BWAPI:Order.obj
 0002:00003910       ??_C@_0BA@KPADNNLJ@InitCreepGrowth?$AA@ 00446910     BWAPI:Order.obj
 0002:00003920       ??_C@_09LGOIIJIB@Unsieging?$AA@ 00446920     BWAPI:Order.obj
 0002:0000392c       ??_C@_07CKKELPC@Sieging?$AA@ 0044692c     BWAPI:Order.obj
 0002:00003934       ??_C@_0M@JKPLMIAC@PowerupIdle?$AA@ 00446934     BWAPI:Order.obj
 0002:00003940       ??_C@_07CGNCKMH@Pickup4?$AA@ 00446940     BWAPI:Order.obj
 0002:00003948       ??_C@_0N@KLOEJDJC@PickupBunker?$AA@ 00446948     BWAPI:Order.obj
 0002:00003958       ??_C@_0BA@BGHJGHJP@PickupTransport?$AA@ 00446958     BWAPI:Order.obj
 0002:00003968       ??_C@_0L@CEMJLIIG@PickupIdle?$AA@ 00446968     BWAPI:Order.obj
 0002:00003974       ??_C@_0P@FIIBCHLK@EnterTransport?$AA@ 00446974     BWAPI:Order.obj
 0002:00003984       ??_C@_0M@FOHLFDDH@Interrupted?$AA@ 00446984     BWAPI:Order.obj
 0002:00003990       ??_C@_0P@IPBHLKNB@ReturnMinerals?$AA@ 00446990     BWAPI:Order.obj
 0002:000039a0       ??_C@_08GPLABIB@Harvest4?$AA@ 004469a0     BWAPI:Order.obj
 0002:000039ac       ??_C@_08EJLKJHEG@Harvest3?$AA@ 004469ac     BWAPI:Order.obj
 0002:000039b8       ??_C@_0P@GKLLGKGJ@MiningMinerals?$AA@ 004469b8     BWAPI:Order.obj
 0002:000039c8       ??_C@_0BA@ENLHJEKJ@WaitForMinerals?$AA@ 004469c8     BWAPI:Order.obj
 0002:000039d8       ??_C@_0P@KAGFEKIF@MoveToMinerals?$AA@ 004469d8     BWAPI:Order.obj
 0002:000039e8       ??_C@_09KAGOLLB@ReturnGas?$AA@ 004469e8     BWAPI:Order.obj
 0002:000039f4       ??_C@_0L@GBBCBLDH@HarvestGas?$AA@ 004469f4     BWAPI:Order.obj
 0002:00003a00       ??_C@_0L@DFKNOEKK@WaitForGas?$AA@ 00446a00     BWAPI:Order.obj
 0002:00003a0c       ??_C@_09IAODOPGC@MoveToGas?$AA@ 00446a0c     BWAPI:Order.obj
 0002:00003a18       ??_C@_08FAKBKGAH@Harvest2?$AA@ 00446a18     BWAPI:Order.obj
 0002:00003a24       ??_C@_08HLIMPFME@Harvest1?$AA@ 00446a24     BWAPI:Order.obj
 0002:00003a30       ??_C@_0O@COMOACMK@SpawningLarva?$AA@ 00446a30     BWAPI:Order.obj
 0002:00003a40       ??_C@_05HPFJOMKF@Larva?$AA@ 00446a40     BWAPI:Order.obj
 0002:00003a48       ??_C@_0N@KEOIPJDA@ResearchTech?$AA@ 00446a48     BWAPI:Order.obj
 0002:00003a58       ??_C@_0L@NJPDHCFM@LiftingOff?$AA@ 00446a58     BWAPI:Order.obj
 0002:00003a64       ??_C@_0N@FBFBIIPJ@DroneLiftOff?$AA@ 00446a64     BWAPI:Order.obj
 0002:00003a74       ??_C@_0BA@MAALHALI@BuildingLiftOff?$AA@ 00446a74     BWAPI:Order.obj
 0002:00003a84       ??_C@_0N@CMODCJPP@BuildingLand?$AA@ 00446a84     BWAPI:Order.obj
 0002:00003a94       ??_C@_0BC@OGGIAMHJ@InterceptorReturn?$AA@ 00446a94     BWAPI:Order.obj
 0002:00003aa8       ??_C@_0O@BKMLFB@ShieldBattery?$AA@ 00446aa8     BWAPI:Order.obj
 0002:00003ab8       ??_C@_0BH@IKIPPKEC@RechargeShieldsBattery?$AA@ 00446ab8     BWAPI:Order.obj
 0002:00003ad0       ??_C@_0BE@CJPLACAN@RechargeShieldsUnit?$AA@ 00446ad0     BWAPI:Order.obj
 0002:00003ae4       ??_C@_0N@JAKIFCCA@ScarabAttack?$AA@ 00446ae4     BWAPI:Order.obj
 0002:00003af4       ??_C@_0BC@MHDMKGNO@InterceptorAttack?$AA@ 00446af4     BWAPI:Order.obj
 0002:00003b08       ??_C@_0N@CDOHCDMD@TrainFighter?$AA@ 00446b08     BWAPI:Order.obj
 0002:00003b18       ??_C@_06DHPDPFPE@Reaver?$AA@ 00446b18     BWAPI:Order.obj
 0002:00003b20       ??_C@_0P@BKGMJIL@CarrierIgnore2?$AA@ 00446b20     BWAPI:Order.obj
 0002:00003b30       ??_C@_0BC@MOFCOALD@ReaverCarrierMove?$AA@ 00446b30     BWAPI:Order.obj
 0002:00003b44       ??_C@_07MAMNBHJK@Carrier?$AA@ 00446b44     BWAPI:Order.obj
 0002:00003b4c       ??_C@_0BA@KHLCEK@EnterNydusCanal?$AA@ 00446b4c     BWAPI:Order.obj
 0002:00003b5c       ??_C@_0P@OJFHIAHB@BuildNydusExit?$AA@ 00446b5c     BWAPI:Order.obj
 0002:00003b6c       ??_C@_0BD@OBPJGJPF@IncompleteBuilding?$AA@ 00446b6c     BWAPI:Order.obj
 0002:00003b80       ??_C@_0BC@MDDPFLDI@ZergBuildingMorph?$AA@ 00446b80     BWAPI:Order.obj
 0002:00003b94       ??_C@_0O@PFGCCCPH@ZergUnitMorph?$AA@ 00446b94     BWAPI:Order.obj
 0002:00003ba4       ??_C@_09ONILFGAK@ZergBirth?$AA@ 00446ba4     BWAPI:Order.obj
 0002:00003bb0       ??_C@_0P@EPDFJOFI@RallyPointTile?$AA@ 00446bb0     BWAPI:Order.obj
 0002:00003bc0       ??_C@_0P@LKJAGOKK@RallyPointUnit?$AA@ 00446bc0     BWAPI:Order.obj
 0002:00003bd0       ??_C@_0L@KGEGOIDI@BuildAddon?$AA@ 00446bd0     BWAPI:Order.obj
 0002:00003bdc       ??_C@_0L@EPOIIEBA@PlaceAddon?$AA@ 00446bdc     BWAPI:Order.obj
 0002:00003be8       ??_C@_0BF@PNBHODFJ@ConstructingBuilding?$AA@ 00446be8     BWAPI:Order.obj
 0002:00003c00       ??_C@_0O@LGDEEFEJ@BuildProtoss2?$AA@ 00446c00     BWAPI:Order.obj
 0002:00003c10       ??_C@_0O@OHKMDBEG@PlaceBuilding?$AA@ 00446c10     BWAPI:Order.obj
 0002:00003c20       ??_C@_0BH@LLACIADD@InfestingCommandCenter?$AA@ 00446c20     BWAPI:Order.obj
 0002:00003c38       ??_C@_0BA@GNMIOCKA@CastInfestation?$AA@ 00446c38     BWAPI:Order.obj
 0002:00003c48       ??_C@_08MMFNFEF@Nothing3?$AA@ 00446c48     BWAPI:Order.obj
 0002:00003c54       ??_C@_07MMBOBMNN@Nothing?$AA@ 00446c54     BWAPI:Order.obj
 0002:00003c5c       ??_C@_0M@MFHNNDEM@VultureMine?$AA@ 00446c5c     BWAPI:Order.obj
 0002:00003c68       ??_C@_0L@PNNMKJBJ@TowerGuard?$AA@ 00446c68     BWAPI:Order.obj
 0002:00003c74       ??_C@_0O@EHIPJJHI@UnusedPowerup?$AA@ 00446c74     BWAPI:Order.obj
 0002:00003c84       ??_C@_0O@MCFCBEOH@UnusedNothing?$AA@ 00446c84     BWAPI:Order.obj
 0002:00003c94       ??_C@_0BG@LJGPAMLM@InfestedCommandCenter?$AA@ 00446c94     BWAPI:Order.obj
 0002:00003cac       ??_C@_0L@JOKPMGGO@AttackMove?$AA@ 00446cac     BWAPI:Order.obj
 0002:00003cb8       ??_C@_05KLBFNLDO@Hover?$AA@ 00446cb8     BWAPI:Order.obj
 0002:00003cc0       ??_C@_0L@MHIFEKOH@AttackTile?$AA@ 00446cc0     BWAPI:Order.obj
 0002:00003ccc       ??_C@_0L@DCCALKBF@AttackUnit?$AA@ 00446ccc     BWAPI:Order.obj
 0002:00003cd8       ??_C@_0M@NDPCHNLJ@BunkerGuard?$AA@ 00446cd8     BWAPI:Order.obj
 0002:00003ce4       ??_C@_0M@GOPGJFND@TurretGuard?$AA@ 00446ce4     BWAPI:Order.obj
 0002:00003cf0       ??_C@_0M@JFFHMFOO@PlayerGuard?$AA@ 00446cf0     BWAPI:Order.obj
 0002:00003cfc       ??_C@_05LICMIJMM@Guard?$AA@ 00446cfc     BWAPI:Order.obj
 0002:00003d04       ??_C@_03JFEBIAME@Die?$AA@  00446d04     BWAPI:Order.obj
 0002:00003d0c       ??_7type_info@@6B@         00446d0c     MSVCRT:ti_inst.obj
 0002:000043c4       ??_C@_0CL@JOHPKLHG@Returning?5a?5bad?5unit?0?5check?5this@ 004473c4     AlphaBeta.obj
 0002:000043f0       ??_C@_0BO@JGBPFJOF@WTF?5TOO?5MANY?5TUPLES?5?$CFd?5?$CFd?5?$CFd?6?$AA@ 004473f0     AlphaBeta.obj
 0002:00004410       ?default_seed@?$mersenne_twister_engine@I$0CA@$0CHA@$0BIN@$0BP@$0JJAILANP@$0L@$0PPPPPPPP@$06$0JNCMFGIA@$0P@$0OPMGAAAA@$0BC@$0GMAHIJGF@@random@boost@@2IB 00447410     AlphaBeta.obj
 0002:00004414       ??_C@_0CO@GJNDGAH@Array?5?$FL?$FN?5Error?3?5index?5?$DO?$DN?5elem?5tr@ 00447414     AlphaBeta.obj
 0002:00004444       ??_C@_0DE@CEAEJPHF@Array?5const?5?$FL?$FN?5Error?3?5index?5?$DO?$DN?5e@ 00447444     AlphaBeta.obj
 0002:00004478       ??_C@_0BD@OLBABOEK@vector?$DMT?$DO?5too?5long?$AA@ 00447478     AlphaBeta.obj
 0002:00004490       ??_7bad_alloc@std@@6B@     00447490     AlphaBeta.obj
 0002:0000449c       ??_7logic_error@std@@6B@   0044749c     AlphaBeta.obj
 0002:000044a8       ??_7length_error@std@@6B@  004474a8     AlphaBeta.obj
 0002:000044b4       ??_7sp_counted_base@detail@boost@@6B@ 004474b4     AlphaBeta.obj
 0002:000044cc       ??_7?$sp_counted_impl_p@VTranspositionTable@MicroSearch@@@detail@boost@@6B@ 004474cc     AlphaBeta.obj
 0002:000044e4       ??_7?$sp_counted_impl_p@VPlayer_NOK_AttackDPS@MicroSearch@@@detail@boost@@6B@ 004474e4     AlphaBeta.obj
 0002:000044f8       ??_C@_0CO@GELGNEEN@Unit?5Move?5Incorrect?$CB?5Something?5w@ 004474f8     Game.obj
 0002:00004528       ??_C@_06JIJKOHKJ@ATTACK?$AA@ 00447528     GameState.obj
 0002:00004530       ??_C@_04LPPGDFDD@MOVE?$AA@ 00447530     GameState.obj
 0002:00004538       ??_C@_06DCHFNDBF@RELOAD?$AA@ 00447538     GameState.obj
 0002:00004540       ??_C@_04NNAKGGAP@PASS?$AA@ 00447540     GameState.obj
 0002:00004548       ??_C@_04NAAAFEJL@HEAL?$AA@ 00447548     GameState.obj
 0002:00004550       ??_C@_04OKGDLNCL@NONE?$AA@ 00447550     GameState.obj
 0002:0000455c       ??_7?$sp_counted_impl_p@VPlayer@MicroSearch@@@detail@boost@@6B@ 0044755c     GameState.obj
 0002:00004574       ??_7Player_AlphaBeta@MicroSearch@@6B@ 00447574     Player.obj
 0002:00004588       ??_7Player_AttackClosest@MicroSearch@@6B@ 00447588     Player.obj
 0002:00004598       ??_7Player_AttackWeakest@MicroSearch@@6B@ 00447598     Player.obj
 0002:000045a8       ??_7Player_Kiter@MicroSearch@@6B@ 004475a8     Player.obj
 0002:000045b8       ??_7Player_KiterDPS@MicroSearch@@6B@ 004475b8     Player.obj
 0002:000045c8       ??_7Player_AttackDPS@MicroSearch@@6B@ 004475c8     Player.obj
 0002:000045d8       ??_7Player_NOK_AttackDPS@MicroSearch@@6B@ 004475d8     Player.obj
 0002:000045e8       ??_7Player_Random@MicroSearch@@6B@ 004475e8     Player.obj
 0002:000045f4       ??_C@_0P@PIFDBJMP@Loading?5map?4?4?6?$AA@ 004475f4     test.obj
 0002:00004604       ??_C@_0BI@FJBPHIDH@Loading?5map?5complete?4?4?6?$AA@ 00447604     test.obj
 0002:0000461c       ??_C@_0BG@EOMJEIFA@vector?$DMbool?$DO?5too?5long?$AA@ 0044761c     test.obj
 0002:00004638       ??_7?$sp_counted_impl_p@VPlayer_AttackClosest@MicroSearch@@@detail@boost@@6B@ 00447638     test.obj
 0002:00004650       ??_7?$sp_counted_impl_p@VPlayer_AttackWeakest@MicroSearch@@@detail@boost@@6B@ 00447650     test.obj
 0002:00004668       ??_7?$sp_counted_impl_p@VPlayer_AttackDPS@MicroSearch@@@detail@boost@@6B@ 00447668     test.obj
 0002:00004680       ??_7?$sp_counted_impl_p@VPlayer_Kiter@MicroSearch@@@detail@boost@@6B@ 00447680     test.obj
 0002:00004698       ??_7?$sp_counted_impl_p@VPlayer_KiterDPS@MicroSearch@@@detail@boost@@6B@ 00447698     test.obj
 0002:000046b0       ??_7?$sp_counted_impl_p@VPlayer_AlphaBeta@MicroSearch@@@detail@boost@@6B@ 004476b0     test.obj
 0002:000046c8       ??_7?$sp_counted_impl_p@VPlayer_Random@MicroSearch@@@detail@boost@@6B@ 004476c8     test.obj
 0002:000046e0       __real@412e848000000000    004476e0      CIL library: CIL module
 0002:000046e8       __real@3fb99999a0000000    004476e8      CIL library: CIL module
 0002:000046f0       __real@4030000000000000    004476f0      CIL library: CIL module
 0002:000046f8       __real@3f50624dd2f1a9fc    004476f8      CIL library: CIL module
 0002:00004700       __real@3ff0000000000000    00447700      CIL library: CIL module
 0002:00004708       __real@41f0000000000000    00447708      CIL library: CIL module
 0002:00004710       __real@408f400000000000    00447710      CIL library: CIL module
 0002:00004718       __load_config_used         00447718     MSVCRT:loadcfg.obj
 0002:000047d0       ??_R4type_info@@6B@        004477d0     MSVCRT:ti_inst.obj
 0002:000047e4       ??_R3type_info@@8          004477e4     MSVCRT:ti_inst.obj
 0002:000047f4       ??_R2type_info@@8          004477f4     MSVCRT:ti_inst.obj
 0002:000047fc       ??_R1A@?0A@EA@type_info@@8 004477fc     MSVCRT:ti_inst.obj
 0002:00004818       ??_R4?$sp_counted_impl_p@VPlayer_NOK_AttackDPS@MicroSearch@@@detail@boost@@6B@ 00447818     AlphaBeta.obj
 0002:0000482c       ??_R3?$sp_counted_impl_p@VPlayer_NOK_AttackDPS@MicroSearch@@@detail@boost@@8 0044782c     AlphaBeta.obj
 0002:0000483c       ??_R2?$sp_counted_impl_p@VPlayer_NOK_AttackDPS@MicroSearch@@@detail@boost@@8 0044783c     AlphaBeta.obj
 0002:00004848       ??_R1A@?0A@EA@?$sp_counted_impl_p@VPlayer_NOK_AttackDPS@MicroSearch@@@detail@boost@@8 00447848     AlphaBeta.obj
 0002:00004864       ??_R4?$sp_counted_impl_p@VTranspositionTable@MicroSearch@@@detail@boost@@6B@ 00447864     AlphaBeta.obj
 0002:00004878       ??_R3?$sp_counted_impl_p@VTranspositionTable@MicroSearch@@@detail@boost@@8 00447878     AlphaBeta.obj
 0002:00004888       ??_R2?$sp_counted_impl_p@VTranspositionTable@MicroSearch@@@detail@boost@@8 00447888     AlphaBeta.obj
 0002:00004894       ??_R1A@?0A@EA@?$sp_counted_impl_p@VTranspositionTable@MicroSearch@@@detail@boost@@8 00447894     AlphaBeta.obj
 0002:000048b0       ??_R4sp_counted_base@detail@boost@@6B@ 004478b0     AlphaBeta.obj
 0002:000048c4       ??_R3sp_counted_base@detail@boost@@8 004478c4     AlphaBeta.obj
 0002:000048d4       ??_R2sp_counted_base@detail@boost@@8 004478d4     AlphaBeta.obj
 0002:000048dc       ??_R1A@?0A@EA@sp_counted_base@detail@boost@@8 004478dc     AlphaBeta.obj
 0002:000048f8       ??_R4length_error@std@@6B@ 004478f8     AlphaBeta.obj
 0002:0000490c       ??_R3length_error@std@@8   0044790c     AlphaBeta.obj
 0002:0000491c       ??_R2length_error@std@@8   0044791c     AlphaBeta.obj
 0002:0000492c       ??_R1A@?0A@EA@length_error@std@@8 0044792c     AlphaBeta.obj
 0002:00004948       ??_R4logic_error@std@@6B@  00447948     AlphaBeta.obj
 0002:0000495c       ??_R3logic_error@std@@8    0044795c     AlphaBeta.obj
 0002:0000496c       ??_R2logic_error@std@@8    0044796c     AlphaBeta.obj
 0002:00004978       ??_R1A@?0A@EA@logic_error@std@@8 00447978     AlphaBeta.obj
 0002:00004994       ??_R4bad_alloc@std@@6B@    00447994     AlphaBeta.obj
 0002:000049a8       ??_R3bad_alloc@std@@8      004479a8     AlphaBeta.obj
 0002:000049b8       ??_R2bad_alloc@std@@8      004479b8     AlphaBeta.obj
 0002:000049c4       ??_R1A@?0A@EA@exception@std@@8 004479c4     AlphaBeta.obj
 0002:000049e0       ??_R3exception@std@@8      004479e0     AlphaBeta.obj
 0002:000049f0       ??_R2exception@std@@8      004479f0     AlphaBeta.obj
 0002:000049f8       ??_R1A@?0A@EA@bad_alloc@std@@8 004479f8     AlphaBeta.obj
 0002:00004a14       ??_R4?$sp_counted_impl_p@VPlayer@MicroSearch@@@detail@boost@@6B@ 00447a14     GameState.obj
 0002:00004a28       ??_R3?$sp_counted_impl_p@VPlayer@MicroSearch@@@detail@boost@@8 00447a28     GameState.obj
 0002:00004a38       ??_R2?$sp_counted_impl_p@VPlayer@MicroSearch@@@detail@boost@@8 00447a38     GameState.obj
 0002:00004a44       ??_R1A@?0A@EA@?$sp_counted_impl_p@VPlayer@MicroSearch@@@detail@boost@@8 00447a44     GameState.obj
 0002:00004a60       ??_R4Player_Random@MicroSearch@@6B@ 00447a60     Player.obj
 0002:00004a74       ??_R3Player_Random@MicroSearch@@8 00447a74     Player.obj
 0002:00004a84       ??_R2Player_Random@MicroSearch@@8 00447a84     Player.obj
 0002:00004a90       ??_R1A@?0A@EA@Player_Random@MicroSearch@@8 00447a90     Player.obj
 0002:00004aac       ??_R4Player_NOK_AttackDPS@MicroSearch@@6B@ 00447aac     Player.obj
 0002:00004ac0       ??_R3Player_NOK_AttackDPS@MicroSearch@@8 00447ac0     Player.obj
 0002:00004ad0       ??_R2Player_NOK_AttackDPS@MicroSearch@@8 00447ad0     Player.obj
 0002:00004adc       ??_R1A@?0A@EA@Player_NOK_AttackDPS@MicroSearch@@8 00447adc     Player.obj
 0002:00004af8       ??_R4Player_AttackDPS@MicroSearch@@6B@ 00447af8     Player.obj
 0002:00004b0c       ??_R3Player_AttackDPS@MicroSearch@@8 00447b0c     Player.obj
 0002:00004b1c       ??_R2Player_AttackDPS@MicroSearch@@8 00447b1c     Player.obj
 0002:00004b28       ??_R1A@?0A@EA@Player_AttackDPS@MicroSearch@@8 00447b28     Player.obj
 0002:00004b44       ??_R4Player_KiterDPS@MicroSearch@@6B@ 00447b44     Player.obj
 0002:00004b58       ??_R3Player_KiterDPS@MicroSearch@@8 00447b58     Player.obj
 0002:00004b68       ??_R2Player_KiterDPS@MicroSearch@@8 00447b68     Player.obj
 0002:00004b74       ??_R1A@?0A@EA@Player_KiterDPS@MicroSearch@@8 00447b74     Player.obj
 0002:00004b90       ??_R4Player_Kiter@MicroSearch@@6B@ 00447b90     Player.obj
 0002:00004ba4       ??_R3Player_Kiter@MicroSearch@@8 00447ba4     Player.obj
 0002:00004bb4       ??_R2Player_Kiter@MicroSearch@@8 00447bb4     Player.obj
 0002:00004bc0       ??_R1A@?0A@EA@Player_Kiter@MicroSearch@@8 00447bc0     Player.obj
 0002:00004bdc       ??_R4Player_AttackWeakest@MicroSearch@@6B@ 00447bdc     Player.obj
 0002:00004bf0       ??_R3Player_AttackWeakest@MicroSearch@@8 00447bf0     Player.obj
 0002:00004c00       ??_R2Player_AttackWeakest@MicroSearch@@8 00447c00     Player.obj
 0002:00004c0c       ??_R1A@?0A@EA@Player_AttackWeakest@MicroSearch@@8 00447c0c     Player.obj
 0002:00004c28       ??_R4Player_AttackClosest@MicroSearch@@6B@ 00447c28     Player.obj
 0002:00004c3c       ??_R3Player_AttackClosest@MicroSearch@@8 00447c3c     Player.obj
 0002:00004c4c       ??_R2Player_AttackClosest@MicroSearch@@8 00447c4c     Player.obj
 0002:00004c58       ??_R1A@?0A@EA@Player_AttackClosest@MicroSearch@@8 00447c58     Player.obj
 0002:00004c74       ??_R4Player_AlphaBeta@MicroSearch@@6B@ 00447c74     Player.obj
 0002:00004c88       ??_R3Player_AlphaBeta@MicroSearch@@8 00447c88     Player.obj
 0002:00004c98       ??_R2Player_AlphaBeta@MicroSearch@@8 00447c98     Player.obj
 0002:00004ca4       ??_R1A@?0A@EA@Player_AlphaBeta@MicroSearch@@8 00447ca4     Player.obj
 0002:00004cc0       ??_R3Player@MicroSearch@@8 00447cc0     Player.obj
 0002:00004cd0       ??_R2Player@MicroSearch@@8 00447cd0     Player.obj
 0002:00004cd8       ??_R1A@?0A@EA@Player@MicroSearch@@8 00447cd8     Player.obj
 0002:00004cf4       ??_R4?$sp_counted_impl_p@VPlayer_Random@MicroSearch@@@detail@boost@@6B@ 00447cf4     test.obj
 0002:00004d08       ??_R3?$sp_counted_impl_p@VPlayer_Random@MicroSearch@@@detail@boost@@8 00447d08     test.obj
 0002:00004d18       ??_R2?$sp_counted_impl_p@VPlayer_Random@MicroSearch@@@detail@boost@@8 00447d18     test.obj
 0002:00004d24       ??_R1A@?0A@EA@?$sp_counted_impl_p@VPlayer_Random@MicroSearch@@@detail@boost@@8 00447d24     test.obj
 0002:00004d40       ??_R4?$sp_counted_impl_p@VPlayer_AlphaBeta@MicroSearch@@@detail@boost@@6B@ 00447d40     test.obj
 0002:00004d54       ??_R3?$sp_counted_impl_p@VPlayer_AlphaBeta@MicroSearch@@@detail@boost@@8 00447d54     test.obj
 0002:00004d64       ??_R2?$sp_counted_impl_p@VPlayer_AlphaBeta@MicroSearch@@@detail@boost@@8 00447d64     test.obj
 0002:00004d70       ??_R1A@?0A@EA@?$sp_counted_impl_p@VPlayer_AlphaBeta@MicroSearch@@@detail@boost@@8 00447d70     test.obj
 0002:00004d8c       ??_R4?$sp_counted_impl_p@VPlayer_KiterDPS@MicroSearch@@@detail@boost@@6B@ 00447d8c     test.obj
 0002:00004da0       ??_R3?$sp_counted_impl_p@VPlayer_KiterDPS@MicroSearch@@@detail@boost@@8 00447da0     test.obj
 0002:00004db0       ??_R2?$sp_counted_impl_p@VPlayer_KiterDPS@MicroSearch@@@detail@boost@@8 00447db0     test.obj
 0002:00004dbc       ??_R1A@?0A@EA@?$sp_counted_impl_p@VPlayer_KiterDPS@MicroSearch@@@detail@boost@@8 00447dbc     test.obj
 0002:00004dd8       ??_R4?$sp_counted_impl_p@VPlayer_Kiter@MicroSearch@@@detail@boost@@6B@ 00447dd8     test.obj
 0002:00004dec       ??_R3?$sp_counted_impl_p@VPlayer_Kiter@MicroSearch@@@detail@boost@@8 00447dec     test.obj
 0002:00004dfc       ??_R2?$sp_counted_impl_p@VPlayer_Kiter@MicroSearch@@@detail@boost@@8 00447dfc     test.obj
 0002:00004e08       ??_R1A@?0A@EA@?$sp_counted_impl_p@VPlayer_Kiter@MicroSearch@@@detail@boost@@8 00447e08     test.obj
 0002:00004e24       ??_R4?$sp_counted_impl_p@VPlayer_AttackDPS@MicroSearch@@@detail@boost@@6B@ 00447e24     test.obj
 0002:00004e38       ??_R3?$sp_counted_impl_p@VPlayer_AttackDPS@MicroSearch@@@detail@boost@@8 00447e38     test.obj
 0002:00004e48       ??_R2?$sp_counted_impl_p@VPlayer_AttackDPS@MicroSearch@@@detail@boost@@8 00447e48     test.obj
 0002:00004e54       ??_R1A@?0A@EA@?$sp_counted_impl_p@VPlayer_AttackDPS@MicroSearch@@@detail@boost@@8 00447e54     test.obj
 0002:00004e70       ??_R4?$sp_counted_impl_p@VPlayer_AttackWeakest@MicroSearch@@@detail@boost@@6B@ 00447e70     test.obj
 0002:00004e84       ??_R3?$sp_counted_impl_p@VPlayer_AttackWeakest@MicroSearch@@@detail@boost@@8 00447e84     test.obj
 0002:00004e94       ??_R2?$sp_counted_impl_p@VPlayer_AttackWeakest@MicroSearch@@@detail@boost@@8 00447e94     test.obj
 0002:00004ea0       ??_R1A@?0A@EA@?$sp_counted_impl_p@VPlayer_AttackWeakest@MicroSearch@@@detail@boost@@8 00447ea0     test.obj
 0002:00004ebc       ??_R4?$sp_counted_impl_p@VPlayer_AttackClosest@MicroSearch@@@detail@boost@@6B@ 00447ebc     test.obj
 0002:00004ed0       ??_R3?$sp_counted_impl_p@VPlayer_AttackClosest@MicroSearch@@@detail@boost@@8 00447ed0     test.obj
 0002:00004ee0       ??_R2?$sp_counted_impl_p@VPlayer_AttackClosest@MicroSearch@@@detail@boost@@8 00447ee0     test.obj
 0002:00004eec       ??_R1A@?0A@EA@?$sp_counted_impl_p@VPlayer_AttackClosest@MicroSearch@@@detail@boost@@8 00447eec     test.obj
 0002:00004f10       ___safe_se_handler_table   00447f10     <linker-defined>
 0002:000050c8       ___rtc_iaa                 004480c8     MSVCRT:_initsect_.obj
 0002:000050cc       ___rtc_izz                 004480cc     MSVCRT:_initsect_.obj
 0002:000050d0       ___rtc_taa                 004480d0     MSVCRT:_initsect_.obj
 0002:000050d4       ___rtc_tzz                 004480d4     MSVCRT:_initsect_.obj
 0002:000050d8       __TI3?AVout_of_range@std@@ 004480d8     BWAPI:UnitType.obj
 0002:000050e8       __CTA3?AVout_of_range@std@@ 004480e8     BWAPI:UnitType.obj
 0002:000050f8       __CT??_R0?AVout_of_range@std@@@8??0out_of_range@std@@QAE@ABV01@@Z40 004480f8     BWAPI:UnitType.obj
 0002:000054f4       __CT??_R0?AVexception@std@@@8??0exception@std@@QAE@ABV01@@Z12 004484f4     AlphaBeta.obj
 0002:00005510       __CT??_R0?AVlogic_error@std@@@8??0logic_error@std@@QAE@ABV01@@Z40 00448510     AlphaBeta.obj
 0002:0000552c       __CT??_R0H@84              0044852c     AlphaBeta.obj
 0002:00005548       __CTA1H                    00448548     AlphaBeta.obj
 0002:00005550       __TI1H                     00448550     AlphaBeta.obj
 0002:00005560       __CT??_R0?AVlength_error@std@@@8??0length_error@std@@QAE@ABV01@@Z40 00448560     AlphaBeta.obj
 0002:0000557c       __CTA3?AVlength_error@std@@ 0044857c     AlphaBeta.obj
 0002:0000558c       __TI3?AVlength_error@std@@ 0044858c     AlphaBeta.obj
 0002:0000559c       __CT??_R0?AVbad_alloc@std@@@8??0bad_alloc@std@@QAE@ABV01@@Z12 0044859c     AlphaBeta.obj
 0002:000055b8       __CTA2?AVbad_alloc@std@@   004485b8     AlphaBeta.obj
 0002:000055c4       __TI2?AVbad_alloc@std@@    004485c4     AlphaBeta.obj
 0002:00007084       __IMPORT_DESCRIPTOR_KERNEL32 0044a084     kernel32:KERNEL32.dll
 0002:00007098       __IMPORT_DESCRIPTOR_MSVCP90 0044a098     msvcprt:MSVCP90.dll
 0002:000070ac       __IMPORT_DESCRIPTOR_MSVCR90 0044a0ac     MSVCRT:MSVCR90.dll
 0002:000070c0       __NULL_IMPORT_DESCRIPTOR   0044a0c0     kernel32:KERNEL32.dll
 0003:00000004       ?initializingUnitType@BWAPI@@3_NA 0044b004     BWAPI:UnitType.obj
 0003:00000008       ??_R0?AVout_of_range@std@@@8 0044b008     BWAPI:UnitType.obj
 0003:0000002c       ?initializingWeaponType@BWAPI@@3_NA 0044b02c     BWAPI:WeaponType.obj
 0003:00000038       ?__revisionInfo@@3PBDB     0044b038     BWAPI:BWAPI.obj
 0003:0000003c       ?__buildInfo@@3PBDB        0044b03c     BWAPI:BWAPI.obj
 0003:00000044       ?initializingTechType@BWAPI@@3_NA 0044b044     BWAPI:TechType.obj
 0003:00000050       ?initializingUpgradeType@BWAPI@@3_NA 0044b050     BWAPI:UpgradeType.obj
 0003:00000058       ?initializingRace@BWAPI@@3_NA 0044b058     BWAPI:Race.obj
 0003:00000060       ?initializingUnitSizeType@BWAPI@@3_NA 0044b060     BWAPI:UnitSizeType.obj
 0003:00000068       ?initializingExplosionType@BWAPI@@3_NA 0044b068     BWAPI:ExplosionType.obj
 0003:00000070       ?initializingDamageType@BWAPI@@3_NA 0044b070     BWAPI:DamageType.obj
 0003:00000078       ?initializingGameType@BWAPI@@3_NA 0044b078     BWAPI:GameType.obj
 0003:00000088       ?palette@BWAPI@@3PAIA      0044b088     BWAPI:Color.obj
 0003:0000048c       ?initializingError@BWAPI@@3_NA 0044b48c     BWAPI:Error.obj
 0003:00000494       ?initializingBulletType@BWAPI@@3_NA 0044b494     BWAPI:BulletType.obj
 0003:0000049c       ?initializingUnitCommandType@BWAPI@@3_NA 0044b49c     BWAPI:UnitCommandType.obj
 0003:000004a4       ?initializingPlayerType@BWAPI@@3_NA 0044b4a4     BWAPI:PlayerType.obj
 0003:000004ac       ?initializingOrder@BWAPI@@3_NA 0044b4ac     BWAPI:Order.obj
 0003:000004b0       ??_R0?AVtype_info@@@8      0044b4b0     MSVCRT:ti_inst.obj
 0003:000004d0       ___security_cookie         0044b4d0     MSVCRT:gs_cookie.obj
 0003:000004d4       ___security_cookie_complement 0044b4d4     MSVCRT:gs_cookie.obj
 0003:000004d8       ___native_dllmain_reason   0044b4d8     MSVCRT:natstart.obj
 0003:000004dc       ___native_vcclrit_reason   0044b4dc     MSVCRT:natstart.obj
 0003:000004e0       ___globallocalestatus      0044b4e0     MSVCRT:xthdloc.obj
 0003:000004e4       ___defaultmatherr          0044b4e4     MSVCRT:merr.obj
 0003:000004e8       ??_R0?AV?$sp_counted_impl_p@VPlayer_NOK_AttackDPS@MicroSearch@@@detail@boost@@@8 0044b4e8     AlphaBeta.obj
 0003:00000540       ??_R0?AV?$sp_counted_impl_p@VTranspositionTable@MicroSearch@@@detail@boost@@@8 0044b540     AlphaBeta.obj
 0003:00000594       ??_R0?AVsp_counted_base@detail@boost@@@8 0044b594     AlphaBeta.obj
 0003:000005e8       ?indices@?A0x03734ea7@boost@@3U?$index_gen@$0A@$0A@@multi_array@detail@2@A 0044b5e8     AlphaBeta.obj
 0003:000005f8       ?indices@?A0xaed5a66d@boost@@3U?$index_gen@$0A@$0A@@multi_array@detail@2@A 0044b5f8     Game.obj
 0003:00000608       ?indices@?A0x06e4e2b8@boost@@3U?$index_gen@$0A@$0A@@multi_array@detail@2@A 0044b608     GameState.obj
 0003:00000618       ?indices@?A0x748781be@boost@@3U?$index_gen@$0A@$0A@@multi_array@detail@2@A 0044b618     MicroSearchParameters.obj
 0003:00000628       ?indices@?A0x603258aa@boost@@3U?$index_gen@$0A@$0A@@multi_array@detail@2@A 0044b628     Player.obj
 0003:00000638       ?indices@?A0x40b9e08e@boost@@3U?$index_gen@$0A@$0A@@multi_array@detail@2@A 0044b638     test.obj
 0003:00000648       ??_R0?AVexception@std@@@8  0044b648     AlphaBeta.obj
 0003:00000664       ??_R0?AVlogic_error@std@@@8 0044b664     AlphaBeta.obj
 0003:00000684       ??_R0H@8                   0044b684     AlphaBeta.obj
 0003:00000690       ??_R0?AVlength_error@std@@@8 0044b690     AlphaBeta.obj
 0003:000006b0       ??_R0?AVbad_alloc@std@@@8  0044b6b0     AlphaBeta.obj
 0003:000006cc       ??_R0?AVPlayer@MicroSearch@@@8 0044b6cc     Game.obj
 0003:000006f0       ??_R0?AVPlayer_AlphaBeta@MicroSearch@@@8 0044b6f0     Game.obj
 0003:00000720       ??_R0?AV?$sp_counted_impl_p@VPlayer@MicroSearch@@@detail@boost@@@8 0044b720     GameState.obj
 0003:00000768       ??_R0?AVPlayer_Random@MicroSearch@@@8 0044b768     Player.obj
 0003:00000790       ??_R0?AVPlayer_NOK_AttackDPS@MicroSearch@@@8 0044b790     Player.obj
 0003:000007c0       ??_R0?AVPlayer_AttackDPS@MicroSearch@@@8 0044b7c0     Player.obj
 0003:000007ec       ??_R0?AVPlayer_KiterDPS@MicroSearch@@@8 0044b7ec     Player.obj
 0003:00000818       ??_R0?AVPlayer_Kiter@MicroSearch@@@8 0044b818     Player.obj
 0003:00000840       ??_R0?AVPlayer_AttackWeakest@MicroSearch@@@8 0044b840     Player.obj
 0003:00000870       ??_R0?AVPlayer_AttackClosest@MicroSearch@@@8 0044b870     Player.obj
 0003:000008a0       ??_R0?AV?$sp_counted_impl_p@VPlayer_Random@MicroSearch@@@detail@boost@@@8 0044b8a0     test.obj
 0003:000008f0       ??_R0?AV?$sp_counted_impl_p@VPlayer_AlphaBeta@MicroSearch@@@detail@boost@@@8 0044b8f0     test.obj
 0003:00000940       ??_R0?AV?$sp_counted_impl_p@VPlayer_KiterDPS@MicroSearch@@@detail@boost@@@8 0044b940     test.obj
 0003:00000990       ??_R0?AV?$sp_counted_impl_p@VPlayer_Kiter@MicroSearch@@@detail@boost@@@8 0044b990     test.obj
 0003:000009e0       ??_R0?AV?$sp_counted_impl_p@VPlayer_AttackDPS@MicroSearch@@@detail@boost@@@8 0044b9e0     test.obj
 0003:00000a30       ??_R0?AV?$sp_counted_impl_p@VPlayer_AttackWeakest@MicroSearch@@@detail@boost@@@8 0044ba30     test.obj
 0003:00000a88       ??_R0?AV?$sp_counted_impl_p@VPlayer_AttackClosest@MicroSearch@@@detail@boost@@@8 0044ba88     test.obj
 0003:00000ae0       ?maxHeight@BWAPI@@3HA      0044bae0     BWAPI:UnitType.obj
 0003:00000ae4       ?maxWidth@BWAPI@@3HA       0044bae4     BWAPI:UnitType.obj
 0003:00000ae8       ?Hero_Artanis@UnitTypes@BWAPI@@3VUnitType@2@B 0044bae8     BWAPI:UnitType.obj
 0003:00000aec       ?Protoss_Corsair@UnitTypes@BWAPI@@3VUnitType@2@B 0044baec     BWAPI:UnitType.obj
 0003:00000af0       ?Terran_Academy@UnitTypes@BWAPI@@3VUnitType@2@B 0044baf0     BWAPI:UnitType.obj
 0003:00000af4       ?Unknown@UnitTypes@BWAPI@@3VUnitType@2@B 0044baf4     BWAPI:UnitType.obj
 0003:00000af8       ?Protoss_Nexus@UnitTypes@BWAPI@@3VUnitType@2@B 0044baf8     BWAPI:UnitType.obj
 0003:00000afc       ?Powerup_Psi_Emitter@UnitTypes@BWAPI@@3VUnitType@2@B 0044bafc     BWAPI:UnitType.obj
 0003:00000b00       ?Hero_Jim_Raynor_Marine@UnitTypes@BWAPI@@3VUnitType@2@B 0044bb00     BWAPI:UnitType.obj
 0003:00000b04       ?Hero_Torrasque@UnitTypes@BWAPI@@3VUnitType@2@B 0044bb04     BWAPI:UnitType.obj
 0003:00000b08       ?Special_XelNaga_Temple@UnitTypes@BWAPI@@3VUnitType@2@B 0044bb08     BWAPI:UnitType.obj
 0003:00000b0c       ?Powerup_Uraj_Crystal@UnitTypes@BWAPI@@3VUnitType@2@B 0044bb0c     BWAPI:UnitType.obj
 0003:00000b10       ?Hero_Gerard_DuGalle@UnitTypes@BWAPI@@3VUnitType@2@B 0044bb10     BWAPI:UnitType.obj
 0003:00000b14       ?Terran_Marine@UnitTypes@BWAPI@@3VUnitType@2@B 0044bb14     BWAPI:UnitType.obj
 0003:00000b18       ?Special_Terran_Beacon@UnitTypes@BWAPI@@3VUnitType@2@B 0044bb18     BWAPI:UnitType.obj
 0003:00000b1c       ?Hero_Alan_Schezar@UnitTypes@BWAPI@@3VUnitType@2@B 0044bb1c     BWAPI:UnitType.obj
 0003:00000b20       ?Buildings@UnitTypes@BWAPI@@3VUnitType@2@B 0044bb20     BWAPI:UnitType.obj
 0003:00000b24       ?None@UnitTypes@BWAPI@@3VUnitType@2@B 0044bb24     BWAPI:UnitType.obj
 0003:00000b28       ?Terran_Nuclear_Silo@UnitTypes@BWAPI@@3VUnitType@2@B 0044bb28     BWAPI:UnitType.obj
 0003:00000b2c       ?Hero_Samir_Duran@UnitTypes@BWAPI@@3VUnitType@2@B 0044bb2c     BWAPI:UnitType.obj
 0003:00000b30       ?Zerg_Hive@UnitTypes@BWAPI@@3VUnitType@2@B 0044bb30     BWAPI:UnitType.obj
 0003:00000b34       ?Men@UnitTypes@BWAPI@@3VUnitType@2@B 0044bb34     BWAPI:UnitType.obj
 0003:00000b38       ?Protoss_Observer@UnitTypes@BWAPI@@3VUnitType@2@B 0044bb38     BWAPI:UnitType.obj
 0003:00000b3c       ?Terran_Nuclear_Missile@UnitTypes@BWAPI@@3VUnitType@2@B 0044bb3c     BWAPI:UnitType.obj
 0003:00000b40       ?Hero_Infested_Duran@UnitTypes@BWAPI@@3VUnitType@2@B 0044bb40     BWAPI:UnitType.obj
 0003:00000b44       ?Hero_Yggdrasill@UnitTypes@BWAPI@@3VUnitType@2@B 0044bb44     BWAPI:UnitType.obj
 0003:00000b48       ?Zerg_Drone@UnitTypes@BWAPI@@3VUnitType@2@B 0044bb48     BWAPI:UnitType.obj
 0003:00000b4c       ?Hero_Danimoth@UnitTypes@BWAPI@@3VUnitType@2@B 0044bb4c     BWAPI:UnitType.obj
 0003:00000b50       ?Hero_Hyperion@UnitTypes@BWAPI@@3VUnitType@2@B 0044bb50     BWAPI:UnitType.obj
 0003:00000b54       ?Protoss_Arbiter_Tribunal@UnitTypes@BWAPI@@3VUnitType@2@B 0044bb54     BWAPI:UnitType.obj
 0003:00000b58       ?Protoss_Photon_Cannon@UnitTypes@BWAPI@@3VUnitType@2@B 0044bb58     BWAPI:UnitType.obj
 0003:00000b5c       ?Critter_Ragnasaur@UnitTypes@BWAPI@@3VUnitType@2@B 0044bb5c     BWAPI:UnitType.obj
 0003:00000b60       ?Hero_Alexei_Stukov@UnitTypes@BWAPI@@3VUnitType@2@B 0044bb60     BWAPI:UnitType.obj
 0003:00000b64       ?Terran_Battlecruiser@UnitTypes@BWAPI@@3VUnitType@2@B 0044bb64     BWAPI:UnitType.obj
 0003:00000b68       ?Hero_Zeratul@UnitTypes@BWAPI@@3VUnitType@2@B 0044bb68     BWAPI:UnitType.obj
 0003:00000b6c       ?Hero_Unclean_One@UnitTypes@BWAPI@@3VUnitType@2@B 0044bb6c     BWAPI:UnitType.obj
 0003:00000b70       ?Powerup_Terran_Gas_Tank_Type_2@UnitTypes@BWAPI@@3VUnitType@2@B 0044bb70     BWAPI:UnitType.obj
 0003:00000b74       ?Protoss_Zealot@UnitTypes@BWAPI@@3VUnitType@2@B 0044bb74     BWAPI:UnitType.obj
 0003:00000b78       ?Zerg_Ultralisk@UnitTypes@BWAPI@@3VUnitType@2@B 0044bb78     BWAPI:UnitType.obj
 0003:00000b7c       ?Protoss_Interceptor@UnitTypes@BWAPI@@3VUnitType@2@B 0044bb7c     BWAPI:UnitType.obj
 0003:00000b80       ?Protoss_Fleet_Beacon@UnitTypes@BWAPI@@3VUnitType@2@B 0044bb80     BWAPI:UnitType.obj
 0003:00000b84       ?Special_Zerg_Beacon@UnitTypes@BWAPI@@3VUnitType@2@B 0044bb84     BWAPI:UnitType.obj
 0003:00000b88       ?Powerup_Flag@UnitTypes@BWAPI@@3VUnitType@2@B 0044bb88     BWAPI:UnitType.obj
 0003:00000b8c       ?Powerup_Mineral_Cluster_Type_2@UnitTypes@BWAPI@@3VUnitType@2@B 0044bb8c     BWAPI:UnitType.obj
 0003:00000b90       ?Terran_Medic@UnitTypes@BWAPI@@3VUnitType@2@B 0044bb90     BWAPI:UnitType.obj
 0003:00000b94       ?Zerg_Nydus_Canal@UnitTypes@BWAPI@@3VUnitType@2@B 0044bb94     BWAPI:UnitType.obj
 0003:00000b98       ?Hero_Fenix_Zealot@UnitTypes@BWAPI@@3VUnitType@2@B 0044bb98     BWAPI:UnitType.obj
 0003:00000b9c       ?Powerup_Zerg_Gas_Sac_Type_2@UnitTypes@BWAPI@@3VUnitType@2@B 0044bb9c     BWAPI:UnitType.obj
 0003:00000ba0       ?Spell_Disruption_Web@UnitTypes@BWAPI@@3VUnitType@2@B 0044bba0     BWAPI:UnitType.obj
 0003:00000ba4       ?Special_Zerg_Flag_Beacon@UnitTypes@BWAPI@@3VUnitType@2@B 0044bba4     BWAPI:UnitType.obj
 0003:00000ba8       ?Special_Cerebrate_Daggoth@UnitTypes@BWAPI@@3VUnitType@2@B 0044bba8     BWAPI:UnitType.obj
 0003:00000bac       ?Zerg_Hydralisk_Den@UnitTypes@BWAPI@@3VUnitType@2@B 0044bbac     BWAPI:UnitType.obj
 0003:00000bb0       ?Zerg_Infested_Terran@UnitTypes@BWAPI@@3VUnitType@2@B 0044bbb0     BWAPI:UnitType.obj
 0003:00000bb4       ?Terran_Dropship@UnitTypes@BWAPI@@3VUnitType@2@B 0044bbb4     BWAPI:UnitType.obj
 0003:00000bb8       ?Terran_Factory@UnitTypes@BWAPI@@3VUnitType@2@B 0044bbb8     BWAPI:UnitType.obj
 0003:00000bbc       ?Special_Right_Wall_Flame_Trap@UnitTypes@BWAPI@@3VUnitType@2@B 0044bbbc     BWAPI:UnitType.obj
 0003:00000bc0       ?Zerg_Queens_Nest@UnitTypes@BWAPI@@3VUnitType@2@B 0044bbc0     BWAPI:UnitType.obj
 0003:00000bc4       ?Zerg_Spire@UnitTypes@BWAPI@@3VUnitType@2@B 0044bbc4     BWAPI:UnitType.obj
 0003:00000bc8       ?Resource_Mineral_Field@UnitTypes@BWAPI@@3VUnitType@2@B 0044bbc8     BWAPI:UnitType.obj
 0003:00000bcc       ?Powerup_Protoss_Gas_Orb_Type_1@UnitTypes@BWAPI@@3VUnitType@2@B 0044bbcc     BWAPI:UnitType.obj
 0003:00000bd0       ?Hero_Hunter_Killer@UnitTypes@BWAPI@@3VUnitType@2@B 0044bbd0     BWAPI:UnitType.obj
 0003:00000bd4       ?Protoss_Shield_Battery@UnitTypes@BWAPI@@3VUnitType@2@B 0044bbd4     BWAPI:UnitType.obj
 0003:00000bd8       ?Special_Mercenary_Gunship@UnitTypes@BWAPI@@3VUnitType@2@B 0044bbd8     BWAPI:UnitType.obj
 0003:00000bdc       ?Zerg_Lurker_Egg@UnitTypes@BWAPI@@3VUnitType@2@B 0044bbdc     BWAPI:UnitType.obj
 0003:00000be0       ?Critter_Scantid@UnitTypes@BWAPI@@3VUnitType@2@B 0044bbe0     BWAPI:UnitType.obj
 0003:00000be4       ?Terran_Starport@UnitTypes@BWAPI@@3VUnitType@2@B 0044bbe4     BWAPI:UnitType.obj
 0003:00000be8       ?Critter_Kakaru@UnitTypes@BWAPI@@3VUnitType@2@B 0044bbe8     BWAPI:UnitType.obj
 0003:00000bec       ?Protoss_Shuttle@UnitTypes@BWAPI@@3VUnitType@2@B 0044bbec     BWAPI:UnitType.obj
 0003:00000bf0       ?Terran_Science_Facility@UnitTypes@BWAPI@@3VUnitType@2@B 0044bbf0     BWAPI:UnitType.obj
 0003:00000bf4       ?Hero_Infested_Kerrigan@UnitTypes@BWAPI@@3VUnitType@2@B 0044bbf4     BWAPI:UnitType.obj
 0003:00000bf8       ?Terran_Armory@UnitTypes@BWAPI@@3VUnitType@2@B 0044bbf8     BWAPI:UnitType.obj
 0003:00000bfc       ?Zerg_Evolution_Chamber@UnitTypes@BWAPI@@3VUnitType@2@B 0044bbfc     BWAPI:UnitType.obj
 0003:00000c00       ?Zerg_Extractor@UnitTypes@BWAPI@@3VUnitType@2@B 0044bc00     BWAPI:UnitType.obj
 0003:00000c04       ?Special_Mature_Chrysalis@UnitTypes@BWAPI@@3VUnitType@2@B 0044bc04     BWAPI:UnitType.obj
 0003:00000c08       ?Protoss_Cybernetics_Core@UnitTypes@BWAPI@@3VUnitType@2@B 0044bc08     BWAPI:UnitType.obj
 0003:00000c0c       ?Hero_Dark_Templar@UnitTypes@BWAPI@@3VUnitType@2@B 0044bc0c     BWAPI:UnitType.obj
 0003:00000c10       ?Protoss_Arbiter@UnitTypes@BWAPI@@3VUnitType@2@B 0044bc10     BWAPI:UnitType.obj
 0003:00000c14       ?Powerup_Khaydarin_Crystal@UnitTypes@BWAPI@@3VUnitType@2@B 0044bc14     BWAPI:UnitType.obj
 0003:00000c18       ?Special_Ion_Cannon@UnitTypes@BWAPI@@3VUnitType@2@B 0044bc18     BWAPI:UnitType.obj
 0003:00000c1c       ?Special_Right_Upper_Level_Door@UnitTypes@BWAPI@@3VUnitType@2@B 0044bc1c     BWAPI:UnitType.obj
 0003:00000c20       ?Hero_Edmund_Duke_Tank_Mode@UnitTypes@BWAPI@@3VUnitType@2@B 0044bc20     BWAPI:UnitType.obj
 0003:00000c24       ?Terran_Refinery@UnitTypes@BWAPI@@3VUnitType@2@B 0044bc24     BWAPI:UnitType.obj
 0003:00000c28       ?Hero_Warbringer@UnitTypes@BWAPI@@3VUnitType@2@B 0044bc28     BWAPI:UnitType.obj
 0003:00000c2c       ?Zerg_Larva@UnitTypes@BWAPI@@3VUnitType@2@B 0044bc2c     BWAPI:UnitType.obj
 0003:00000c30       ?Protoss_Stargate@UnitTypes@BWAPI@@3VUnitType@2@B 0044bc30     BWAPI:UnitType.obj
 0003:00000c34       ?Terran_Vulture@UnitTypes@BWAPI@@3VUnitType@2@B 0044bc34     BWAPI:UnitType.obj
 0003:00000c38       ?Terran_Command_Center@UnitTypes@BWAPI@@3VUnitType@2@B 0044bc38     BWAPI:UnitType.obj
 0003:00000c3c       ?Protoss_High_Templar@UnitTypes@BWAPI@@3VUnitType@2@B 0044bc3c     BWAPI:UnitType.obj
 0003:00000c40       ?Hero_Tassadar_Zeratul_Archon@UnitTypes@BWAPI@@3VUnitType@2@B 0044bc40     BWAPI:UnitType.obj
 0003:00000c44       ?Special_Floor_Missile_Trap@UnitTypes@BWAPI@@3VUnitType@2@B 0044bc44     BWAPI:UnitType.obj
 0003:00000c48       ?Hero_Tom_Kazansky@UnitTypes@BWAPI@@3VUnitType@2@B 0044bc48     BWAPI:UnitType.obj
 0003:00000c4c       ?Zerg_Guardian@UnitTypes@BWAPI@@3VUnitType@2@B 0044bc4c     BWAPI:UnitType.obj
 0003:00000c50       ?Zerg_Cocoon@UnitTypes@BWAPI@@3VUnitType@2@B 0044bc50     BWAPI:UnitType.obj
 0003:00000c54       ?Powerup_Khalis_Crystal@UnitTypes@BWAPI@@3VUnitType@2@B 0044bc54     BWAPI:UnitType.obj
 0003:00000c58       ?Special_Cerebrate@UnitTypes@BWAPI@@3VUnitType@2@B 0044bc58     BWAPI:UnitType.obj
 0003:00000c5c       ?Terran_Science_Vessel@UnitTypes@BWAPI@@3VUnitType@2@B 0044bc5c     BWAPI:UnitType.obj
 0003:00000c60       ?Zerg_Infested_Command_Center@UnitTypes@BWAPI@@3VUnitType@2@B 0044bc60     BWAPI:UnitType.obj
 0003:00000c64       ?Special_Warp_Gate@UnitTypes@BWAPI@@3VUnitType@2@B 0044bc64     BWAPI:UnitType.obj
 0003:00000c68       ?Protoss_Forge@UnitTypes@BWAPI@@3VUnitType@2@B 0044bc68     BWAPI:UnitType.obj
 0003:00000c6c       ?Terran_SCV@UnitTypes@BWAPI@@3VUnitType@2@B 0044bc6c     BWAPI:UnitType.obj
 0003:00000c70       ?Powerup_Young_Chrysalis@UnitTypes@BWAPI@@3VUnitType@2@B 0044bc70     BWAPI:UnitType.obj
 0003:00000c74       ?Terran_Goliath@UnitTypes@BWAPI@@3VUnitType@2@B 0044bc74     BWAPI:UnitType.obj
 0003:00000c78       ?Terran_Wraith@UnitTypes@BWAPI@@3VUnitType@2@B 0044bc78     BWAPI:UnitType.obj
 0003:00000c7c       ?Protoss_Dark_Archon@UnitTypes@BWAPI@@3VUnitType@2@B 0044bc7c     BWAPI:UnitType.obj
 0003:00000c80       ?Resource_Mineral_Field_Type_2@UnitTypes@BWAPI@@3VUnitType@2@B 0044bc80     BWAPI:UnitType.obj
 0003:00000c84       ?Terran_Ghost@UnitTypes@BWAPI@@3VUnitType@2@B 0044bc84     BWAPI:UnitType.obj
 0003:00000c88       ?Special_Wall_Missile_Trap@UnitTypes@BWAPI@@3VUnitType@2@B 0044bc88     BWAPI:UnitType.obj
 0003:00000c8c       ?Zerg_Hatchery@UnitTypes@BWAPI@@3VUnitType@2@B 0044bc8c     BWAPI:UnitType.obj
 0003:00000c90       ?Special_Protoss_Flag_Beacon@UnitTypes@BWAPI@@3VUnitType@2@B 0044bc90     BWAPI:UnitType.obj
 0003:00000c94       ?Protoss_Scarab@UnitTypes@BWAPI@@3VUnitType@2@B 0044bc94     BWAPI:UnitType.obj
 0003:00000c98       ?Terran_Valkyrie@UnitTypes@BWAPI@@3VUnitType@2@B 0044bc98     BWAPI:UnitType.obj
 0003:00000c9c       ?Critter_Ursadon@UnitTypes@BWAPI@@3VUnitType@2@B 0044bc9c     BWAPI:UnitType.obj
 0003:00000ca0       ?Terran_Engineering_Bay@UnitTypes@BWAPI@@3VUnitType@2@B 0044bca0     BWAPI:UnitType.obj
 0003:00000ca4       ?Zerg_Spore_Colony@UnitTypes@BWAPI@@3VUnitType@2@B 0044bca4     BWAPI:UnitType.obj
 0003:00000ca8       ?Hero_Devouring_One@UnitTypes@BWAPI@@3VUnitType@2@B 0044bca8     BWAPI:UnitType.obj
 0003:00000cac       ?Terran_Physics_Lab@UnitTypes@BWAPI@@3VUnitType@2@B 0044bcac     BWAPI:UnitType.obj
 0003:00000cb0       ?Zerg_Greater_Spire@UnitTypes@BWAPI@@3VUnitType@2@B 0044bcb0     BWAPI:UnitType.obj
 0003:00000cb4       ?Terran_Bunker@UnitTypes@BWAPI@@3VUnitType@2@B 0044bcb4     BWAPI:UnitType.obj
 0003:00000cb8       ?Special_Overmind_With_Shell@UnitTypes@BWAPI@@3VUnitType@2@B 0044bcb8     BWAPI:UnitType.obj
 0003:00000cbc       ?Protoss_Assimilator@UnitTypes@BWAPI@@3VUnitType@2@B 0044bcbc     BWAPI:UnitType.obj
 0003:00000cc0       ?Hero_Raszagal@UnitTypes@BWAPI@@3VUnitType@2@B 0044bcc0     BWAPI:UnitType.obj
 0003:00000cc4       ?Terran_Missile_Turret@UnitTypes@BWAPI@@3VUnitType@2@B 0044bcc4     BWAPI:UnitType.obj
 0003:00000cc8       ?Hero_Magellan@UnitTypes@BWAPI@@3VUnitType@2@B 0044bcc8     BWAPI:UnitType.obj
 0003:00000ccc       ?Protoss_Reaver@UnitTypes@BWAPI@@3VUnitType@2@B 0044bccc     BWAPI:UnitType.obj
 0003:00000cd0       ?Special_Khaydarin_Crystal_Form@UnitTypes@BWAPI@@3VUnitType@2@B 0044bcd0     BWAPI:UnitType.obj
 0003:00000cd4       ?Special_Right_Pit_Door@UnitTypes@BWAPI@@3VUnitType@2@B 0044bcd4     BWAPI:UnitType.obj
 0003:00000cd8       ?Protoss_Carrier@UnitTypes@BWAPI@@3VUnitType@2@B 0044bcd8     BWAPI:UnitType.obj
 0003:00000cdc       ?Zerg_Sunken_Colony@UnitTypes@BWAPI@@3VUnitType@2@B 0044bcdc     BWAPI:UnitType.obj
 0003:00000ce0       ?Powerup_Terran_Gas_Tank_Type_1@UnitTypes@BWAPI@@3VUnitType@2@B 0044bce0     BWAPI:UnitType.obj
 0003:00000ce4       ?Powerup_Mineral_Cluster_Type_1@UnitTypes@BWAPI@@3VUnitType@2@B 0044bce4     BWAPI:UnitType.obj
 0003:00000ce8       ?Zerg_Creep_Colony@UnitTypes@BWAPI@@3VUnitType@2@B 0044bce8     BWAPI:UnitType.obj
 0003:00000cec       ?Factories@UnitTypes@BWAPI@@3VUnitType@2@B 0044bcec     BWAPI:UnitType.obj
 0003:00000cf0       ?Protoss_Templar_Archives@UnitTypes@BWAPI@@3VUnitType@2@B 0044bcf0     BWAPI:UnitType.obj
 0003:00000cf4       ?Protoss_Observatory@UnitTypes@BWAPI@@3VUnitType@2@B 0044bcf4     BWAPI:UnitType.obj
 0003:00000cf8       ?Protoss_Gateway@UnitTypes@BWAPI@@3VUnitType@2@B 0044bcf8     BWAPI:UnitType.obj
 0003:00000cfc       ?Special_Pit_Door@UnitTypes@BWAPI@@3VUnitType@2@B 0044bcfc     BWAPI:UnitType.obj
 0003:00000d00       ?Powerup_Zerg_Gas_Sac_Type_1@UnitTypes@BWAPI@@3VUnitType@2@B 0044bd00     BWAPI:UnitType.obj
 0003:00000d04       ?Zerg_Devourer@UnitTypes@BWAPI@@3VUnitType@2@B 0044bd04     BWAPI:UnitType.obj
 0003:00000d08       ?Powerup_Data_Disk@UnitTypes@BWAPI@@3VUnitType@2@B 0044bd08     BWAPI:UnitType.obj
 0003:00000d0c       ?Zerg_Lair@UnitTypes@BWAPI@@3VUnitType@2@B 0044bd0c     BWAPI:UnitType.obj
 0003:00000d10       ?Special_Stasis_Cell_Prison@UnitTypes@BWAPI@@3VUnitType@2@B 0044bd10     BWAPI:UnitType.obj
 0003:00000d14       ?Protoss_Dragoon@UnitTypes@BWAPI@@3VUnitType@2@B 0044bd14     BWAPI:UnitType.obj
 0003:00000d18       ?Terran_Siege_Tank_Siege_Mode@UnitTypes@BWAPI@@3VUnitType@2@B 0044bd18     BWAPI:UnitType.obj
 0003:00000d1c       ?Zerg_Spawning_Pool@UnitTypes@BWAPI@@3VUnitType@2@B 0044bd1c     BWAPI:UnitType.obj
 0003:00000d20       ?Special_Floor_Hatch@UnitTypes@BWAPI@@3VUnitType@2@B 0044bd20     BWAPI:UnitType.obj
 0003:00000d24       ?Zerg_Scourge@UnitTypes@BWAPI@@3VUnitType@2@B 0044bd24     BWAPI:UnitType.obj
 0003:00000d28       ?Zerg_Ultralisk_Cavern@UnitTypes@BWAPI@@3VUnitType@2@B 0044bd28     BWAPI:UnitType.obj
 0003:00000d2c       ?Special_Floor_Gun_Trap@UnitTypes@BWAPI@@3VUnitType@2@B 0044bd2c     BWAPI:UnitType.obj
 0003:00000d30       ?Hero_Fenix_Dragoon@UnitTypes@BWAPI@@3VUnitType@2@B 0044bd30     BWAPI:UnitType.obj
 0003:00000d34       ?Protoss_Robotics_Support_Bay@UnitTypes@BWAPI@@3VUnitType@2@B 0044bd34     BWAPI:UnitType.obj
 0003:00000d38       ?Zerg_Hydralisk@UnitTypes@BWAPI@@3VUnitType@2@B 0044bd38     BWAPI:UnitType.obj
 0003:00000d3c       ?Zerg_Defiler@UnitTypes@BWAPI@@3VUnitType@2@B 0044bd3c     BWAPI:UnitType.obj
 0003:00000d40       ?Powerup_Protoss_Gas_Orb_Type_2@UnitTypes@BWAPI@@3VUnitType@2@B 0044bd40     BWAPI:UnitType.obj
 0003:00000d44       ?Zerg_Queen@UnitTypes@BWAPI@@3VUnitType@2@B 0044bd44     BWAPI:UnitType.obj
 0003:00000d48       ?Protoss_Robotics_Facility@UnitTypes@BWAPI@@3VUnitType@2@B 0044bd48     BWAPI:UnitType.obj
 0003:00000d4c       ?Critter_Rhynadon@UnitTypes@BWAPI@@3VUnitType@2@B 0044bd4c     BWAPI:UnitType.obj
 0003:00000d50       ?Special_Start_Location@UnitTypes@BWAPI@@3VUnitType@2@B 0044bd50     BWAPI:UnitType.obj
 0003:00000d54       ?Zerg_Mutalisk@UnitTypes@BWAPI@@3VUnitType@2@B 0044bd54     BWAPI:UnitType.obj
 0003:00000d58       ?Special_Independant_Starport@UnitTypes@BWAPI@@3VUnitType@2@B 0044bd58     BWAPI:UnitType.obj
 0003:00000d5c       ?Special_Overmind_Cocoon@UnitTypes@BWAPI@@3VUnitType@2@B 0044bd5c     BWAPI:UnitType.obj
 0003:00000d60       ?Special_Overmind@UnitTypes@BWAPI@@3VUnitType@2@B 0044bd60     BWAPI:UnitType.obj
 0003:00000d64       ?Special_Wall_Flame_Trap@UnitTypes@BWAPI@@3VUnitType@2@B 0044bd64     BWAPI:UnitType.obj
 0003:00000d68       ?unitTypeData@BWAPI@@3PAVUnitTypeInternal@1@A 0044bd68     BWAPI:UnitType.obj
 0003:00013058       ?unitTypeMap@BWAPI@@3V?$map@V?$basic_string@DU?$char_traits@D@std@@V?$allocator@D@2@@std@@VUnitType@BWAPI@@U?$less@V?$basic_string@DU?$char_traits@D@std@@V?$allocator@D@2@@std@@@2@V?$allocator@U?$pair@$$CBV?$basic_string@DU?$char_traits@D@std@@V?$allocator@D@2@@std@@VUnitType@BWAPI@@@std@@@2@@std@@A 0045e058     BWAPI:UnitType.obj
 0003:00013078       ?macroTypeSet@BWAPI@@3V?$set@VUnitType@BWAPI@@U?$less@VUnitType@BWAPI@@@std@@V?$allocator@VUnitType@BWAPI@@@4@@std@@A 0045e078     BWAPI:UnitType.obj
 0003:00013098       ?unitTypeSet@BWAPI@@3V?$set@VUnitType@BWAPI@@U?$less@VUnitType@BWAPI@@@std@@V?$allocator@VUnitType@BWAPI@@@4@@std@@A 0045e098     BWAPI:UnitType.obj
 0003:000130b8       ?Critter_Bengalaas@UnitTypes@BWAPI@@3VUnitType@2@B 0045e0b8     BWAPI:UnitType.obj
 0003:000130bc       ?Hero_Gui_Montag@UnitTypes@BWAPI@@3VUnitType@2@B 0045e0bc     BWAPI:UnitType.obj
 0003:000130c0       ?Hero_Tassadar@UnitTypes@BWAPI@@3VUnitType@2@B 0045e0c0     BWAPI:UnitType.obj
 0003:000130c4       ?Hero_Matriarch@UnitTypes@BWAPI@@3VUnitType@2@B 0045e0c4     BWAPI:UnitType.obj
 0003:000130c8       ?Hero_Gantrithor@UnitTypes@BWAPI@@3VUnitType@2@B 0045e0c8     BWAPI:UnitType.obj
 0003:000130cc       ?Spell_Dark_Swarm@UnitTypes@BWAPI@@3VUnitType@2@B 0045e0cc     BWAPI:UnitType.obj
 0003:000130d0       ?Hero_Arcturus_Mengsk@UnitTypes@BWAPI@@3VUnitType@2@B 0045e0d0     BWAPI:UnitType.obj
 0003:000130d4       ?Terran_Machine_Shop@UnitTypes@BWAPI@@3VUnitType@2@B 0045e0d4     BWAPI:UnitType.obj
 0003:000130d8       ?Protoss_Scout@UnitTypes@BWAPI@@3VUnitType@2@B 0045e0d8     BWAPI:UnitType.obj
 0003:000130dc       ?Special_Crashed_Norad_II@UnitTypes@BWAPI@@3VUnitType@2@B 0045e0dc     BWAPI:UnitType.obj
 0003:000130e0       ?Special_Right_Wall_Missile_Trap@UnitTypes@BWAPI@@3VUnitType@2@B 0045e0e0     BWAPI:UnitType.obj
 0003:000130e4       ?Terran_Siege_Tank_Tank_Mode@UnitTypes@BWAPI@@3VUnitType@2@B 0045e0e4     BWAPI:UnitType.obj
 0003:000130e8       ?Special_Map_Revealer@UnitTypes@BWAPI@@3VUnitType@2@B 0045e0e8     BWAPI:UnitType.obj
 0003:000130ec       ?Hero_Edmund_Duke_Siege_Mode@UnitTypes@BWAPI@@3VUnitType@2@B 0045e0ec     BWAPI:UnitType.obj
 0003:000130f0       ?Terran_Supply_Depot@UnitTypes@BWAPI@@3VUnitType@2@B 0045e0f0     BWAPI:UnitType.obj
 0003:000130f4       ?Hero_Norad_II@UnitTypes@BWAPI@@3VUnitType@2@B 0045e0f4     BWAPI:UnitType.obj
 0003:000130f8       ?Terran_Civilian@UnitTypes@BWAPI@@3VUnitType@2@B 0045e0f8     BWAPI:UnitType.obj
 0003:000130fc       ?Hero_Kukulza_Mutalisk@UnitTypes@BWAPI@@3VUnitType@2@B 0045e0fc     BWAPI:UnitType.obj
 0003:00013100       ?Zerg_Broodling@UnitTypes@BWAPI@@3VUnitType@2@B 0045e100     BWAPI:UnitType.obj
 0003:00013104       ?Hero_Jim_Raynor_Vulture@UnitTypes@BWAPI@@3VUnitType@2@B 0045e104     BWAPI:UnitType.obj
 0003:00013108       ?Special_Power_Generator@UnitTypes@BWAPI@@3VUnitType@2@B 0045e108     BWAPI:UnitType.obj
 0003:0001310c       ?Resource_Mineral_Field_Type_3@UnitTypes@BWAPI@@3VUnitType@2@B 0045e10c     BWAPI:UnitType.obj
 0003:00013110       ?Hero_Sarah_Kerrigan@UnitTypes@BWAPI@@3VUnitType@2@B 0045e110     BWAPI:UnitType.obj
 0003:00013114       ?Zerg_Lurker@UnitTypes@BWAPI@@3VUnitType@2@B 0045e114     BWAPI:UnitType.obj
 0003:00013118       ?Terran_Firebat@UnitTypes@BWAPI@@3VUnitType@2@B 0045e118     BWAPI:UnitType.obj
 0003:0001311c       ?Special_Protoss_Temple@UnitTypes@BWAPI@@3VUnitType@2@B 0045e11c     BWAPI:UnitType.obj
 0003:00013120       ?Hero_Aldaris@UnitTypes@BWAPI@@3VUnitType@2@B 0045e120     BWAPI:UnitType.obj
 0003:00013124       ?Terran_Control_Tower@UnitTypes@BWAPI@@3VUnitType@2@B 0045e124     BWAPI:UnitType.obj
 0003:00013128       ?Special_Protoss_Beacon@UnitTypes@BWAPI@@3VUnitType@2@B 0045e128     BWAPI:UnitType.obj
 0003:0001312c       ?Protoss_Dark_Templar@UnitTypes@BWAPI@@3VUnitType@2@B 0045e12c     BWAPI:UnitType.obj
 0003:00013130       ?Zerg_Zergling@UnitTypes@BWAPI@@3VUnitType@2@B 0045e130     BWAPI:UnitType.obj
 0003:00013134       ?Zerg_Overlord@UnitTypes@BWAPI@@3VUnitType@2@B 0045e134     BWAPI:UnitType.obj
 0003:00013138       ?Terran_Vulture_Spider_Mine@UnitTypes@BWAPI@@3VUnitType@2@B 0045e138     BWAPI:UnitType.obj
 0003:0001313c       ?Protoss_Pylon@UnitTypes@BWAPI@@3VUnitType@2@B 0045e13c     BWAPI:UnitType.obj
 0003:00013140       ?Terran_Barracks@UnitTypes@BWAPI@@3VUnitType@2@B 0045e140     BWAPI:UnitType.obj
 0003:00013144       ?Hero_Mojo@UnitTypes@BWAPI@@3VUnitType@2@B 0045e144     BWAPI:UnitType.obj
 0003:00013148       ?Special_Upper_Level_Door@UnitTypes@BWAPI@@3VUnitType@2@B 0045e148     BWAPI:UnitType.obj
 0003:0001314c       ?Protoss_Citadel_of_Adun@UnitTypes@BWAPI@@3VUnitType@2@B 0045e14c     BWAPI:UnitType.obj
 0003:00013150       ?Special_Terran_Flag_Beacon@UnitTypes@BWAPI@@3VUnitType@2@B 0045e150     BWAPI:UnitType.obj
 0003:00013154       ?Terran_Covert_Ops@UnitTypes@BWAPI@@3VUnitType@2@B 0045e154     BWAPI:UnitType.obj
 0003:00013158       ?AllUnits@UnitTypes@BWAPI@@3VUnitType@2@B 0045e158     BWAPI:UnitType.obj
 0003:0001315c       ?Protoss_Probe@UnitTypes@BWAPI@@3VUnitType@2@B 0045e15c     BWAPI:UnitType.obj
 0003:00013160       ?Resource_Vespene_Geyser@UnitTypes@BWAPI@@3VUnitType@2@B 0045e160     BWAPI:UnitType.obj
 0003:00013164       ?Zerg_Egg@UnitTypes@BWAPI@@3VUnitType@2@B 0045e164     BWAPI:UnitType.obj
 0003:00013168       ?Special_Cargo_Ship@UnitTypes@BWAPI@@3VUnitType@2@B 0045e168     BWAPI:UnitType.obj
 0003:0001316c       ?Hero_Kukulza_Guardian@UnitTypes@BWAPI@@3VUnitType@2@B 0045e16c     BWAPI:UnitType.obj
 0003:00013170       ?Zerg_Defiler_Mound@UnitTypes@BWAPI@@3VUnitType@2@B 0045e170     BWAPI:UnitType.obj
 0003:00013174       ?Spell_Scanner_Sweep@UnitTypes@BWAPI@@3VUnitType@2@B 0045e174     BWAPI:UnitType.obj
 0003:00013178       ?Special_Psi_Disrupter@UnitTypes@BWAPI@@3VUnitType@2@B 0045e178     BWAPI:UnitType.obj
 0003:0001317c       ?Protoss_Archon@UnitTypes@BWAPI@@3VUnitType@2@B 0045e17c     BWAPI:UnitType.obj
 0003:00013180       ?Terran_Comsat_Station@UnitTypes@BWAPI@@3VUnitType@2@B 0045e180     BWAPI:UnitType.obj
 0003:00013188       ?specialWeaponTypeSet@BWAPI@@3V?$set@VWeaponType@BWAPI@@U?$less@VWeaponType@BWAPI@@@std@@V?$allocator@VWeaponType@BWAPI@@@4@@std@@A 0045e188     BWAPI:WeaponType.obj
 0003:000131a8       ?weaponTypeMap@BWAPI@@3V?$map@V?$basic_string@DU?$char_traits@D@std@@V?$allocator@D@2@@std@@VWeaponType@BWAPI@@U?$less@V?$basic_string@DU?$char_traits@D@std@@V?$allocator@D@2@@std@@@2@V?$allocator@U?$pair@$$CBV?$basic_string@DU?$char_traits@D@std@@V?$allocator@D@2@@std@@VWeaponType@BWAPI@@@std@@@2@@std@@A 0045e1a8     BWAPI:WeaponType.obj
 0003:000131c8       ?weaponTypeData@BWAPI@@3PAVWeaponTypeInternal@1@A 0045e1c8     BWAPI:WeaponType.obj
 0003:00016348       ?weaponTypeSet@BWAPI@@3V?$set@VWeaponType@BWAPI@@U?$less@VWeaponType@BWAPI@@@std@@V?$allocator@VWeaponType@BWAPI@@@4@@std@@A 00461348     BWAPI:WeaponType.obj
 0003:00016368       ?Unknown@WeaponTypes@BWAPI@@3VWeaponType@2@B 00461368     BWAPI:WeaponType.obj
 0003:0001636c       ?Phase_Disruptor@WeaponTypes@BWAPI@@3VWeaponType@2@B 0046136c     BWAPI:WeaponType.obj
 0003:00016370       ?Spawn_Broodlings@WeaponTypes@BWAPI@@3VWeaponType@2@B 00461370     BWAPI:WeaponType.obj
 0003:00016374       ?ATA_Laser_Battery_Hero@WeaponTypes@BWAPI@@3VWeaponType@2@B 00461374     BWAPI:WeaponType.obj
 0003:00016378       ?Acid_Spore_Kukulza@WeaponTypes@BWAPI@@3VWeaponType@2@B 00461378     BWAPI:WeaponType.obj
 0003:0001637c       ?Warp_Blades_Zeratul@WeaponTypes@BWAPI@@3VWeaponType@2@B 0046137c     BWAPI:WeaponType.obj
 0003:00016380       ?C_10_Canister_Rifle@WeaponTypes@BWAPI@@3VWeaponType@2@B 00461380     BWAPI:WeaponType.obj
 0003:00016384       ?Irradiate@WeaponTypes@BWAPI@@3VWeaponType@2@B 00461384     BWAPI:WeaponType.obj
 0003:00016388       ?Needle_Spines@WeaponTypes@BWAPI@@3VWeaponType@2@B 00461388     BWAPI:WeaponType.obj
 0003:0001638c       ?Twin_Autocannons_Floor_Trap@WeaponTypes@BWAPI@@3VWeaponType@2@B 0046138c     BWAPI:WeaponType.obj
 0003:00016390       ?Claws@WeaponTypes@BWAPI@@3VWeaponType@2@B 00461390     BWAPI:WeaponType.obj
 0003:00016394       ?Pulse_Cannon@WeaponTypes@BWAPI@@3VWeaponType@2@B 00461394     BWAPI:WeaponType.obj
 0003:00016398       ?None@WeaponTypes@BWAPI@@3VWeaponType@2@B 00461398     BWAPI:WeaponType.obj
 0003:0001639c       ?Consume@WeaponTypes@BWAPI@@3VWeaponType@2@B 0046139c     BWAPI:WeaponType.obj
 0003:000163a0       ?C_10_Canister_Rifle_Alexei_Stukov@WeaponTypes@BWAPI@@3VWeaponType@2@B 004613a0     BWAPI:WeaponType.obj
 0003:000163a4       ?Phase_Disruptor_Cannon@WeaponTypes@BWAPI@@3VWeaponType@2@B 004613a4     BWAPI:WeaponType.obj
 0003:000163a8       ?Fusion_Cutter@WeaponTypes@BWAPI@@3VWeaponType@2@B 004613a8     BWAPI:WeaponType.obj
 0003:000163ac       ?Restoration@WeaponTypes@BWAPI@@3VWeaponType@2@B 004613ac     BWAPI:WeaponType.obj
 0003:000163b0       ?Claws_Infested_Kerrigan@WeaponTypes@BWAPI@@3VWeaponType@2@B 004613b0     BWAPI:WeaponType.obj
 0003:000163b4       ?Plague@WeaponTypes@BWAPI@@3VWeaponType@2@B 004613b4     BWAPI:WeaponType.obj
 0003:000163b8       ?STA_Photon_Cannon@WeaponTypes@BWAPI@@3VWeaponType@2@B 004613b8     BWAPI:WeaponType.obj
 0003:000163bc       ?Dark_Swarm@WeaponTypes@BWAPI@@3VWeaponType@2@B 004613bc     BWAPI:WeaponType.obj
 0003:000163c0       ?EMP_Shockwave@WeaponTypes@BWAPI@@3VWeaponType@2@B 004613c0     BWAPI:WeaponType.obj
 0003:000163c4       ?Suicide_Infested_Terran@WeaponTypes@BWAPI@@3VWeaponType@2@B 004613c4     BWAPI:WeaponType.obj
 0003:000163c8       ?ATA_Laser_Battery_Hyperion@WeaponTypes@BWAPI@@3VWeaponType@2@B 004613c8     BWAPI:WeaponType.obj
 0003:000163cc       ?Psionic_Shockwave_TZ_Archon@WeaponTypes@BWAPI@@3VWeaponType@2@B 004613cc     BWAPI:WeaponType.obj
 0003:000163d0       ?Arclite_Cannon@WeaponTypes@BWAPI@@3VWeaponType@2@B 004613d0     BWAPI:WeaponType.obj
 0003:000163d4       ?Dual_Photon_Blasters_Mojo@WeaponTypes@BWAPI@@3VWeaponType@2@B 004613d4     BWAPI:WeaponType.obj
 0003:000163d8       ?Hellfire_Missile_Pack_Floor_Trap@WeaponTypes@BWAPI@@3VWeaponType@2@B 004613d8     BWAPI:WeaponType.obj
 0003:000163dc       ?Arclite_Cannon_Edmund_Duke@WeaponTypes@BWAPI@@3VWeaponType@2@B 004613dc     BWAPI:WeaponType.obj
 0003:000163e0       ?Gauss_Rifle@WeaponTypes@BWAPI@@3VWeaponType@2@B 004613e0     BWAPI:WeaponType.obj
 0003:000163e4       ?Hellfire_Missile_Pack_Wall_Trap@WeaponTypes@BWAPI@@3VWeaponType@2@B 004613e4     BWAPI:WeaponType.obj
 0003:000163e8       ?Scarab@WeaponTypes@BWAPI@@3VWeaponType@2@B 004613e8     BWAPI:WeaponType.obj
 0003:000163ec       ?Arclite_Shock_Cannon_Edmund_Duke@WeaponTypes@BWAPI@@3VWeaponType@2@B 004613ec     BWAPI:WeaponType.obj
 0003:000163f0       ?Nuclear_Strike@WeaponTypes@BWAPI@@3VWeaponType@2@B 004613f0     BWAPI:WeaponType.obj
 0003:000163f4       ?Longbolt_Missile@WeaponTypes@BWAPI@@3VWeaponType@2@B 004613f4     BWAPI:WeaponType.obj
 0003:000163f8       ?Optical_Flare@WeaponTypes@BWAPI@@3VWeaponType@2@B 004613f8     BWAPI:WeaponType.obj
 0003:000163fc       ?Fragmentation_Grenade_Jim_Raynor@WeaponTypes@BWAPI@@3VWeaponType@2@B 004613fc     BWAPI:WeaponType.obj
 0003:00016400       ?Lockdown@WeaponTypes@BWAPI@@3VWeaponType@2@B 00461400     BWAPI:WeaponType.obj
 0003:00016404       ?Arclite_Shock_Cannon@WeaponTypes@BWAPI@@3VWeaponType@2@B 00461404     BWAPI:WeaponType.obj
 0003:00016408       ?Flame_Thrower_Gui_Montag@WeaponTypes@BWAPI@@3VWeaponType@2@B 00461408     BWAPI:WeaponType.obj
 0003:0001640c       ?Gauss_Rifle_Jim_Raynor@WeaponTypes@BWAPI@@3VWeaponType@2@B 0046140c     BWAPI:WeaponType.obj
 0003:00016410       ?Subterranean_Spines@WeaponTypes@BWAPI@@3VWeaponType@2@B 00461410     BWAPI:WeaponType.obj
 0003:00016414       ?Dual_Photon_Blasters@WeaponTypes@BWAPI@@3VWeaponType@2@B 00461414     BWAPI:WeaponType.obj
 0003:00016418       ?Spider_Mines@WeaponTypes@BWAPI@@3VWeaponType@2@B 00461418     BWAPI:WeaponType.obj
 0003:0001641c       ?Gemini_Missiles@WeaponTypes@BWAPI@@3VWeaponType@2@B 0046141c     BWAPI:WeaponType.obj
 0003:00016420       ?Glave_Wurm_Kukulza@WeaponTypes@BWAPI@@3VWeaponType@2@B 00461420     BWAPI:WeaponType.obj
 0003:00016424       ?Neutron_Flare@WeaponTypes@BWAPI@@3VWeaponType@2@B 00461424     BWAPI:WeaponType.obj
 0003:00016428       ?Burst_Lasers@WeaponTypes@BWAPI@@3VWeaponType@2@B 00461428     BWAPI:WeaponType.obj
 0003:0001642c       ?Yamato_Gun@WeaponTypes@BWAPI@@3VWeaponType@2@B 0046142c     BWAPI:WeaponType.obj
 0003:00016430       ?Claws_Devouring_One@WeaponTypes@BWAPI@@3VWeaponType@2@B 00461430     BWAPI:WeaponType.obj
 0003:00016434       ?Burst_Lasers_Tom_Kazansky@WeaponTypes@BWAPI@@3VWeaponType@2@B 00461434     BWAPI:WeaponType.obj
 0003:00016438       ?Spines@WeaponTypes@BWAPI@@3VWeaponType@2@B 00461438     BWAPI:WeaponType.obj
 0003:0001643c       ?Gemini_Missiles_Tom_Kazansky@WeaponTypes@BWAPI@@3VWeaponType@2@B 0046143c     BWAPI:WeaponType.obj
 0003:00016440       ?Acid_Spore@WeaponTypes@BWAPI@@3VWeaponType@2@B 00461440     BWAPI:WeaponType.obj
 0003:00016444       ?Stasis_Field@WeaponTypes@BWAPI@@3VWeaponType@2@B 00461444     BWAPI:WeaponType.obj
 0003:00016448       ?Anti_Matter_Missiles@WeaponTypes@BWAPI@@3VWeaponType@2@B 00461448     BWAPI:WeaponType.obj
 0003:0001644c       ?STS_Photon_Cannon@WeaponTypes@BWAPI@@3VWeaponType@2@B 0046144c     BWAPI:WeaponType.obj
 0003:00016450       ?ATS_Laser_Battery_Hyperion@WeaponTypes@BWAPI@@3VWeaponType@2@B 00461450     BWAPI:WeaponType.obj
 0003:00016454       ?ATA_Laser_Battery@WeaponTypes@BWAPI@@3VWeaponType@2@B 00461454     BWAPI:WeaponType.obj
 0003:00016458       ?Toxic_Spores@WeaponTypes@BWAPI@@3VWeaponType@2@B 00461458     BWAPI:WeaponType.obj
 0003:0001645c       ?Warp_Blades@WeaponTypes@BWAPI@@3VWeaponType@2@B 0046145c     BWAPI:WeaponType.obj
 0003:00016460       ?ATS_Laser_Battery_Hero@WeaponTypes@BWAPI@@3VWeaponType@2@B 00461460     BWAPI:WeaponType.obj
 0003:00016464       ?Needle_Spines_Hunter_Killer@WeaponTypes@BWAPI@@3VWeaponType@2@B 00461464     BWAPI:WeaponType.obj
 0003:00016468       ?Corrosive_Acid@WeaponTypes@BWAPI@@3VWeaponType@2@B 00461468     BWAPI:WeaponType.obj
 0003:0001646c       ?C_10_Canister_Rifle_Infested_Duran@WeaponTypes@BWAPI@@3VWeaponType@2@B 0046146c     BWAPI:WeaponType.obj
 0003:00016470       ?C_10_Canister_Rifle_Samir_Duran@WeaponTypes@BWAPI@@3VWeaponType@2@B 00461470     BWAPI:WeaponType.obj
 0003:00016474       ?C_10_Canister_Rifle_Sarah_Kerrigan@WeaponTypes@BWAPI@@3VWeaponType@2@B 00461474     BWAPI:WeaponType.obj
 0003:00016478       ?Subterranean_Tentacle@WeaponTypes@BWAPI@@3VWeaponType@2@B 00461478     BWAPI:WeaponType.obj
 0003:0001647c       ?Kaiser_Blades_Torrasque@WeaponTypes@BWAPI@@3VWeaponType@2@B 0046147c     BWAPI:WeaponType.obj
 0003:00016480       ?Psi_Blades@WeaponTypes@BWAPI@@3VWeaponType@2@B 00461480     BWAPI:WeaponType.obj
 0003:00016484       ?Psi_Assault@WeaponTypes@BWAPI@@3VWeaponType@2@B 00461484     BWAPI:WeaponType.obj
 0003:00016488       ?Kaiser_Blades@WeaponTypes@BWAPI@@3VWeaponType@2@B 00461488     BWAPI:WeaponType.obj
 0003:0001648c       ?Independant_Laser_Battery@WeaponTypes@BWAPI@@3VWeaponType@2@B 0046148c     BWAPI:WeaponType.obj
 0003:00016490       ?Ensnare@WeaponTypes@BWAPI@@3VWeaponType@2@B 00461490     BWAPI:WeaponType.obj
 0003:00016494       ?ATS_Laser_Battery@WeaponTypes@BWAPI@@3VWeaponType@2@B 00461494     BWAPI:WeaponType.obj
 0003:00016498       ?Particle_Beam@WeaponTypes@BWAPI@@3VWeaponType@2@B 00461498     BWAPI:WeaponType.obj
 0003:0001649c       ?Disruption_Web@WeaponTypes@BWAPI@@3VWeaponType@2@B 0046149c     BWAPI:WeaponType.obj
 0003:000164a0       ?Flame_Thrower_Wall_Trap@WeaponTypes@BWAPI@@3VWeaponType@2@B 004614a0     BWAPI:WeaponType.obj
 0003:000164a4       ?Flame_Thrower@WeaponTypes@BWAPI@@3VWeaponType@2@B 004614a4     BWAPI:WeaponType.obj
 0003:000164a8       ?Psionic_Storm@WeaponTypes@BWAPI@@3VWeaponType@2@B 004614a8     BWAPI:WeaponType.obj
 0003:000164ac       ?Anti_Matter_Missiles_Mojo@WeaponTypes@BWAPI@@3VWeaponType@2@B 004614ac     BWAPI:WeaponType.obj
 0003:000164b0       ?Dual_Photon_Blasters_Artanis@WeaponTypes@BWAPI@@3VWeaponType@2@B 004614b0     BWAPI:WeaponType.obj
 0003:000164b4       ?Maelstrom@WeaponTypes@BWAPI@@3VWeaponType@2@B 004614b4     BWAPI:WeaponType.obj
 0003:000164b8       ?normalWeaponTypeSet@BWAPI@@3V?$set@VWeaponType@BWAPI@@U?$less@VWeaponType@BWAPI@@@std@@V?$allocator@VWeaponType@BWAPI@@@4@@std@@A 004614b8     BWAPI:WeaponType.obj
 0003:000164d8       ?Hellfire_Missile_Pack@WeaponTypes@BWAPI@@3VWeaponType@2@B 004614d8     BWAPI:WeaponType.obj
 0003:000164dc       ?Feedback@WeaponTypes@BWAPI@@3VWeaponType@2@B 004614dc     BWAPI:WeaponType.obj
 0003:000164e0       ?Twin_Autocannons_Alan_Schezar@WeaponTypes@BWAPI@@3VWeaponType@2@B 004614e0     BWAPI:WeaponType.obj
 0003:000164e4       ?Glave_Wurm@WeaponTypes@BWAPI@@3VWeaponType@2@B 004614e4     BWAPI:WeaponType.obj
 0003:000164e8       ?Mind_Control@WeaponTypes@BWAPI@@3VWeaponType@2@B 004614e8     BWAPI:WeaponType.obj
 0003:000164ec       ?Seeker_Spores@WeaponTypes@BWAPI@@3VWeaponType@2@B 004614ec     BWAPI:WeaponType.obj
 0003:000164f0       ?Psionic_Shockwave@WeaponTypes@BWAPI@@3VWeaponType@2@B 004614f0     BWAPI:WeaponType.obj
 0003:000164f4       ?Phase_Disruptor_Fenix@WeaponTypes@BWAPI@@3VWeaponType@2@B 004614f4     BWAPI:WeaponType.obj
 0003:000164f8       ?Warp_Blades_Hero@WeaponTypes@BWAPI@@3VWeaponType@2@B 004614f8     BWAPI:WeaponType.obj
 0003:000164fc       ?Psi_Blades_Fenix@WeaponTypes@BWAPI@@3VWeaponType@2@B 004614fc     BWAPI:WeaponType.obj
 0003:00016500       ?Phase_Disruptor_Cannon_Danimoth@WeaponTypes@BWAPI@@3VWeaponType@2@B 00461500     BWAPI:WeaponType.obj
 0003:00016504       ?Anti_Matter_Missiles_Artanis@WeaponTypes@BWAPI@@3VWeaponType@2@B 00461504     BWAPI:WeaponType.obj
 0003:00016508       ?Twin_Autocannons@WeaponTypes@BWAPI@@3VWeaponType@2@B 00461508     BWAPI:WeaponType.obj
 0003:0001650c       ?Fragmentation_Grenade@WeaponTypes@BWAPI@@3VWeaponType@2@B 0046150c     BWAPI:WeaponType.obj
 0003:00016510       ?Suicide_Scourge@WeaponTypes@BWAPI@@3VWeaponType@2@B 00461510     BWAPI:WeaponType.obj
 0003:00016514       ?Parasite@WeaponTypes@BWAPI@@3VWeaponType@2@B 00461514     BWAPI:WeaponType.obj
 0003:00016518       ?Halo_Rockets@WeaponTypes@BWAPI@@3VWeaponType@2@B 00461518     BWAPI:WeaponType.obj
 0003:0001651c       ?Hellfire_Missile_Pack_Alan_Schezar@WeaponTypes@BWAPI@@3VWeaponType@2@B 0046151c     BWAPI:WeaponType.obj
 0003:00016520       ?techTypeSet@BWAPI@@3V?$set@VTechType@BWAPI@@U?$less@VTechType@BWAPI@@@std@@V?$allocator@VTechType@BWAPI@@@4@@std@@A 00461520     BWAPI:TechType.obj
 0003:00016540       ?Unknown@TechTypes@BWAPI@@3VTechType@2@B 00461540     BWAPI:TechType.obj
 0003:00016544       ?Spawn_Broodlings@TechTypes@BWAPI@@3VTechType@2@B 00461544     BWAPI:TechType.obj
 0003:00016548       ?Irradiate@TechTypes@BWAPI@@3VTechType@2@B 00461548     BWAPI:TechType.obj
 0003:0001654c       ?None@TechTypes@BWAPI@@3VTechType@2@B 0046154c     BWAPI:TechType.obj
 0003:00016550       ?Consume@TechTypes@BWAPI@@3VTechType@2@B 00461550     BWAPI:TechType.obj
 0003:00016554       ?Restoration@TechTypes@BWAPI@@3VTechType@2@B 00461554     BWAPI:TechType.obj
 0003:00016558       ?Archon_Warp@TechTypes@BWAPI@@3VTechType@2@B 00461558     BWAPI:TechType.obj
 0003:0001655c       ?Plague@TechTypes@BWAPI@@3VTechType@2@B 0046155c     BWAPI:TechType.obj
 0003:00016560       ?Defensive_Matrix@TechTypes@BWAPI@@3VTechType@2@B 00461560     BWAPI:TechType.obj
 0003:00016564       ?Dark_Swarm@TechTypes@BWAPI@@3VTechType@2@B 00461564     BWAPI:TechType.obj
 0003:00016568       ?EMP_Shockwave@TechTypes@BWAPI@@3VTechType@2@B 00461568     BWAPI:TechType.obj
 0003:0001656c       ?Nuclear_Strike@TechTypes@BWAPI@@3VTechType@2@B 0046156c     BWAPI:TechType.obj
 0003:00016570       ?Optical_Flare@TechTypes@BWAPI@@3VTechType@2@B 00461570     BWAPI:TechType.obj
 0003:00016574       ?Lockdown@TechTypes@BWAPI@@3VTechType@2@B 00461574     BWAPI:TechType.obj
 0003:00016578       ?Lurker_Aspect@TechTypes@BWAPI@@3VTechType@2@B 00461578     BWAPI:TechType.obj
 0003:0001657c       ?Stim_Packs@TechTypes@BWAPI@@3VTechType@2@B 0046157c     BWAPI:TechType.obj
 0003:00016580       ?Tank_Siege_Mode@TechTypes@BWAPI@@3VTechType@2@B 00461580     BWAPI:TechType.obj
 0003:00016584       ?Healing@TechTypes@BWAPI@@3VTechType@2@B 00461584     BWAPI:TechType.obj
 0003:00016588       ?Spider_Mines@TechTypes@BWAPI@@3VTechType@2@B 00461588     BWAPI:TechType.obj
 0003:0001658c       ?Burrowing@TechTypes@BWAPI@@3VTechType@2@B 0046158c     BWAPI:TechType.obj
 0003:00016590       ?Yamato_Gun@TechTypes@BWAPI@@3VTechType@2@B 00461590     BWAPI:TechType.obj
 0003:00016594       ?Recall@TechTypes@BWAPI@@3VTechType@2@B 00461594     BWAPI:TechType.obj
 0003:00016598       ?Stasis_Field@TechTypes@BWAPI@@3VTechType@2@B 00461598     BWAPI:TechType.obj
 0003:0001659c       ?Cloaking_Field@TechTypes@BWAPI@@3VTechType@2@B 0046159c     BWAPI:TechType.obj
 0003:000165a0       ?Dark_Archon_Meld@TechTypes@BWAPI@@3VTechType@2@B 004615a0     BWAPI:TechType.obj
 0003:000165a4       ?Hallucination@TechTypes@BWAPI@@3VTechType@2@B 004615a4     BWAPI:TechType.obj
 0003:000165a8       ?Personnel_Cloaking@TechTypes@BWAPI@@3VTechType@2@B 004615a8     BWAPI:TechType.obj
 0003:000165ac       ?Scanner_Sweep@TechTypes@BWAPI@@3VTechType@2@B 004615ac     BWAPI:TechType.obj
 0003:000165b0       ?Infestation@TechTypes@BWAPI@@3VTechType@2@B 004615b0     BWAPI:TechType.obj
 0003:000165b4       ?Ensnare@TechTypes@BWAPI@@3VTechType@2@B 004615b4     BWAPI:TechType.obj
 0003:000165b8       ?techTypeMap@BWAPI@@3V?$map@V?$basic_string@DU?$char_traits@D@std@@V?$allocator@D@2@@std@@VTechType@BWAPI@@U?$less@V?$basic_string@DU?$char_traits@D@std@@V?$allocator@D@2@@std@@@2@V?$allocator@U?$pair@$$CBV?$basic_string@DU?$char_traits@D@std@@V?$allocator@D@2@@std@@VTechType@BWAPI@@@std@@@2@@std@@A 004615b8     BWAPI:TechType.obj
 0003:000165d8       ?Disruption_Web@TechTypes@BWAPI@@3VTechType@2@B 004615d8     BWAPI:TechType.obj
 0003:000165dc       ?Psionic_Storm@TechTypes@BWAPI@@3VTechType@2@B 004615dc     BWAPI:TechType.obj
 0003:000165e0       ?Maelstrom@TechTypes@BWAPI@@3VTechType@2@B 004615e0     BWAPI:TechType.obj
 0003:000165e4       ?Feedback@TechTypes@BWAPI@@3VTechType@2@B 004615e4     BWAPI:TechType.obj
 0003:000165e8       ?Mind_Control@TechTypes@BWAPI@@3VTechType@2@B 004615e8     BWAPI:TechType.obj
 0003:000165ec       ?Parasite@TechTypes@BWAPI@@3VTechType@2@B 004615ec     BWAPI:TechType.obj
 0003:000165f0       ?techTypeData@BWAPI@@3PAVTechTypeInternal@1@A 004615f0     BWAPI:TechType.obj
 0003:00017850       ?upgradeTypeData@BWAPI@@3PAVUpgradeTypeInternal@1@A 00462850     BWAPI:UpgradeType.obj
 0003:000193e0       ?Ocular_Implants@UpgradeTypes@BWAPI@@3VUpgradeType@2@B 004643e0     BWAPI:UpgradeType.obj
 0003:000193e4       ?Unknown@UpgradeTypes@BWAPI@@3VUpgradeType@2@B 004643e4     BWAPI:UpgradeType.obj
 0003:000193e8       ?Gamete_Meiosis@UpgradeTypes@BWAPI@@3VUpgradeType@2@B 004643e8     BWAPI:UpgradeType.obj
 0003:000193ec       ?Charon_Boosters@UpgradeTypes@BWAPI@@3VUpgradeType@2@B 004643ec     BWAPI:UpgradeType.obj
 0003:000193f0       ?Ventral_Sacs@UpgradeTypes@BWAPI@@3VUpgradeType@2@B 004643f0     BWAPI:UpgradeType.obj
 0003:000193f4       ?None@UpgradeTypes@BWAPI@@3VUpgradeType@2@B 004643f4     BWAPI:UpgradeType.obj
 0003:000193f8       ?Zerg_Missile_Attacks@UpgradeTypes@BWAPI@@3VUpgradeType@2@B 004643f8     BWAPI:UpgradeType.obj
 0003:000193fc       ?Zerg_Flyer_Attacks@UpgradeTypes@BWAPI@@3VUpgradeType@2@B 004643fc     BWAPI:UpgradeType.obj
 0003:00019400       ?Carrier_Capacity@UpgradeTypes@BWAPI@@3VUpgradeType@2@B 00464400     BWAPI:UpgradeType.obj
 0003:00019404       ?Zerg_Melee_Attacks@UpgradeTypes@BWAPI@@3VUpgradeType@2@B 00464404     BWAPI:UpgradeType.obj
 0003:00019408       ?Ion_Thrusters@UpgradeTypes@BWAPI@@3VUpgradeType@2@B 00464408     BWAPI:UpgradeType.obj
 0003:0001940c       ?Terran_Ship_Plating@UpgradeTypes@BWAPI@@3VUpgradeType@2@B 0046440c     BWAPI:UpgradeType.obj
 0003:00019410       ?Protoss_Air_Weapons@UpgradeTypes@BWAPI@@3VUpgradeType@2@B 00464410     BWAPI:UpgradeType.obj
 0003:00019414       ?Protoss_Ground_Weapons@UpgradeTypes@BWAPI@@3VUpgradeType@2@B 00464414     BWAPI:UpgradeType.obj
 0003:00019418       ?Antennae@UpgradeTypes@BWAPI@@3VUpgradeType@2@B 00464418     BWAPI:UpgradeType.obj
 0003:0001941c       ?Moebius_Reactor@UpgradeTypes@BWAPI@@3VUpgradeType@2@B 0046441c     BWAPI:UpgradeType.obj
 0003:00019420       ?Argus_Talisman@UpgradeTypes@BWAPI@@3VUpgradeType@2@B 00464420     BWAPI:UpgradeType.obj
 0003:00019424       ?Sensor_Array@UpgradeTypes@BWAPI@@3VUpgradeType@2@B 00464424     BWAPI:UpgradeType.obj
 0003:00019428       ?Singularity_Charge@UpgradeTypes@BWAPI@@3VUpgradeType@2@B 00464428     BWAPI:UpgradeType.obj
 0003:0001942c       ?Scarab_Damage@UpgradeTypes@BWAPI@@3VUpgradeType@2@B 0046442c     BWAPI:UpgradeType.obj
 0003:00019430       ?Titan_Reactor@UpgradeTypes@BWAPI@@3VUpgradeType@2@B 00464430     BWAPI:UpgradeType.obj
 0003:00019434       ?Terran_Infantry_Weapons@UpgradeTypes@BWAPI@@3VUpgradeType@2@B 00464434     BWAPI:UpgradeType.obj
 0003:00019438       ?Colossus_Reactor@UpgradeTypes@BWAPI@@3VUpgradeType@2@B 00464438     BWAPI:UpgradeType.obj
 0003:0001943c       ?Caduceus_Reactor@UpgradeTypes@BWAPI@@3VUpgradeType@2@B 0046443c     BWAPI:UpgradeType.obj
 0003:00019440       ?Adrenal_Glands@UpgradeTypes@BWAPI@@3VUpgradeType@2@B 00464440     BWAPI:UpgradeType.obj
 0003:00019444       ?Protoss_Air_Armor@UpgradeTypes@BWAPI@@3VUpgradeType@2@B 00464444     BWAPI:UpgradeType.obj
 0003:00019448       ?Metasynaptic_Node@UpgradeTypes@BWAPI@@3VUpgradeType@2@B 00464448     BWAPI:UpgradeType.obj
 0003:0001944c       ?Protoss_Plasma_Shields@UpgradeTypes@BWAPI@@3VUpgradeType@2@B 0046444c     BWAPI:UpgradeType.obj
 0003:00019450       ?Terran_Infantry_Armor@UpgradeTypes@BWAPI@@3VUpgradeType@2@B 00464450     BWAPI:UpgradeType.obj
 0003:00019454       ?Grooved_Spines@UpgradeTypes@BWAPI@@3VUpgradeType@2@B 00464454     BWAPI:UpgradeType.obj
 0003:00019458       ?Khaydarin_Amulet@UpgradeTypes@BWAPI@@3VUpgradeType@2@B 00464458     BWAPI:UpgradeType.obj
 0003:0001945c       ?U_238_Shells@UpgradeTypes@BWAPI@@3VUpgradeType@2@B 0046445c     BWAPI:UpgradeType.obj
 0003:00019460       ?Anabolic_Synthesis@UpgradeTypes@BWAPI@@3VUpgradeType@2@B 00464460     BWAPI:UpgradeType.obj
 0003:00019464       ?Metabolic_Boost@UpgradeTypes@BWAPI@@3VUpgradeType@2@B 00464464     BWAPI:UpgradeType.obj
 0003:00019468       ?Khaydarin_Core@UpgradeTypes@BWAPI@@3VUpgradeType@2@B 00464468     BWAPI:UpgradeType.obj
 0003:0001946c       ?Leg_Enhancements@UpgradeTypes@BWAPI@@3VUpgradeType@2@B 0046446c     BWAPI:UpgradeType.obj
 0003:00019470       ?upgradeTypeSet@BWAPI@@3V?$set@VUpgradeType@BWAPI@@U?$less@VUpgradeType@BWAPI@@@std@@V?$allocator@VUpgradeType@BWAPI@@@4@@std@@A 00464470     BWAPI:UpgradeType.obj
 0003:00019490       ?Zerg_Carapace@UpgradeTypes@BWAPI@@3VUpgradeType@2@B 00464490     BWAPI:UpgradeType.obj
 0003:00019494       ?Argus_Jewel@UpgradeTypes@BWAPI@@3VUpgradeType@2@B 00464494     BWAPI:UpgradeType.obj
 0003:00019498       ?Apollo_Reactor@UpgradeTypes@BWAPI@@3VUpgradeType@2@B 00464498     BWAPI:UpgradeType.obj
 0003:0001949c       ?Protoss_Ground_Armor@UpgradeTypes@BWAPI@@3VUpgradeType@2@B 0046449c     BWAPI:UpgradeType.obj
 0003:000194a0       ?Apial_Sensors@UpgradeTypes@BWAPI@@3VUpgradeType@2@B 004644a0     BWAPI:UpgradeType.obj
 0003:000194a4       ?Reaver_Capacity@UpgradeTypes@BWAPI@@3VUpgradeType@2@B 004644a4     BWAPI:UpgradeType.obj
 0003:000194a8       ?Terran_Ship_Weapons@UpgradeTypes@BWAPI@@3VUpgradeType@2@B 004644a8     BWAPI:UpgradeType.obj
 0003:000194ac       ?Terran_Vehicle_Plating@UpgradeTypes@BWAPI@@3VUpgradeType@2@B 004644ac     BWAPI:UpgradeType.obj
 0003:000194b0       ?Pneumatized_Carapace@UpgradeTypes@BWAPI@@3VUpgradeType@2@B 004644b0     BWAPI:UpgradeType.obj
 0003:000194b4       ?Chitinous_Plating@UpgradeTypes@BWAPI@@3VUpgradeType@2@B 004644b4     BWAPI:UpgradeType.obj
 0003:000194b8       ?Muscular_Augments@UpgradeTypes@BWAPI@@3VUpgradeType@2@B 004644b8     BWAPI:UpgradeType.obj
 0003:000194bc       ?Terran_Vehicle_Weapons@UpgradeTypes@BWAPI@@3VUpgradeType@2@B 004644bc     BWAPI:UpgradeType.obj
 0003:000194c0       ?upgradeTypeMap@BWAPI@@3V?$map@V?$basic_string@DU?$char_traits@D@std@@V?$allocator@D@2@@std@@VUpgradeType@BWAPI@@U?$less@V?$basic_string@DU?$char_traits@D@std@@V?$allocator@D@2@@std@@@2@V?$allocator@U?$pair@$$CBV?$basic_string@DU?$char_traits@D@std@@V?$allocator@D@2@@std@@VUpgradeType@BWAPI@@@std@@@2@@std@@A 004644c0     BWAPI:UpgradeType.obj
 0003:000194e0       ?Gravitic_Drive@UpgradeTypes@BWAPI@@3VUpgradeType@2@B 004644e0     BWAPI:UpgradeType.obj
 0003:000194e4       ?Gravitic_Thrusters@UpgradeTypes@BWAPI@@3VUpgradeType@2@B 004644e4     BWAPI:UpgradeType.obj
 0003:000194e8       ?Gravitic_Boosters@UpgradeTypes@BWAPI@@3VUpgradeType@2@B 004644e8     BWAPI:UpgradeType.obj
 0003:000194ec       ?Zerg_Flyer_Carapace@UpgradeTypes@BWAPI@@3VUpgradeType@2@B 004644ec     BWAPI:UpgradeType.obj
 0003:000194f0       ?raceData@BWAPI@@3PAVRaceInternal@1@A 004644f0     BWAPI:Race.obj
 0003:00019640       ?raceMap@BWAPI@@3V?$map@V?$basic_string@DU?$char_traits@D@std@@V?$allocator@D@2@@std@@VRace@BWAPI@@U?$less@V?$basic_string@DU?$char_traits@D@std@@V?$allocator@D@2@@std@@@2@V?$allocator@U?$pair@$$CBV?$basic_string@DU?$char_traits@D@std@@V?$allocator@D@2@@std@@VRace@BWAPI@@@std@@@2@@std@@A 00464640     BWAPI:Race.obj
 0003:00019660       ?raceSet@BWAPI@@3V?$set@VRace@BWAPI@@U?$less@VRace@BWAPI@@@std@@V?$allocator@VRace@BWAPI@@@4@@std@@A 00464660     BWAPI:Race.obj
 0003:00019680       ?Unknown@Races@BWAPI@@3VRace@2@B 00464680     BWAPI:Race.obj
 0003:00019684       ?None@Races@BWAPI@@3VRace@2@B 00464684     BWAPI:Race.obj
 0003:00019688       ?Terran@Races@BWAPI@@3VRace@2@B 00464688     BWAPI:Race.obj
 0003:0001968c       ?Other@Races@BWAPI@@3VRace@2@B 0046468c     BWAPI:Race.obj
 0003:00019690       ?Protoss@Races@BWAPI@@3VRace@2@B 00464690     BWAPI:Race.obj
 0003:00019694       ?Random@Races@BWAPI@@3VRace@2@B 00464694     BWAPI:Race.obj
 0003:00019698       ?Zerg@Races@BWAPI@@3VRace@2@B 00464698     BWAPI:Race.obj
 0003:000196a0       ?unitSizeTypeName@BWAPI@@3PAV?$basic_string@DU?$char_traits@D@std@@V?$allocator@D@2@@std@@A 004646a0     BWAPI:UnitSizeType.obj
 0003:00019748       ?Unknown@UnitSizeTypes@BWAPI@@3VUnitSizeType@2@B 00464748     BWAPI:UnitSizeType.obj
 0003:0001974c       ?None@UnitSizeTypes@BWAPI@@3VUnitSizeType@2@B 0046474c     BWAPI:UnitSizeType.obj
 0003:00019750       ?Small@UnitSizeTypes@BWAPI@@3VUnitSizeType@2@B 00464750     BWAPI:UnitSizeType.obj
 0003:00019754       ?Large@UnitSizeTypes@BWAPI@@3VUnitSizeType@2@B 00464754     BWAPI:UnitSizeType.obj
 0003:00019758       ?unitSizeTypeSet@BWAPI@@3V?$set@VUnitSizeType@BWAPI@@U?$less@VUnitSizeType@BWAPI@@@std@@V?$allocator@VUnitSizeType@BWAPI@@@4@@std@@A 00464758     BWAPI:UnitSizeType.obj
 0003:00019778       ?unitSizeTypeMap@BWAPI@@3V?$map@V?$basic_string@DU?$char_traits@D@std@@V?$allocator@D@2@@std@@VUnitSizeType@BWAPI@@U?$less@V?$basic_string@DU?$char_traits@D@std@@V?$allocator@D@2@@std@@@2@V?$allocator@U?$pair@$$CBV?$basic_string@DU?$char_traits@D@std@@V?$allocator@D@2@@std@@VUnitSizeType@BWAPI@@@std@@@2@@std@@A 00464778     BWAPI:UnitSizeType.obj
 0003:00019798       ?Medium@UnitSizeTypes@BWAPI@@3VUnitSizeType@2@B 00464798     BWAPI:UnitSizeType.obj
 0003:0001979c       ?Independent@UnitSizeTypes@BWAPI@@3VUnitSizeType@2@B 0046479c     BWAPI:UnitSizeType.obj
 0003:000197a0       ?explosionTypeSet@BWAPI@@3V?$set@VExplosionType@BWAPI@@U?$less@VExplosionType@BWAPI@@@std@@V?$allocator@VExplosionType@BWAPI@@@4@@std@@A 004647a0     BWAPI:ExplosionType.obj
 0003:000197c0       ?explosionTypeName@BWAPI@@3PAV?$basic_string@DU?$char_traits@D@std@@V?$allocator@D@2@@std@@A 004647c0     BWAPI:ExplosionType.obj
 0003:00019a98       ?explosionTypeMap@BWAPI@@3V?$map@V?$basic_string@DU?$char_traits@D@std@@V?$allocator@D@2@@std@@VExplosionType@BWAPI@@U?$less@V?$basic_string@DU?$char_traits@D@std@@V?$allocator@D@2@@std@@@2@V?$allocator@U?$pair@$$CBV?$basic_string@DU?$char_traits@D@std@@V?$allocator@D@2@@std@@VExplosionType@BWAPI@@@std@@@2@@std@@A 00464a98     BWAPI:ExplosionType.obj
 0003:00019ab8       ?Unknown@ExplosionTypes@BWAPI@@3VExplosionType@2@B 00464ab8     BWAPI:ExplosionType.obj
 0003:00019abc       ?Irradiate@ExplosionTypes@BWAPI@@3VExplosionType@2@B 00464abc     BWAPI:ExplosionType.obj
 0003:00019ac0       ?None@ExplosionTypes@BWAPI@@3VExplosionType@2@B 00464ac0     BWAPI:ExplosionType.obj
 0003:00019ac4       ?Consume@ExplosionTypes@BWAPI@@3VExplosionType@2@B 00464ac4     BWAPI:ExplosionType.obj
 0003:00019ac8       ?Restoration@ExplosionTypes@BWAPI@@3VExplosionType@2@B 00464ac8     BWAPI:ExplosionType.obj
 0003:00019acc       ?Plague@ExplosionTypes@BWAPI@@3VExplosionType@2@B 00464acc     BWAPI:ExplosionType.obj
 0003:00019ad0       ?Enemy_Splash@ExplosionTypes@BWAPI@@3VExplosionType@2@B 00464ad0     BWAPI:ExplosionType.obj
 0003:00019ad4       ?Dark_Swarm@ExplosionTypes@BWAPI@@3VExplosionType@2@B 00464ad4     BWAPI:ExplosionType.obj
 0003:00019ad8       ?EMP_Shockwave@ExplosionTypes@BWAPI@@3VExplosionType@2@B 00464ad8     BWAPI:ExplosionType.obj
 0003:00019adc       ?Normal@ExplosionTypes@BWAPI@@3VExplosionType@2@B 00464adc     BWAPI:ExplosionType.obj
 0003:00019ae0       ?Broodlings@ExplosionTypes@BWAPI@@3VExplosionType@2@B 00464ae0     BWAPI:ExplosionType.obj
 0003:00019ae4       ?Optical_Flare@ExplosionTypes@BWAPI@@3VExplosionType@2@B 00464ae4     BWAPI:ExplosionType.obj
 0003:00019ae8       ?Lockdown@ExplosionTypes@BWAPI@@3VExplosionType@2@B 00464ae8     BWAPI:ExplosionType.obj
 0003:00019aec       ?Yamato_Gun@ExplosionTypes@BWAPI@@3VExplosionType@2@B 00464aec     BWAPI:ExplosionType.obj
 0003:00019af0       ?Air_Splash@ExplosionTypes@BWAPI@@3VExplosionType@2@B 00464af0     BWAPI:ExplosionType.obj
 0003:00019af4       ?Nuclear_Missile@ExplosionTypes@BWAPI@@3VExplosionType@2@B 00464af4     BWAPI:ExplosionType.obj
 0003:00019af8       ?Stasis_Field@ExplosionTypes@BWAPI@@3VExplosionType@2@B 00464af8     BWAPI:ExplosionType.obj
 0003:00019afc       ?Radial_Splash@ExplosionTypes@BWAPI@@3VExplosionType@2@B 00464afc     BWAPI:ExplosionType.obj
 0003:00019b00       ?Corrosive_Acid@ExplosionTypes@BWAPI@@3VExplosionType@2@B 00464b00     BWAPI:ExplosionType.obj
 0003:00019b04       ?Ensnare@ExplosionTypes@BWAPI@@3VExplosionType@2@B 00464b04     BWAPI:ExplosionType.obj
 0003:00019b08       ?Disruption_Web@ExplosionTypes@BWAPI@@3VExplosionType@2@B 00464b08     BWAPI:ExplosionType.obj
 0003:00019b0c       ?Maelstrom@ExplosionTypes@BWAPI@@3VExplosionType@2@B 00464b0c     BWAPI:ExplosionType.obj
 0003:00019b10       ?Feedback@ExplosionTypes@BWAPI@@3VExplosionType@2@B 00464b10     BWAPI:ExplosionType.obj
 0003:00019b14       ?Mind_Control@ExplosionTypes@BWAPI@@3VExplosionType@2@B 00464b14     BWAPI:ExplosionType.obj
 0003:00019b18       ?Parasite@ExplosionTypes@BWAPI@@3VExplosionType@2@B 00464b18     BWAPI:ExplosionType.obj
 0003:00019b20       ?Unknown@DamageTypes@BWAPI@@3VDamageType@2@B 00464b20     BWAPI:DamageType.obj
 0003:00019b24       ?None@DamageTypes@BWAPI@@3VDamageType@2@B 00464b24     BWAPI:DamageType.obj
 0003:00019b28       ?Explosive@DamageTypes@BWAPI@@3VDamageType@2@B 00464b28     BWAPI:DamageType.obj
 0003:00019b2c       ?Normal@DamageTypes@BWAPI@@3VDamageType@2@B 00464b2c     BWAPI:DamageType.obj
 0003:00019b30       ?Ignore_Armor@DamageTypes@BWAPI@@3VDamageType@2@B 00464b30     BWAPI:DamageType.obj
 0003:00019b34       ?Concussive@DamageTypes@BWAPI@@3VDamageType@2@B 00464b34     BWAPI:DamageType.obj
 0003:00019b38       ?damageTypeName@BWAPI@@3PAV?$basic_string@DU?$char_traits@D@std@@V?$allocator@D@2@@std@@A 00464b38     BWAPI:DamageType.obj
 0003:00019bfc       ?damageTypeMap@BWAPI@@3V?$map@V?$basic_string@DU?$char_traits@D@std@@V?$allocator@D@2@@std@@VDamageType@BWAPI@@U?$less@V?$basic_string@DU?$char_traits@D@std@@V?$allocator@D@2@@std@@@2@V?$allocator@U?$pair@$$CBV?$basic_string@DU?$char_traits@D@std@@V?$allocator@D@2@@std@@VDamageType@BWAPI@@@std@@@2@@std@@A 00464bfc     BWAPI:DamageType.obj
 0003:00019c1c       ?damageTypeSet@BWAPI@@3V?$set@VDamageType@BWAPI@@U?$less@VDamageType@BWAPI@@@std@@V?$allocator@VDamageType@BWAPI@@@4@@std@@A 00464c1c     BWAPI:DamageType.obj
 0003:00019c3c       ?Independent@DamageTypes@BWAPI@@3VDamageType@2@B 00464c3c     BWAPI:DamageType.obj
 0003:00019c40       ?Greed@GameTypes@BWAPI@@3VGameType@2@B 00464c40     BWAPI:GameType.obj
 0003:00019c44       ?Unknown@GameTypes@BWAPI@@3VGameType@2@B 00464c44     BWAPI:GameType.obj
 0003:00019c48       ?None@GameTypes@BWAPI@@3VGameType@2@B 00464c48     BWAPI:GameType.obj
 0003:00019c4c       ?Melee@GameTypes@BWAPI@@3VGameType@2@B 00464c4c     BWAPI:GameType.obj
 0003:00019c50       ?Sudden_Death@GameTypes@BWAPI@@3VGameType@2@B 00464c50     BWAPI:GameType.obj
 0003:00019c54       ?Team_Melee@GameTypes@BWAPI@@3VGameType@2@B 00464c54     BWAPI:GameType.obj
 0003:00019c58       ?Free_For_All@GameTypes@BWAPI@@3VGameType@2@B 00464c58     BWAPI:GameType.obj
 0003:00019c5c       ?Team_Free_For_All@GameTypes@BWAPI@@3VGameType@2@B 00464c5c     BWAPI:GameType.obj
 0003:00019c60       ?Team_Capture_The_Flag@GameTypes@BWAPI@@3VGameType@2@B 00464c60     BWAPI:GameType.obj
 0003:00019c64       ?Slaughter@GameTypes@BWAPI@@3VGameType@2@B 00464c64     BWAPI:GameType.obj
 0003:00019c68       ?Top_vs_Bottom@GameTypes@BWAPI@@3VGameType@2@B 00464c68     BWAPI:GameType.obj
 0003:00019c6c       ?Ladder@GameTypes@BWAPI@@3VGameType@2@B 00464c6c     BWAPI:GameType.obj
 0003:00019c70       ?Pro_Gamer_League@GameTypes@BWAPI@@3VGameType@2@B 00464c70     BWAPI:GameType.obj
 0003:00019c74       ?Capture_The_Flag@GameTypes@BWAPI@@3VGameType@2@B 00464c74     BWAPI:GameType.obj
 0003:00019c78       ?gameTypeMap@BWAPI@@3V?$map@V?$basic_string@DU?$char_traits@D@std@@V?$allocator@D@2@@std@@VGameType@BWAPI@@U?$less@V?$basic_string@DU?$char_traits@D@std@@V?$allocator@D@2@@std@@@2@V?$allocator@U?$pair@$$CBV?$basic_string@DU?$char_traits@D@std@@V?$allocator@D@2@@std@@VGameType@BWAPI@@@std@@@2@@std@@A 00464c78     BWAPI:GameType.obj
 0003:00019c98       ?gameTypeSet@BWAPI@@3V?$set@VGameType@BWAPI@@U?$less@VGameType@BWAPI@@@std@@V?$allocator@VGameType@BWAPI@@@4@@std@@A 00464c98     BWAPI:GameType.obj
 0003:00019cb8       ?gameTypeName@BWAPI@@3PAV?$basic_string@DU?$char_traits@D@std@@V?$allocator@D@2@@std@@A 00464cb8     BWAPI:GameType.obj
 0003:0001a08c       ?Use_Map_Settings@GameTypes@BWAPI@@3VGameType@2@B 0046508c     BWAPI:GameType.obj
 0003:0001a090       ?One_on_One@GameTypes@BWAPI@@3VGameType@2@B 00465090     BWAPI:GameType.obj
 0003:0001a098       ?closest@Colors@BWAPI@@3PAY1EA@EA@EA 00465098     BWAPI:Color.obj
 0003:0005a098       ?rgbInitialized@BWAPI@@3_NA 004a5098     BWAPI:Color.obj
 0003:0005a09c       ?Grey@Colors@BWAPI@@3VColor@2@B 004a509c     BWAPI:Color.obj
 0003:0005a0a0       ?Purple@Colors@BWAPI@@3VColor@2@B 004a50a0     BWAPI:Color.obj
 0003:0005a0a4       ?Black@Colors@BWAPI@@3VColor@2@B 004a50a4     BWAPI:Color.obj
 0003:0005a0a8       ?Teal@Colors@BWAPI@@3VColor@2@B 004a50a8     BWAPI:Color.obj
 0003:0005a0ac       ?Orange@Colors@BWAPI@@3VColor@2@B 004a50ac     BWAPI:Color.obj
 0003:0005a0b0       ?Green@Colors@BWAPI@@3VColor@2@B 004a50b0     BWAPI:Color.obj
 0003:0005a0b4       ?Cyan@Colors@BWAPI@@3VColor@2@B 004a50b4     BWAPI:Color.obj
 0003:0005a0b8       ?Brown@Colors@BWAPI@@3VColor@2@B 004a50b8     BWAPI:Color.obj
 0003:0005a0bc       ?Yellow@Colors@BWAPI@@3VColor@2@B 004a50bc     BWAPI:Color.obj
 0003:0005a0c0       ?Blue@Colors@BWAPI@@3VColor@2@B 004a50c0     BWAPI:Color.obj
 0003:0005a0c4       ?Red@Colors@BWAPI@@3VColor@2@B 004a50c4     BWAPI:Color.obj
 0003:0005a0c8       ?White@Colors@BWAPI@@3VColor@2@B 004a50c8     BWAPI:Color.obj
 0003:0005a0d0       ?Unknown@Errors@BWAPI@@3VError@2@B 004a50d0     BWAPI:Error.obj
 0003:0005a0d4       ?Insufficient_Supply@Errors@BWAPI@@3VError@2@B 004a50d4     BWAPI:Error.obj
 0003:0005a0d8       ?None@Errors@BWAPI@@3VError@2@B 004a50d8     BWAPI:Error.obj
 0003:0005a0dc       ?Incompatible_TechType@Errors@BWAPI@@3VError@2@B 004a50dc     BWAPI:Error.obj
 0003:0005a0e0       ?Invalid_Tile_Position@Errors@BWAPI@@3VError@2@B 004a50e0     BWAPI:Error.obj
 0003:0005a0e4       ?Unit_Not_Visible@Errors@BWAPI@@3VError@2@B 004a50e4     BWAPI:Error.obj
 0003:0005a0e8       ?Already_Researched@Errors@BWAPI@@3VError@2@B 004a50e8     BWAPI:Error.obj
 0003:0005a0ec       ?Unreachable_Location@Errors@BWAPI@@3VError@2@B 004a50ec     BWAPI:Error.obj
 0003:0005a0f0       ?Unit_Does_Not_Exist@Errors@BWAPI@@3VError@2@B 004a50f0     BWAPI:Error.obj
 0003:0005a0f4       ?Insufficient_Space@Errors@BWAPI@@3VError@2@B 004a50f4     BWAPI:Error.obj
 0003:0005a0f8       ?Insufficient_Minerals@Errors@BWAPI@@3VError@2@B 004a50f8     BWAPI:Error.obj
 0003:0005a0fc       ?Currently_Upgrading@Errors@BWAPI@@3VError@2@B 004a50fc     BWAPI:Error.obj
 0003:0005a100       ?Invalid_Parameter@Errors@BWAPI@@3VError@2@B 004a5100     BWAPI:Error.obj
 0003:0005a104       ?Incompatible_UnitType@Errors@BWAPI@@3VError@2@B 004a5104     BWAPI:Error.obj
 0003:0005a108       ?Access_Denied@Errors@BWAPI@@3VError@2@B 004a5108     BWAPI:Error.obj
 0003:0005a10c       ?Unable_To_Hit@Errors@BWAPI@@3VError@2@B 004a510c     BWAPI:Error.obj
 0003:0005a110       ?Insufficient_Ammo@Errors@BWAPI@@3VError@2@B 004a5110     BWAPI:Error.obj
 0003:0005a114       ?Unit_Busy@Errors@BWAPI@@3VError@2@B 004a5114     BWAPI:Error.obj
 0003:0005a118       ?File_Not_Found@Errors@BWAPI@@3VError@2@B 004a5118     BWAPI:Error.obj
 0003:0005a11c       ?Fully_Upgraded@Errors@BWAPI@@3VError@2@B 004a511c     BWAPI:Error.obj
 0003:0005a120       ?Unbuildable_Location@Errors@BWAPI@@3VError@2@B 004a5120     BWAPI:Error.obj
 0003:0005a124       ?Out_Of_Range@Errors@BWAPI@@3VError@2@B 004a5124     BWAPI:Error.obj
 0003:0005a128       ?errorName@BWAPI@@3PAV?$basic_string@DU?$char_traits@D@std@@V?$allocator@D@2@@std@@A 004a5128     BWAPI:Error.obj
 0003:0005a438       ?errorSet@BWAPI@@3V?$set@VError@BWAPI@@U?$less@VError@BWAPI@@@std@@V?$allocator@VError@BWAPI@@@4@@std@@A 004a5438     BWAPI:Error.obj
 0003:0005a458       ?errorMap@BWAPI@@3V?$map@V?$basic_string@DU?$char_traits@D@std@@V?$allocator@D@2@@std@@VError@BWAPI@@U?$less@V?$basic_string@DU?$char_traits@D@std@@V?$allocator@D@2@@std@@@2@V?$allocator@U?$pair@$$CBV?$basic_string@DU?$char_traits@D@std@@V?$allocator@D@2@@std@@VError@BWAPI@@@std@@@2@@std@@A 004a5458     BWAPI:Error.obj
 0003:0005a478       ?Insufficient_Energy@Errors@BWAPI@@3VError@2@B 004a5478     BWAPI:Error.obj
 0003:0005a47c       ?Currently_Researching@Errors@BWAPI@@3VError@2@B 004a547c     BWAPI:Error.obj
 0003:0005a480       ?Insufficient_Gas@Errors@BWAPI@@3VError@2@B 004a5480     BWAPI:Error.obj
 0003:0005a484       ?Incompatible_State@Errors@BWAPI@@3VError@2@B 004a5484     BWAPI:Error.obj
 0003:0005a488       ?Insufficient_Tech@Errors@BWAPI@@3VError@2@B 004a5488     BWAPI:Error.obj
 0003:0005a48c       ?Unit_Not_Owned@Errors@BWAPI@@3VError@2@B 004a548c     BWAPI:Error.obj
 0003:0005a490       ?bulletTypeName@BWAPI@@3PAV?$basic_string@DU?$char_traits@D@std@@V?$allocator@D@2@@std@@A 004a5490     BWAPI:BulletType.obj
 0003:0005bba4       ?bulletTypeSet@BWAPI@@3V?$set@VBulletType@BWAPI@@U?$less@VBulletType@BWAPI@@@std@@V?$allocator@VBulletType@BWAPI@@@4@@std@@A 004a6ba4     BWAPI:BulletType.obj
 0003:0005bbc4       ?Gauss_Rifle_Hit@BulletTypes@BWAPI@@3VBulletType@2@B 004a6bc4     BWAPI:BulletType.obj
 0003:0005bbc8       ?Unknown@BulletTypes@BWAPI@@3VBulletType@2@B 004a6bc8     BWAPI:BulletType.obj
 0003:0005bbcc       ?Phase_Disruptor@BulletTypes@BWAPI@@3VBulletType@2@B 004a6bcc     BWAPI:BulletType.obj
 0003:0005bbd0       ?EMP_Missile@BulletTypes@BWAPI@@3VBulletType@2@B 004a6bd0     BWAPI:BulletType.obj
 0003:0005bbd4       ?Optical_Flare_Grenade@BulletTypes@BWAPI@@3VBulletType@2@B 004a6bd4     BWAPI:BulletType.obj
 0003:0005bbd8       ?Anti_Matter_Missile@BulletTypes@BWAPI@@3VBulletType@2@B 004a6bd8     BWAPI:BulletType.obj
 0003:0005bbdc       ?Pulse_Cannon@BulletTypes@BWAPI@@3VBulletType@2@B 004a6bdc     BWAPI:BulletType.obj
 0003:0005bbe0       ?None@BulletTypes@BWAPI@@3VBulletType@2@B 004a6be0     BWAPI:BulletType.obj
 0003:0005bbe4       ?Consume@BulletTypes@BWAPI@@3VBulletType@2@B 004a6be4     BWAPI:BulletType.obj
 0003:0005bbe8       ?Melee@BulletTypes@BWAPI@@3VBulletType@2@B 004a6be8     BWAPI:BulletType.obj
 0003:0005bbec       ?Arclite_Shock_Cannon_Hit@BulletTypes@BWAPI@@3VBulletType@2@B 004a6bec     BWAPI:BulletType.obj
 0003:0005bbf0       ?Sunken_Colony_Tentacle@BulletTypes@BWAPI@@3VBulletType@2@B 004a6bf0     BWAPI:BulletType.obj
 0003:0005bbf4       ?Longbolt_Missile@BulletTypes@BWAPI@@3VBulletType@2@B 004a6bf4     BWAPI:BulletType.obj
 0003:0005bbf8       ?Queen_Spell_Carrier@BulletTypes@BWAPI@@3VBulletType@2@B 004a6bf8     BWAPI:BulletType.obj
 0003:0005bbfc       ?Subterranean_Spines@BulletTypes@BWAPI@@3VBulletType@2@B 004a6bfc     BWAPI:BulletType.obj
 0003:0005bc00       ?Gemini_Missiles@BulletTypes@BWAPI@@3VBulletType@2@B 004a6c00     BWAPI:BulletType.obj
 0003:0005bc04       ?Neutron_Flare@BulletTypes@BWAPI@@3VBulletType@2@B 004a6c04     BWAPI:BulletType.obj
 0003:0005bc08       ?Burst_Lasers@BulletTypes@BWAPI@@3VBulletType@2@B 004a6c08     BWAPI:BulletType.obj
 0003:0005bc0c       ?Particle_Beam_Hit@BulletTypes@BWAPI@@3VBulletType@2@B 004a6c0c     BWAPI:BulletType.obj
 0003:0005bc10       ?Yamato_Gun@BulletTypes@BWAPI@@3VBulletType@2@B 004a6c10     BWAPI:BulletType.obj
 0003:0005bc14       ?Acid_Spore@BulletTypes@BWAPI@@3VBulletType@2@B 004a6c14     BWAPI:BulletType.obj
 0003:0005bc18       ?Dual_Photon_Blasters_Hit@BulletTypes@BWAPI@@3VBulletType@2@B 004a6c18     BWAPI:BulletType.obj
 0003:0005bc1c       ?Psionic_Shockwave_Hit@BulletTypes@BWAPI@@3VBulletType@2@B 004a6c1c     BWAPI:BulletType.obj
 0003:0005bc20       ?Needle_Spine_Hit@BulletTypes@BWAPI@@3VBulletType@2@B 004a6c20     BWAPI:BulletType.obj
 0003:0005bc24       ?C_10_Canister_Rifle_Hit@BulletTypes@BWAPI@@3VBulletType@2@B 004a6c24     BWAPI:BulletType.obj
 0003:0005bc28       ?ATS_ATA_Laser_Battery@BulletTypes@BWAPI@@3VBulletType@2@B 004a6c28     BWAPI:BulletType.obj
 0003:0005bc2c       ?Ensnare@BulletTypes@BWAPI@@3VBulletType@2@B 004a6c2c     BWAPI:BulletType.obj
 0003:0005bc30       ?STA_STS_Cannon_Overlay@BulletTypes@BWAPI@@3VBulletType@2@B 004a6c30     BWAPI:BulletType.obj
 0003:0005bc34       ?Invisible@BulletTypes@BWAPI@@3VBulletType@2@B 004a6c34     BWAPI:BulletType.obj
 0003:0005bc38       ?Fusion_Cutter_Hit@BulletTypes@BWAPI@@3VBulletType@2@B 004a6c38     BWAPI:BulletType.obj
 0003:0005bc3c       ?bulletTypeMap@BWAPI@@3V?$map@V?$basic_string@DU?$char_traits@D@std@@V?$allocator@D@2@@std@@VBulletType@BWAPI@@U?$less@V?$basic_string@DU?$char_traits@D@std@@V?$allocator@D@2@@std@@@2@V?$allocator@U?$pair@$$CBV?$basic_string@DU?$char_traits@D@std@@V?$allocator@D@2@@std@@VBulletType@BWAPI@@@std@@@2@@std@@A 004a6c3c     BWAPI:BulletType.obj
 0003:0005bc5c       ?Psionic_Storm@BulletTypes@BWAPI@@3VBulletType@2@B 004a6c5c     BWAPI:BulletType.obj
 0003:0005bc60       ?Glave_Wurm@BulletTypes@BWAPI@@3VBulletType@2@B 004a6c60     BWAPI:BulletType.obj
 0003:0005bc64       ?Seeker_Spores@BulletTypes@BWAPI@@3VBulletType@2@B 004a6c64     BWAPI:BulletType.obj
 0003:0005bc68       ?Plague_Cloud@BulletTypes@BWAPI@@3VBulletType@2@B 004a6c68     BWAPI:BulletType.obj
 0003:0005bc6c       ?Fragmentation_Grenade@BulletTypes@BWAPI@@3VBulletType@2@B 004a6c6c     BWAPI:BulletType.obj
 0003:0005bc70       ?Corrosive_Acid_Shot@BulletTypes@BWAPI@@3VBulletType@2@B 004a6c70     BWAPI:BulletType.obj
 0003:0005bc74       ?Halo_Rockets@BulletTypes@BWAPI@@3VBulletType@2@B 004a6c74     BWAPI:BulletType.obj
 0003:0005bc78       ?Unknown@UnitCommandTypes@BWAPI@@3VUnitCommandType@2@B 004a6c78     BWAPI:UnitCommandType.obj
 0003:0005bc7c       ?Use_Tech_Position@UnitCommandTypes@BWAPI@@3VUnitCommandType@2@B 004a6c7c     BWAPI:UnitCommandType.obj
 0003:0005bc80       ?Morph@UnitCommandTypes@BWAPI@@3VUnitCommandType@2@B 004a6c80     BWAPI:UnitCommandType.obj
 0003:0005bc84       ?None@UnitCommandTypes@BWAPI@@3VUnitCommandType@2@B 004a6c84     BWAPI:UnitCommandType.obj
 0003:0005bc88       ?Move@UnitCommandTypes@BWAPI@@3VUnitCommandType@2@B 004a6c88     BWAPI:UnitCommandType.obj
 0003:0005bc8c       ?Stop@UnitCommandTypes@BWAPI@@3VUnitCommandType@2@B 004a6c8c     BWAPI:UnitCommandType.obj
 0003:0005bc90       ?Return_Cargo@UnitCommandTypes@BWAPI@@3VUnitCommandType@2@B 004a6c90     BWAPI:UnitCommandType.obj
 0003:0005bc94       ?Unburrow@UnitCommandTypes@BWAPI@@3VUnitCommandType@2@B 004a6c94     BWAPI:UnitCommandType.obj
 0003:0005bc98       ?Siege@UnitCommandTypes@BWAPI@@3VUnitCommandType@2@B 004a6c98     BWAPI:UnitCommandType.obj
 0003:0005bc9c       ?Unsiege@UnitCommandTypes@BWAPI@@3VUnitCommandType@2@B 004a6c9c     BWAPI:UnitCommandType.obj
 0003:0005bca0       ?Attack_Move@UnitCommandTypes@BWAPI@@3VUnitCommandType@2@B 004a6ca0     BWAPI:UnitCommandType.obj
 0003:0005bca4       ?Use_Tech_Unit@UnitCommandTypes@BWAPI@@3VUnitCommandType@2@B 004a6ca4     BWAPI:UnitCommandType.obj
 0003:0005bca8       ?Cancel_Construction@UnitCommandTypes@BWAPI@@3VUnitCommandType@2@B 004a6ca8     BWAPI:UnitCommandType.obj
 0003:0005bcac       ?Lift@UnitCommandTypes@BWAPI@@3VUnitCommandType@2@B 004a6cac     BWAPI:UnitCommandType.obj
 0003:0005bcb0       ?Train@UnitCommandTypes@BWAPI@@3VUnitCommandType@2@B 004a6cb0     BWAPI:UnitCommandType.obj
 0003:0005bcb4       ?Patrol@UnitCommandTypes@BWAPI@@3VUnitCommandType@2@B 004a6cb4     BWAPI:UnitCommandType.obj
 0003:0005bcb8       ?Hold_Position@UnitCommandTypes@BWAPI@@3VUnitCommandType@2@B 004a6cb8     BWAPI:UnitCommandType.obj
 0003:0005bcbc       ?Burrow@UnitCommandTypes@BWAPI@@3VUnitCommandType@2@B 004a6cbc     BWAPI:UnitCommandType.obj
 0003:0005bcc0       ?Place_COP@UnitCommandTypes@BWAPI@@3VUnitCommandType@2@B 004a6cc0     BWAPI:UnitCommandType.obj
 0003:0005bcc4       ?Unload_All_Position@UnitCommandTypes@BWAPI@@3VUnitCommandType@2@B 004a6cc4     BWAPI:UnitCommandType.obj
 0003:0005bcc8       ?Cancel_Morph@UnitCommandTypes@BWAPI@@3VUnitCommandType@2@B 004a6cc8     BWAPI:UnitCommandType.obj
 0003:0005bccc       ?Cancel_Research@UnitCommandTypes@BWAPI@@3VUnitCommandType@2@B 004a6ccc     BWAPI:UnitCommandType.obj
 0003:0005bcd0       ?Right_Click_Unit@UnitCommandTypes@BWAPI@@3VUnitCommandType@2@B 004a6cd0     BWAPI:UnitCommandType.obj
 0003:0005bcd4       ?Land@UnitCommandTypes@BWAPI@@3VUnitCommandType@2@B 004a6cd4     BWAPI:UnitCommandType.obj
 0003:0005bcd8       ?Build_Addon@UnitCommandTypes@BWAPI@@3VUnitCommandType@2@B 004a6cd8     BWAPI:UnitCommandType.obj
 0003:0005bcdc       ?Attack_Unit@UnitCommandTypes@BWAPI@@3VUnitCommandType@2@B 004a6cdc     BWAPI:UnitCommandType.obj
 0003:0005bce0       ?Gather@UnitCommandTypes@BWAPI@@3VUnitCommandType@2@B 004a6ce0     BWAPI:UnitCommandType.obj
 0003:0005bce4       ?Unload_All@UnitCommandTypes@BWAPI@@3VUnitCommandType@2@B 004a6ce4     BWAPI:UnitCommandType.obj
 0003:0005bce8       ?Research@UnitCommandTypes@BWAPI@@3VUnitCommandType@2@B 004a6ce8     BWAPI:UnitCommandType.obj
 0003:0005bcec       ?Decloak@UnitCommandTypes@BWAPI@@3VUnitCommandType@2@B 004a6cec     BWAPI:UnitCommandType.obj
 0003:0005bcf0       ?unitCommandTypeMap@BWAPI@@3V?$map@V?$basic_string@DU?$char_traits@D@std@@V?$allocator@D@2@@std@@VUnitCommandType@BWAPI@@U?$less@V?$basic_string@DU?$char_traits@D@std@@V?$allocator@D@2@@std@@@2@V?$allocator@U?$pair@$$CBV?$basic_string@DU?$char_traits@D@std@@V?$allocator@D@2@@std@@VUnitCommandType@BWAPI@@@std@@@2@@std@@A 004a6cf0     BWAPI:UnitCommandType.obj
 0003:0005bd10       ?unitCommandTypeName@BWAPI@@3PAV?$basic_string@DU?$char_traits@D@std@@V?$allocator@D@2@@std@@A 004a6d10     BWAPI:UnitCommandType.obj
 0003:0005c218       ?unitCommandTypeSet@BWAPI@@3V?$set@VUnitCommandType@BWAPI@@U?$less@VUnitCommandType@BWAPI@@@std@@V?$allocator@VUnitCommandType@BWAPI@@@4@@std@@A 004a7218     BWAPI:UnitCommandType.obj
 0003:0005c238       ?Cancel_Upgrade@UnitCommandTypes@BWAPI@@3VUnitCommandType@2@B 004a7238     BWAPI:UnitCommandType.obj
 0003:0005c23c       ?Unload@UnitCommandTypes@BWAPI@@3VUnitCommandType@2@B 004a723c     BWAPI:UnitCommandType.obj
 0003:0005c240       ?Follow@UnitCommandTypes@BWAPI@@3VUnitCommandType@2@B 004a7240     BWAPI:UnitCommandType.obj
 0003:0005c244       ?Use_Tech@UnitCommandTypes@BWAPI@@3VUnitCommandType@2@B 004a7244     BWAPI:UnitCommandType.obj
 0003:0005c248       ?Right_Click_Position@UnitCommandTypes@BWAPI@@3VUnitCommandType@2@B 004a7248     BWAPI:UnitCommandType.obj
 0003:0005c24c       ?Build@UnitCommandTypes@BWAPI@@3VUnitCommandType@2@B 004a724c     BWAPI:UnitCommandType.obj
 0003:0005c250       ?Upgrade@UnitCommandTypes@BWAPI@@3VUnitCommandType@2@B 004a7250     BWAPI:UnitCommandType.obj
 0003:0005c254       ?Set_Rally_Position@UnitCommandTypes@BWAPI@@3VUnitCommandType@2@B 004a7254     BWAPI:UnitCommandType.obj
 0003:0005c258       ?Set_Rally_Unit@UnitCommandTypes@BWAPI@@3VUnitCommandType@2@B 004a7258     BWAPI:UnitCommandType.obj
 0003:0005c25c       ?Cancel_Train_Slot@UnitCommandTypes@BWAPI@@3VUnitCommandType@2@B 004a725c     BWAPI:UnitCommandType.obj
 0003:0005c260       ?Cancel_Addon@UnitCommandTypes@BWAPI@@3VUnitCommandType@2@B 004a7260     BWAPI:UnitCommandType.obj
 0003:0005c264       ?Repair@UnitCommandTypes@BWAPI@@3VUnitCommandType@2@B 004a7264     BWAPI:UnitCommandType.obj
 0003:0005c268       ?Halt_Construction@UnitCommandTypes@BWAPI@@3VUnitCommandType@2@B 004a7268     BWAPI:UnitCommandType.obj
 0003:0005c26c       ?Load@UnitCommandTypes@BWAPI@@3VUnitCommandType@2@B 004a726c     BWAPI:UnitCommandType.obj
 0003:0005c270       ?Cloak@UnitCommandTypes@BWAPI@@3VUnitCommandType@2@B 004a7270     BWAPI:UnitCommandType.obj
 0003:0005c274       ?Cancel_Train@UnitCommandTypes@BWAPI@@3VUnitCommandType@2@B 004a7274     BWAPI:UnitCommandType.obj
 0003:0005c278       ?playerTypeMap@BWAPI@@3V?$map@V?$basic_string@DU?$char_traits@D@std@@V?$allocator@D@2@@std@@VPlayerType@BWAPI@@U?$less@V?$basic_string@DU?$char_traits@D@std@@V?$allocator@D@2@@std@@@2@V?$allocator@U?$pair@$$CBV?$basic_string@DU?$char_traits@D@std@@V?$allocator@D@2@@std@@VPlayerType@BWAPI@@@std@@@2@@std@@A 004a7278     BWAPI:PlayerType.obj
 0003:0005c298       ?playerTypeName@BWAPI@@3PAV?$basic_string@DU?$char_traits@D@std@@V?$allocator@D@2@@std@@A 004a7298     BWAPI:PlayerType.obj
 0003:0005c404       ?Unknown@PlayerTypes@BWAPI@@3VPlayerType@2@B 004a7404     BWAPI:PlayerType.obj
 0003:0005c408       ?Computer@PlayerTypes@BWAPI@@3VPlayerType@2@B 004a7408     BWAPI:PlayerType.obj
 0003:0005c40c       ?None@PlayerTypes@BWAPI@@3VPlayerType@2@B 004a740c     BWAPI:PlayerType.obj
 0003:0005c410       ?PlayerLeft@PlayerTypes@BWAPI@@3VPlayerType@2@B 004a7410     BWAPI:PlayerType.obj
 0003:0005c414       ?ComputerLeft@PlayerTypes@BWAPI@@3VPlayerType@2@B 004a7414     BWAPI:PlayerType.obj
 0003:0005c418       ?RescuePassive@PlayerTypes@BWAPI@@3VPlayerType@2@B 004a7418     BWAPI:PlayerType.obj
 0003:0005c41c       ?Closed@PlayerTypes@BWAPI@@3VPlayerType@2@B 004a741c     BWAPI:PlayerType.obj
 0003:0005c420       ?Neutral@PlayerTypes@BWAPI@@3VPlayerType@2@B 004a7420     BWAPI:PlayerType.obj
 0003:0005c424       ?playerTypeSet@BWAPI@@3V?$set@VPlayerType@BWAPI@@U?$less@VPlayerType@BWAPI@@@std@@V?$allocator@VPlayerType@BWAPI@@@4@@std@@A 004a7424     BWAPI:PlayerType.obj
 0003:0005c444       ?EitherPreferHuman@PlayerTypes@BWAPI@@3VPlayerType@2@B 004a7444     BWAPI:PlayerType.obj
 0003:0005c448       ?Player@PlayerTypes@BWAPI@@3VPlayerType@2@B 004a7448     BWAPI:PlayerType.obj
 0003:0005c44c       ?EitherPreferComputer@PlayerTypes@BWAPI@@3VPlayerType@2@B 004a744c     BWAPI:PlayerType.obj
 0003:0005c450       ?orderMap@BWAPI@@3V?$map@V?$basic_string@DU?$char_traits@D@std@@V?$allocator@D@2@@std@@VOrder@BWAPI@@U?$less@V?$basic_string@DU?$char_traits@D@std@@V?$allocator@D@2@@std@@@2@V?$allocator@U?$pair@$$CBV?$basic_string@DU?$char_traits@D@std@@V?$allocator@D@2@@std@@VOrder@BWAPI@@@std@@@2@@std@@A 004a7450     BWAPI:Order.obj
 0003:0005c470       ?orderSet@BWAPI@@3V?$set@VOrder@BWAPI@@U?$less@VOrder@BWAPI@@@std@@V?$allocator@VOrder@BWAPI@@@4@@std@@A 004a7470     BWAPI:Order.obj
 0003:0005c490       ?RightClickAction@Orders@BWAPI@@3VOrder@2@B 004a7490     BWAPI:Order.obj
 0003:0005c494       ?Unknown@Orders@BWAPI@@3VOrder@2@B 004a7494     BWAPI:Order.obj
 0003:0005c498       ?AIPatrol@Orders@BWAPI@@3VOrder@2@B 004a7498     BWAPI:Order.obj
 0003:0005c49c       ?PickupIdle@Orders@BWAPI@@3VOrder@2@B 004a749c     BWAPI:Order.obj
 0003:0005c4a0       ?CastMindControl@Orders@BWAPI@@3VOrder@2@B 004a74a0     BWAPI:Order.obj
 0003:0005c4a4       ?Nothing3@Orders@BWAPI@@3VOrder@2@B 004a74a4     BWAPI:Order.obj
 0003:0005c4a8       ?CloseDoor@Orders@BWAPI@@3VOrder@2@B 004a74a8     BWAPI:Order.obj
 0003:0005c4ac       ?ShieldBattery@Orders@BWAPI@@3VOrder@2@B 004a74ac     BWAPI:Order.obj
 0003:0005c4b0       ?SpreadCreep@Orders@BWAPI@@3VOrder@2@B 004a74b0     BWAPI:Order.obj
 0003:0005c4b4       ?CloakNearbyUnits@Orders@BWAPI@@3VOrder@2@B 004a74b4     BWAPI:Order.obj
 0003:0005c4b8       ?FireYamatoGun@Orders@BWAPI@@3VOrder@2@B 004a74b8     BWAPI:Order.obj
 0003:0005c4bc       ?GuardianAspect@Orders@BWAPI@@3VOrder@2@B 004a74bc     BWAPI:Order.obj
 0003:0005c4c0       ?MedicHeal1@Orders@BWAPI@@3VOrder@2@B 004a74c0     BWAPI:Order.obj
 0003:0005c4c4       ?Enabledoodad@Orders@BWAPI@@3VOrder@2@B 004a74c4     BWAPI:Order.obj
 0003:0005c4c8       ?None@Orders@BWAPI@@3VOrder@2@B 004a74c8     BWAPI:Order.obj
 0003:0005c4cc       ?PlayerGuard@Orders@BWAPI@@3VOrder@2@B 004a74cc     BWAPI:Order.obj
 0003:0005c4d0       ?WaitForMinerals@Orders@BWAPI@@3VOrder@2@B 004a74d0     BWAPI:Order.obj
 0003:0005c4d4       ?CastRecall@Orders@BWAPI@@3VOrder@2@B 004a74d4     BWAPI:Order.obj
 0003:0005c4d8       ?AttackMove@Orders@BWAPI@@3VOrder@2@B 004a74d8     BWAPI:Order.obj
 0003:0005c4dc       ?ReturnMinerals@Orders@BWAPI@@3VOrder@2@B 004a74dc     BWAPI:Order.obj
 0003:0005c4e0       ?CastPlague@Orders@BWAPI@@3VOrder@2@B 004a74e0     BWAPI:Order.obj
 0003:0005c4e4       ?InitCreepGrowth@Orders@BWAPI@@3VOrder@2@B 004a74e4     BWAPI:Order.obj
 0003:0005c4e8       ?Move@Orders@BWAPI@@3VOrder@2@B 004a74e8     BWAPI:Order.obj
 0003:0005c4ec       ?NukeLaunch@Orders@BWAPI@@3VOrder@2@B 004a74ec     BWAPI:Order.obj
 0003:0005c4f0       ?PickupBunker@Orders@BWAPI@@3VOrder@2@B 004a74f0     BWAPI:Order.obj
 0003:0005c4f4       ?DarkArchonMeld@Orders@BWAPI@@3VOrder@2@B 004a74f4     BWAPI:Order.obj
 0003:0005c4f8       ?CastStasisField@Orders@BWAPI@@3VOrder@2@B 004a74f8     BWAPI:Order.obj
 0003:0005c4fc       ?Stop@Orders@BWAPI@@3VOrder@2@B 004a74fc     BWAPI:Order.obj
 0003:0005c500       ?Fatal@Orders@BWAPI@@3VOrder@2@B 004a7500     BWAPI:Order.obj
 0003:0005c504       ?PlaceAddon@Orders@BWAPI@@3VOrder@2@B 004a7504     BWAPI:Order.obj
 0003:0005c508       ?CastDarkSwarm@Orders@BWAPI@@3VOrder@2@B 004a7508     BWAPI:Order.obj
 0003:0005c50c       ?ComputerAI@Orders@BWAPI@@3VOrder@2@B 004a750c     BWAPI:Order.obj
 0003:0005c510       ?SelfDestrucing@Orders@BWAPI@@3VOrder@2@B 004a7510     BWAPI:Order.obj
 0003:0005c514       ?PowerupIdle@Orders@BWAPI@@3VOrder@2@B 004a7514     BWAPI:Order.obj
 0003:0005c518       ?Medic@Orders@BWAPI@@3VOrder@2@B 004a7518     BWAPI:Order.obj
 0003:0005c51c       ?BuildingLiftOff@Orders@BWAPI@@3VOrder@2@B 004a751c     BWAPI:Order.obj
 0003:0005c520       ?RechargeShieldsUnit@Orders@BWAPI@@3VOrder@2@B 004a7520     BWAPI:Order.obj
 0003:0005c524       ?RescuePassive@Orders@BWAPI@@3VOrder@2@B 004a7524     BWAPI:Order.obj
 0003:0005c528       ?NukeWait@Orders@BWAPI@@3VOrder@2@B 004a7528     BWAPI:Order.obj
 0003:0005c52c       ?Harvest3@Orders@BWAPI@@3VOrder@2@B 004a752c     BWAPI:Order.obj
 0003:0005c530       ?StoppingCreepGrowth@Orders@BWAPI@@3VOrder@2@B 004a7530     BWAPI:Order.obj
 0003:0005c534       ?ReturnGas@Orders@BWAPI@@3VOrder@2@B 004a7534     BWAPI:Order.obj
 0003:0005c538       ?ZergBirth@Orders@BWAPI@@3VOrder@2@B 004a7538     BWAPI:Order.obj
 0003:0005c53c       ?IncompleteBuilding@Orders@BWAPI@@3VOrder@2@B 004a753c     BWAPI:Order.obj
 0003:0005c540       ?EnterTransport@Orders@BWAPI@@3VOrder@2@B 004a7540     BWAPI:Order.obj
 0003:0005c544       ?BuildProtoss2@Orders@BWAPI@@3VOrder@2@B 004a7544     BWAPI:Order.obj
 0003:0005c548       ?ZergBuildingMorph@Orders@BWAPI@@3VOrder@2@B 004a7548     BWAPI:Order.obj
 0003:0005c54c       ?CastNuclearStrike@Orders@BWAPI@@3VOrder@2@B 004a754c     BWAPI:Order.obj
 0003:0005c550       ?TeleporttoLocation@Orders@BWAPI@@3VOrder@2@B 004a7550     BWAPI:Order.obj
 0003:0005c554       ?HoldPosition@Orders@BWAPI@@3VOrder@2@B 004a7554     BWAPI:Order.obj
 0003:0005c558       ?Train@Orders@BWAPI@@3VOrder@2@B 004a7558     BWAPI:Order.obj
 0003:0005c55c       ?Nothing@Orders@BWAPI@@3VOrder@2@B 004a755c     BWAPI:Order.obj
 0003:0005c560       ?Patrol@Orders@BWAPI@@3VOrder@2@B 004a7560     BWAPI:Order.obj
 0003:0005c564       ?CastOpticalFlare@Orders@BWAPI@@3VOrder@2@B 004a7564     BWAPI:Order.obj
 0003:0005c568       ?RallyPointTile@Orders@BWAPI@@3VOrder@2@B 004a7568     BWAPI:Order.obj
 0003:0005c56c       ?ArchonWarp@Orders@BWAPI@@3VOrder@2@B 004a756c     BWAPI:Order.obj
 0003:0005c570       ?InterceptorReturn@Orders@BWAPI@@3VOrder@2@B 004a7570     BWAPI:Order.obj
 0003:0005c574       ?CastLockdown@Orders@BWAPI@@3VOrder@2@B 004a7574     BWAPI:Order.obj
 0003:0005c578       ?CastIrradiate@Orders@BWAPI@@3VOrder@2@B 004a7578     BWAPI:Order.obj
 0003:0005c57c       ?HideTrap@Orders@BWAPI@@3VOrder@2@B 004a757c     BWAPI:Order.obj
 0003:0005c580       ?PickupTransport@Orders@BWAPI@@3VOrder@2@B 004a7580     BWAPI:Order.obj
 0003:0005c584       ?UnusedPowerup@Orders@BWAPI@@3VOrder@2@B 004a7584     BWAPI:Order.obj
 0003:0005c588       ?CastEMPShockwave@Orders@BWAPI@@3VOrder@2@B 004a7588     BWAPI:Order.obj
 0003:0005c58c       ?CastInfestation@Orders@BWAPI@@3VOrder@2@B 004a758c     BWAPI:Order.obj
 0003:0005c590       ?Carrier@Orders@BWAPI@@3VOrder@2@B 004a7590     BWAPI:Order.obj
 0003:0005c594       ?Harvest4@Orders@BWAPI@@3VOrder@2@B 004a7594     BWAPI:Order.obj
 0003:0005c598       ?InfestedCommandCenter@Orders@BWAPI@@3VOrder@2@B 004a7598     BWAPI:Order.obj
 0003:0005c59c       ?InfestingCommandCenter@Orders@BWAPI@@3VOrder@2@B 004a759c     BWAPI:Order.obj
 0003:0005c5a0       ?Harvest1@Orders@BWAPI@@3VOrder@2@B 004a75a0     BWAPI:Order.obj
 0003:0005c5a4       ?Scanner@Orders@BWAPI@@3VOrder@2@B 004a75a4     BWAPI:Order.obj
 0003:0005c5a8       ?CastDefensiveMatrix@Orders@BWAPI@@3VOrder@2@B 004a75a8     BWAPI:Order.obj
 0003:0005c5ac       ?JunkYardDog@Orders@BWAPI@@3VOrder@2@B 004a75ac     BWAPI:Order.obj
 0003:0005c5b0       ?UnusedNothing@Orders@BWAPI@@3VOrder@2@B 004a75b0     BWAPI:Order.obj
 0003:0005c5b4       ?CompletingArchonsummon@Orders@BWAPI@@3VOrder@2@B 004a75b4     BWAPI:Order.obj
 0003:0005c5b8       ?InterceptorAttack@Orders@BWAPI@@3VOrder@2@B 004a75b8     BWAPI:Order.obj
 0003:0005c5bc       ?CastParasite@Orders@BWAPI@@3VOrder@2@B 004a75bc     BWAPI:Order.obj
 0003:0005c5c0       ?Burrowing@Orders@BWAPI@@3VOrder@2@B 004a75c0     BWAPI:Order.obj
 0003:0005c5c4       ?RallyPointUnit@Orders@BWAPI@@3VOrder@2@B 004a75c4     BWAPI:Order.obj
 0003:0005c5c8       ?Disabledoodad@Orders@BWAPI@@3VOrder@2@B 004a75c8     BWAPI:Order.obj
 0003:0005c5cc       ?Warpin@Orders@BWAPI@@3VOrder@2@B 004a75cc     BWAPI:Order.obj
 0003:0005c5d0       ?CastSpawnBroodlings@Orders@BWAPI@@3VOrder@2@B 004a75d0     BWAPI:Order.obj
 0003:0005c5d4       ?MoveUnload@Orders@BWAPI@@3VOrder@2@B 004a75d4     BWAPI:Order.obj
 0003:0005c5d8       ?Burrowed@Orders@BWAPI@@3VOrder@2@B 004a75d8     BWAPI:Order.obj
 0003:0005c5dc       ?OpenDoor@Orders@BWAPI@@3VOrder@2@B 004a75dc     BWAPI:Order.obj
 0003:0005c5e0       ?Critter@Orders@BWAPI@@3VOrder@2@B 004a75e0     BWAPI:Order.obj
 0003:0005c5e4       ?NukeTrain@Orders@BWAPI@@3VOrder@2@B 004a75e4     BWAPI:Order.obj
 0003:0005c5e8       ?Larva@Orders@BWAPI@@3VOrder@2@B 004a75e8     BWAPI:Order.obj
 0003:0005c5ec       ?Interrupted@Orders@BWAPI@@3VOrder@2@B 004a75ec     BWAPI:Order.obj
 0003:0005c5f0       ?RevealTrap@Orders@BWAPI@@3VOrder@2@B 004a75f0     BWAPI:Order.obj
 0003:0005c5f4       ?CastDisruptionWeb@Orders@BWAPI@@3VOrder@2@B 004a75f4     BWAPI:Order.obj
 0003:0005c5f8       ?SpawningLarva@Orders@BWAPI@@3VOrder@2@B 004a75f8     BWAPI:Order.obj
 0003:0005c5fc       ?HarassMove@Orders@BWAPI@@3VOrder@2@B 004a75fc     BWAPI:Order.obj
 0003:0005c600       ?ComputerReturn@Orders@BWAPI@@3VOrder@2@B 004a7600     BWAPI:Order.obj
 0003:0005c604       ?BuildNydusExit@Orders@BWAPI@@3VOrder@2@B 004a7604     BWAPI:Order.obj
 0003:0005c608       ?MedicHeal2@Orders@BWAPI@@3VOrder@2@B 004a7608     BWAPI:Order.obj
 0003:0005c60c       ?MoveToMinerals@Orders@BWAPI@@3VOrder@2@B 004a760c     BWAPI:Order.obj
 0003:0005c610       ?Sieging@Orders@BWAPI@@3VOrder@2@B 004a7610     BWAPI:Order.obj
 0003:0005c614       ?CastConsume@Orders@BWAPI@@3VOrder@2@B 004a7614     BWAPI:Order.obj
 0003:0005c618       ?GuardPost@Orders@BWAPI@@3VOrder@2@B 004a7618     BWAPI:Order.obj
 0003:0005c61c       ?ConstructingBuilding@Orders@BWAPI@@3VOrder@2@B 004a761c     BWAPI:Order.obj
 0003:0005c620       ?Neutral@Orders@BWAPI@@3VOrder@2@B 004a7620     BWAPI:Order.obj
 0003:0005c624       ?TurretGuard@Orders@BWAPI@@3VOrder@2@B 004a7624     BWAPI:Order.obj
 0003:0005c628       ?VultureMine@Orders@BWAPI@@3VOrder@2@B 004a7628     BWAPI:Order.obj
 0003:0005c62c       ?CTFCOPStarted@Orders@BWAPI@@3VOrder@2@B 004a762c     BWAPI:Order.obj
 0003:0005c630       ?Hover@Orders@BWAPI@@3VOrder@2@B 004a7630     BWAPI:Order.obj
 0003:0005c634       ?CastMaelstrom@Orders@BWAPI@@3VOrder@2@B 004a7634     BWAPI:Order.obj
 0003:0005c638       ?ScarabAttack@Orders@BWAPI@@3VOrder@2@B 004a7638     BWAPI:Order.obj
 0003:0005c63c       ?BuildingLand@Orders@BWAPI@@3VOrder@2@B 004a763c     BWAPI:Order.obj
 0003:0005c640       ?Unburrowing@Orders@BWAPI@@3VOrder@2@B 004a7640     BWAPI:Order.obj
 0003:0005c644       ?HiddenGun@Orders@BWAPI@@3VOrder@2@B 004a7644     BWAPI:Order.obj
 0003:0005c648       ?DroneLiftOff@Orders@BWAPI@@3VOrder@2@B 004a7648     BWAPI:Order.obj
 0003:0005c64c       ?CastHallucination@Orders@BWAPI@@3VOrder@2@B 004a764c     BWAPI:Order.obj
 0003:0005c650       ?LiftingOff@Orders@BWAPI@@3VOrder@2@B 004a7650     BWAPI:Order.obj
 0003:0005c654       ?NukeTrack@Orders@BWAPI@@3VOrder@2@B 004a7654     BWAPI:Order.obj
 0003:0005c658       ?WaitForGas@Orders@BWAPI@@3VOrder@2@B 004a7658     BWAPI:Order.obj
 0003:0005c65c       ?HealMove@Orders@BWAPI@@3VOrder@2@B 004a765c     BWAPI:Order.obj
 0003:0005c660       ?PlaceMine@Orders@BWAPI@@3VOrder@2@B 004a7660     BWAPI:Order.obj
 0003:0005c664       ?Harvest2@Orders@BWAPI@@3VOrder@2@B 004a7664     BWAPI:Order.obj
 0003:0005c668       ?EnterNydusCanal@Orders@BWAPI@@3VOrder@2@B 004a7668     BWAPI:Order.obj
 0003:0005c66c       ?NukePaint@Orders@BWAPI@@3VOrder@2@B 004a766c     BWAPI:Order.obj
 0003:0005c670       ?Decloak@Orders@BWAPI@@3VOrder@2@B 004a7670     BWAPI:Order.obj
 0003:0005c674       ?CTFCOPInit@Orders@BWAPI@@3VOrder@2@B 004a7674     BWAPI:Order.obj
 0003:0005c678       ?orderName@BWAPI@@3PAV?$basic_string@DU?$char_traits@D@std@@V?$allocator@D@2@@std@@A 004a7678     BWAPI:Order.obj
 0003:0005db5c       ?MiningMinerals@Orders@BWAPI@@3VOrder@2@B 004a8b5c     BWAPI:Order.obj
 0003:0005db60       ?MoveToGas@Orders@BWAPI@@3VOrder@2@B 004a8b60     BWAPI:Order.obj
 0003:0005db64       ?CTFCOP2@Orders@BWAPI@@3VOrder@2@B 004a8b64     BWAPI:Order.obj
 0003:0005db68       ?Guard@Orders@BWAPI@@3VOrder@2@B 004a8b68     BWAPI:Order.obj
 0003:0005db6c       ?PlaceBuilding@Orders@BWAPI@@3VOrder@2@B 004a8b6c     BWAPI:Order.obj
 0003:0005db70       ?Hallucination2@Orders@BWAPI@@3VOrder@2@B 004a8b70     BWAPI:Order.obj
 0003:0005db74       ?Unsieging@Orders@BWAPI@@3VOrder@2@B 004a8b74     BWAPI:Order.obj
 0003:0005db78       ?Unload@Orders@BWAPI@@3VOrder@2@B 004a8b78     BWAPI:Order.obj
 0003:0005db7c       ?Follow@Orders@BWAPI@@3VOrder@2@B 004a8b7c     BWAPI:Order.obj
 0003:0005db80       ?BuildAddon@Orders@BWAPI@@3VOrder@2@B 004a8b80     BWAPI:Order.obj
 0003:0005db84       ?Upgrade@Orders@BWAPI@@3VOrder@2@B 004a8b84     BWAPI:Order.obj
 0003:0005db88       ?CastPsionicStorm@Orders@BWAPI@@3VOrder@2@B 004a8b88     BWAPI:Order.obj
 0003:0005db8c       ?ResetCollision@Orders@BWAPI@@3VOrder@2@B 004a8b8c     BWAPI:Order.obj
 0003:0005db90       ?RechargeShieldsBattery@Orders@BWAPI@@3VOrder@2@B 004a8b90     BWAPI:Order.obj
 0003:0005db94       ?AttackTile@Orders@BWAPI@@3VOrder@2@B 004a8b94     BWAPI:Order.obj
 0003:0005db98       ?HarvestGas@Orders@BWAPI@@3VOrder@2@B 004a8b98     BWAPI:Order.obj
 0003:0005db9c       ?CastScannerSweep@Orders@BWAPI@@3VOrder@2@B 004a8b9c     BWAPI:Order.obj
 0003:0005dba0       ?Reaver@Orders@BWAPI@@3VOrder@2@B 004a8ba0     BWAPI:Order.obj
 0003:0005dba4       ?TowerGuard@Orders@BWAPI@@3VOrder@2@B 004a8ba4     BWAPI:Order.obj
 0003:0005dba8       ?ReaverCarrierMove@Orders@BWAPI@@3VOrder@2@B 004a8ba8     BWAPI:Order.obj
 0003:0005dbac       ?Die@Orders@BWAPI@@3VOrder@2@B 004a8bac     BWAPI:Order.obj
 0003:0005dbb0       ?NukeUnit@Orders@BWAPI@@3VOrder@2@B 004a8bb0     BWAPI:Order.obj
 0003:0005dbb4       ?CastFeedback@Orders@BWAPI@@3VOrder@2@B 004a8bb4     BWAPI:Order.obj
 0003:0005dbb8       ?Repair@Orders@BWAPI@@3VOrder@2@B 004a8bb8     BWAPI:Order.obj
 0003:0005dbbc       ?BunkerGuard@Orders@BWAPI@@3VOrder@2@B 004a8bbc     BWAPI:Order.obj
 0003:0005dbc0       ?ResearchTech@Orders@BWAPI@@3VOrder@2@B 004a8bc0     BWAPI:Order.obj
 0003:0005dbc4       ?CarrierIgnore2@Orders@BWAPI@@3VOrder@2@B 004a8bc4     BWAPI:Order.obj
 0003:0005dbc8       ?CastEnsnare@Orders@BWAPI@@3VOrder@2@B 004a8bc8     BWAPI:Order.obj
 0003:0005dbcc       ?AtkMoveEP@Orders@BWAPI@@3VOrder@2@B 004a8bcc     BWAPI:Order.obj
 0003:0005dbd0       ?AttackUnit@Orders@BWAPI@@3VOrder@2@B 004a8bd0     BWAPI:Order.obj
 0003:0005dbd4       ?TrainFighter@Orders@BWAPI@@3VOrder@2@B 004a8bd4     BWAPI:Order.obj
 0003:0005dbd8       ?CastRestoration@Orders@BWAPI@@3VOrder@2@B 004a8bd8     BWAPI:Order.obj
 0003:0005dbdc       ?Cloak@Orders@BWAPI@@3VOrder@2@B 004a8bdc     BWAPI:Order.obj
 0003:0005dbe0       ?Pickup4@Orders@BWAPI@@3VOrder@2@B 004a8be0     BWAPI:Order.obj
 0003:0005dbe4       ?ZergUnitMorph@Orders@BWAPI@@3VOrder@2@B 004a8be4     BWAPI:Order.obj
 0003:0005df2c       __forceCRTManifestRTM      004a8f2c     MSVCRT:crtmanifestrtm.obj
 0003:0005df30       __dowildcard               004a8f30     MSVCRT:wildcard.obj
 0003:0005df34       __newmode                  004a8f34     MSVCRT:_newmode.obj
 0003:0005df38       __commode                  004a8f38     MSVCRT:xncommod.obj
 0003:0005df3c       __fmode                    004a8f3c     MSVCRT:xtxtmode.obj
 0003:0005df40       ?unitIndexHash@Hash@MicroSearch@@3PAY07IA 004a8f40     Hash.obj
 0003:0005df80       ?map@@3PAVMap@MicroSearch@@A 004a8f80     test.obj
 0003:0005df84       ?extents@?A0x03734ea7@boost@@3V?$extent_gen@$0A@@multi_array@detail@2@A 004a8f84     AlphaBeta.obj
 0003:0005df8c       ?names@EvaluationMethods@Search@@3V?$vector@V?$basic_string@DU?$char_traits@D@std@@V?$allocator@D@2@@std@@V?$allocator@V?$basic_string@DU?$char_traits@D@std@@V?$allocator@D@2@@std@@@2@@std@@A 004a8f8c     Common.obj
 0003:0005dfa4       ?names@PlayerToMove@Search@@3V?$vector@V?$basic_string@DU?$char_traits@D@std@@V?$allocator@D@2@@std@@V?$allocator@V?$basic_string@DU?$char_traits@D@std@@V?$allocator@D@2@@std@@@2@@std@@A 004a8fa4     Common.obj
 0003:0005dfbc       ?names@PlayerModels@Search@@3V?$vector@V?$basic_string@DU?$char_traits@D@std@@V?$allocator@D@2@@std@@V?$allocator@V?$basic_string@DU?$char_traits@D@std@@V?$allocator@D@2@@std@@@2@@std@@A 004a8fbc     Common.obj
 0003:0005dfd4       ?names@Players@Search@@3V?$vector@V?$basic_string@DU?$char_traits@D@std@@V?$allocator@D@2@@std@@V?$allocator@V?$basic_string@DU?$char_traits@D@std@@V?$allocator@D@2@@std@@@2@@std@@A 004a8fd4     Common.obj
 0003:0005dfec       ?attackFrameData@StarcraftData@Search@@3V?$vector@U?$pair@HH@std@@V?$allocator@U?$pair@HH@std@@@2@@std@@A 004a8fec     Common.obj
 0003:0005e004       ?extents@?A0xaed5a66d@boost@@3V?$extent_gen@$0A@@multi_array@detail@2@A 004a9004     Game.obj
 0003:0005e00c       ?extents@?A0x06e4e2b8@boost@@3V?$extent_gen@$0A@@multi_array@detail@2@A 004a900c     GameState.obj
 0003:0005e018       ?values@Hash@MicroSearch@@3PAVHashValues@12@A 004a9018     Hash.obj
 0003:0005e068       ?extents@?A0x748781be@boost@@3V?$extent_gen@$0A@@multi_array@detail@2@A 004a9068     MicroSearchParameters.obj
 0003:0005e070       ?extents@?A0x603258aa@boost@@3V?$extent_gen@$0A@@multi_array@detail@2@A 004a9070     Player.obj
 0003:0005e078       ?extents@?A0x40b9e08e@boost@@3V?$extent_gen@$0A@@multi_array@detail@2@A 004a9078     test.obj
 0003:0005e080       ___sse2_available          004a9080     <common>
 0003:0005e084       __adjust_fdiv              004a9084     <common>
 0003:0005e088       ___native_startup_state    004a9088     <common>
 0003:0005e08c       ___native_startup_lock     004a908c     <common>
 0003:0005e090       ___dyn_tls_init_callback   004a9090     <common>
 0003:0005e094       ___onexitend               004a9094     <common>
 0003:0005e098       ___onexitbegin             004a9098     <common>

 entry point at        0001:00034230

 Static symbols

 0001:00000d57       __catch$?IDAlphaBeta@AlphaBeta@MicroSearch@@QAE?AVAlphaBetaValue@2@AAVGameState@2@ABI@Z$0 00401d57 f    CIL library: CIL module
 0001:00002bc2       __catch$?_Insert_n@?$vector@V?$shared_ptr@VPlayer@MicroSearch@@@boost@@V?$allocator@V?$shared_ptr@VPlayer@MicroSearch@@@boost@@@std@@@std@@IAEXV?$_Vector_const_iterator@V?$shared_ptr@VPlayer@MicroSearch@@@boost@@V?$allocator@V?$shared_ptr@VPlayer@MicroSearch@@@boost@@@std@@@2@IABV?$shared_ptr@VPlayer@MicroSearch@@@boost@@@Z$0 00403bc2 f i  CIL library: CIL module
 0001:00002c83       __catch$?_Insert_n@?$vector@V?$shared_ptr@VPlayer@MicroSearch@@@boost@@V?$allocator@V?$shared_ptr@VPlayer@MicroSearch@@@boost@@@std@@@std@@IAEXV?$_Vector_const_iterator@V?$shared_ptr@VPlayer@MicroSearch@@@boost@@V?$allocator@V?$shared_ptr@VPlayer@MicroSearch@@@boost@@@std@@@2@IABV?$shared_ptr@VPlayer@MicroSearch@@@boost@@@Z$2 00403c83 f i  CIL library: CIL module
 0001:00003419       __catch$??$?0VTranspositionTable@MicroSearch@@@shared_count@detail@boost@@QAE@PAVTranspositionTable@MicroSearch@@@Z$0 00404419 f i  CIL library: CIL module
 0001:000034a9       __catch$??$?0VPlayer_NOK_AttackDPS@MicroSearch@@@shared_count@detail@boost@@QAE@PAVPlayer_NOK_AttackDPS@MicroSearch@@@Z$0 004044a9 f i  CIL library: CIL module
 0001:0000460b       __catch$?_Construct_n@?$vector@U?$pair@HH@std@@V?$allocator@U?$pair@HH@std@@@2@@std@@QAEXIABU?$pair@HH@2@@Z$0 0040560b f i  CIL library: CIL module
 0001:0000487d       __catch$?_Insert_n@?$vector@V?$basic_string@DU?$char_traits@D@std@@V?$allocator@D@2@@std@@V?$allocator@V?$basic_string@DU?$char_traits@D@std@@V?$allocator@D@2@@std@@@2@@std@@IAEXV?$_Vector_const_iterator@V?$basic_string@DU?$char_traits@D@std@@V?$allocator@D@2@@std@@V?$allocator@V?$basic_string@DU?$char_traits@D@std@@V?$allocator@D@2@@std@@@2@@2@IABV?$basic_string@DU?$char_traits@D@std@@V?$allocator@D@2@@2@@Z$0 0040587d f i  CIL library: CIL module
 0001:0000497b       __catch$?_Insert_n@?$vector@V?$basic_string@DU?$char_traits@D@std@@V?$allocator@D@2@@std@@V?$allocator@V?$basic_string@DU?$char_traits@D@std@@V?$allocator@D@2@@std@@@2@@std@@IAEXV?$_Vector_const_iterator@V?$basic_string@DU?$char_traits@D@std@@V?$allocator@D@2@@std@@V?$allocator@V?$basic_string@DU?$char_traits@D@std@@V?$allocator@D@2@@std@@@2@@2@IABV?$basic_string@DU?$char_traits@D@std@@V?$allocator@D@2@@2@@Z$2 0040597b f i  CIL library: CIL module
 0001:00004c32       __catch$??$_Uninit_fill_n@PAV?$basic_string@DU?$char_traits@D@std@@V?$allocator@D@2@@std@@IV12@V?$allocator@V?$basic_string@DU?$char_traits@D@std@@V?$allocator@D@2@@std@@@2@@std@@YAXPAV?$basic_string@DU?$char_traits@D@std@@V?$allocator@D@2@@0@IABV10@AAV?$allocator@V?$basic_string@DU?$char_traits@D@std@@V?$allocator@D@2@@std@@@0@U_Nonscalar_ptr_iterator_tag@0@U_Range_checked_iterator_tag@0@@Z$0 00405c32 f i  CIL library: CIL module
 0001:00004d86       __catch$??$_Uninit_move@PAV?$basic_string@DU?$char_traits@D@std@@V?$allocator@D@2@@std@@PAV12@V?$allocator@V?$basic_string@DU?$char_traits@D@std@@V?$allocator@D@2@@std@@@2@@std@@YAPAV?$basic_string@DU?$char_traits@D@std@@V?$allocator@D@2@@0@PAV10@00AAV?$allocator@V?$basic_string@DU?$char_traits@D@std@@V?$allocator@D@2@@std@@@0@U_Swap_move_tag@0@U_Range_checked_iterator_tag@0@@Z$0 00405d86 f i  CIL library: CIL module
 0001:00005dcb       __catch$?_Construct_n@?$vector@VMove@MicroSearch@@V?$allocator@VMove@MicroSearch@@@std@@@std@@QAEXIABVMove@MicroSearch@@@Z$0 00406dcb f i  CIL library: CIL module
 0001:000063e0       __catch$?_Construct_n@?$vector@V?$Array@VMove@MicroSearch@@$0N@@@V?$allocator@V?$Array@VMove@MicroSearch@@$0N@@@@std@@@std@@QAEXIABV?$Array@VMove@MicroSearch@@$0N@@@@Z$0 004073e0 f i  CIL library: CIL module
 0001:000066a8       __catch$??$_Uninit_fill_n@PAV?$Array@VMove@MicroSearch@@$0N@@@IV1@V?$allocator@V?$Array@VMove@MicroSearch@@$0N@@@@std@@@std@@YAXPAV?$Array@VMove@MicroSearch@@$0N@@@IABV1@AAV?$allocator@V?$Array@VMove@MicroSearch@@$0N@@@@0@U_Nonscalar_ptr_iterator_tag@0@U_Range_checked_iterator_tag@0@@Z$0 004076a8 f i  CIL library: CIL module
 0001:0000678a       __catch$??$_Uninit_copy@PAV?$Array@VMove@MicroSearch@@$0N@@@PAV1@V?$allocator@V?$Array@VMove@MicroSearch@@$0N@@@@std@@@std@@YAPAV?$Array@VMove@MicroSearch@@$0N@@@PAV1@00AAV?$allocator@V?$Array@VMove@MicroSearch@@$0N@@@@0@U_Nonscalar_ptr_iterator_tag@0@U_Range_checked_iterator_tag@0@@Z$0 0040778a f i  CIL library: CIL module
 0001:00006919       __catch$??0?$vector@VMove@MicroSearch@@V?$allocator@VMove@MicroSearch@@@std@@@std@@QAE@ABV01@@Z$0 00407919 f i  CIL library: CIL module
 0001:0000b9bc       __catch$??0?$vector@VUnit@MicroSearch@@V?$allocator@VUnit@MicroSearch@@@std@@@std@@QAE@ABV01@@Z$0 0040c9bc f i  CIL library: CIL module
 0001:0000c662       __catch$??0?$vector@V?$Array@VUnit@MicroSearch@@$07@@V?$allocator@V?$Array@VUnit@MicroSearch@@$07@@@std@@@std@@QAE@ABV01@@Z$0 0040d662 f i  CIL library: CIL module
 0001:0000c98c       __catch$??0?$vector@V?$Array@PAVUnit@MicroSearch@@$07@@V?$allocator@V?$Array@PAVUnit@MicroSearch@@$07@@@std@@@std@@QAE@ABV01@@Z$0 0040d98c f i  CIL library: CIL module
 0001:0000d879       __catch$??$?0VPlayer@MicroSearch@@@shared_count@detail@boost@@QAE@PAVPlayer@MicroSearch@@@Z$0 0040e879 f i  CIL library: CIL module
 0001:0000d920       __catch$??$_Uninit_copy@PBV?$Array@VUnit@MicroSearch@@$07@@PAV1@V?$allocator@V?$Array@VUnit@MicroSearch@@$07@@@std@@@std@@YAPAV?$Array@VUnit@MicroSearch@@$07@@PBV1@0PAV1@AAV?$allocator@V?$Array@VUnit@MicroSearch@@$07@@@0@U_Nonscalar_ptr_iterator_tag@0@U_Range_checked_iterator_tag@0@@Z$0 0040e920 f i  CIL library: CIL module
 0001:0000d9ba       __catch$??$_Uninit_copy@PBV?$Array@PAVUnit@MicroSearch@@$07@@PAV1@V?$allocator@V?$Array@PAVUnit@MicroSearch@@$07@@@std@@@std@@YAPAV?$Array@PAVUnit@MicroSearch@@$07@@PBV1@0PAV1@AAV?$allocator@V?$Array@PAVUnit@MicroSearch@@$07@@@0@U_Nonscalar_ptr_iterator_tag@0@U_Range_checked_iterator_tag@0@@Z$0 0040e9ba f i  CIL library: CIL module
 0001:00014091       __catch$?_Insert_n@?$vector@VMove@MicroSearch@@V?$allocator@VMove@MicroSearch@@@std@@@std@@IAEXV?$_Vector_const_iterator@VMove@MicroSearch@@V?$allocator@VMove@MicroSearch@@@std@@@2@IABVMove@MicroSearch@@@Z$0 00415091 f i  CIL library: CIL module
 0001:0001409d       __catch$?_Insert_n@?$vector@VMove@MicroSearch@@V?$allocator@VMove@MicroSearch@@@std@@@std@@IAEXV?$_Vector_const_iterator@VMove@MicroSearch@@V?$allocator@VMove@MicroSearch@@@std@@@2@IABVMove@MicroSearch@@@Z$2 0041509d f i  CIL library: CIL module
 0001:00015ea5       __catch$?_Construct_n@?$vector@V?$vector@_NV?$allocator@_N@std@@@std@@V?$allocator@V?$vector@_NV?$allocator@_N@std@@@std@@@2@@std@@QAEXIABV?$vector@_NV?$allocator@_N@std@@@2@@Z$0 00416ea5 f i  CIL library: CIL module
 0001:00016561       __catch$?_Insert_n@?$vector@VGameState@MicroSearch@@V?$allocator@VGameState@MicroSearch@@@std@@@std@@IAEXV?$_Vector_const_iterator@VGameState@MicroSearch@@V?$allocator@VGameState@MicroSearch@@@std@@@2@IABVGameState@MicroSearch@@@Z$0 00417561 f i  CIL library: CIL module
 0001:0001667a       __catch$?_Insert_n@?$vector@VGameState@MicroSearch@@V?$allocator@VGameState@MicroSearch@@@std@@@std@@IAEXV?$_Vector_const_iterator@VGameState@MicroSearch@@V?$allocator@VGameState@MicroSearch@@@std@@@2@IABVGameState@MicroSearch@@@Z$2 0041767a f i  CIL library: CIL module
 0001:00016e93       __catch$??$_Uninit_fill_n@PAVGameState@MicroSearch@@IV12@V?$allocator@VGameState@MicroSearch@@@std@@@std@@YAXPAVGameState@MicroSearch@@IABV12@AAV?$allocator@VGameState@MicroSearch@@@0@U_Nonscalar_ptr_iterator_tag@0@U_Range_checked_iterator_tag@0@@Z$0 00417e93 f i  CIL library: CIL module
 0001:00016f35       __catch$??$_Uninit_fill_n@PAV?$vector@_NV?$allocator@_N@std@@@std@@IV12@V?$allocator@V?$vector@_NV?$allocator@_N@std@@@std@@@2@@std@@YAXPAV?$vector@_NV?$allocator@_N@std@@@0@IABV10@AAV?$allocator@V?$vector@_NV?$allocator@_N@std@@@std@@@0@U_Nonscalar_ptr_iterator_tag@0@U_Range_checked_iterator_tag@0@@Z$0 00417f35 f i  CIL library: CIL module
 0001:00016fe9       __catch$??$?0VPlayer_AttackClosest@MicroSearch@@@shared_count@detail@boost@@QAE@PAVPlayer_AttackClosest@MicroSearch@@@Z$0 00417fe9 f i  CIL library: CIL module
 0001:00017079       __catch$??$?0VPlayer_AttackWeakest@MicroSearch@@@shared_count@detail@boost@@QAE@PAVPlayer_AttackWeakest@MicroSearch@@@Z$0 00418079 f i  CIL library: CIL module
 0001:00017109       __catch$??$?0VPlayer_AttackDPS@MicroSearch@@@shared_count@detail@boost@@QAE@PAVPlayer_AttackDPS@MicroSearch@@@Z$0 00418109 f i  CIL library: CIL module
 0001:00017199       __catch$??$?0VPlayer_Kiter@MicroSearch@@@shared_count@detail@boost@@QAE@PAVPlayer_Kiter@MicroSearch@@@Z$0 00418199 f i  CIL library: CIL module
 0001:00017229       __catch$??$?0VPlayer_KiterDPS@MicroSearch@@@shared_count@detail@boost@@QAE@PAVPlayer_KiterDPS@MicroSearch@@@Z$0 00418229 f i  CIL library: CIL module
 0001:000172b9       __catch$??$?0VPlayer_AlphaBeta@MicroSearch@@@shared_count@detail@boost@@QAE@PAVPlayer_AlphaBeta@MicroSearch@@@Z$0 004182b9 f i  CIL library: CIL module
 0001:00017359       __catch$??$?0VPlayer_Random@MicroSearch@@@shared_count@detail@boost@@QAE@PAVPlayer_Random@MicroSearch@@@Z$0 00418359 f i  CIL library: CIL module
 0001:000173cf       __catch$??$_Uninit_copy@PAV?$vector@_NV?$allocator@_N@std@@@std@@PAV12@V?$allocator@V?$vector@_NV?$allocator@_N@std@@@std@@@2@@std@@YAPAV?$vector@_NV?$allocator@_N@std@@@0@PAV10@00AAV?$allocator@V?$vector@_NV?$allocator@_N@std@@@std@@@0@U_Nonscalar_ptr_iterator_tag@0@U_Range_checked_iterator_tag@0@@Z$0 004183cf f i  CIL library: CIL module
 0001:00017656       __catch$??$_Uninit_copy@PAVGameState@MicroSearch@@PAV12@V?$allocator@VGameState@MicroSearch@@@std@@@std@@YAPAVGameState@MicroSearch@@PAV12@00AAV?$allocator@VGameState@MicroSearch@@@0@U_Nonscalar_ptr_iterator_tag@0@U_Range_checked_iterator_tag@0@@Z$0 00418656 f i  CIL library: CIL module
 0001:00017bf5       __catch$?_Construct_n@?$vector@VTTEntry@MicroSearch@@V?$allocator@VTTEntry@MicroSearch@@@std@@@std@@QAEXIABVTTEntry@MicroSearch@@@Z$0 00418bf5 f i  CIL library: CIL module
 0001:000302d7       __catch$?_Buynode@?$_Tree@V?$_Tmap_traits@V?$basic_string@DU?$char_traits@D@std@@V?$allocator@D@2@@std@@VBulletType@BWAPI@@U?$less@V?$basic_string@DU?$char_traits@D@std@@V?$allocator@D@2@@std@@@2@V?$allocator@U?$pair@$$CBV?$basic_string@DU?$char_traits@D@std@@V?$allocator@D@2@@std@@VBulletType@BWAPI@@@std@@@2@$0A@@std@@@std@@IAEPAU_Node@?$_Tree_nod@V?$_Tmap_traits@V?$basic_string@DU?$char_traits@D@std@@V?$allocator@D@2@@std@@VBulletType@BWAPI@@U?$less@V?$basic_string@DU?$char_traits@D@std@@V?$allocator@D@2@@std@@@2@V?$allocator@U?$pair@$$CBV?$basic_string@DU?$char_traits@D@std@@V?$allocator@D@2@@std@@VBulletType@BWAPI@@@std@@@2@$0A@@std@@@2@PAU342@00ABU?$pair@$$CBV?$basic_string@DU?$char_traits@D@std@@V?$allocator@D@2@@std@@VBulletType@BWAPI@@@2@D@Z$0 004312d7 f i BWAPI:UnitCommandType.obj
